ARM GAS  /var/folders/7j/7n_15nxd0bx4q178nq7r8qsr0000gn/T//cc8hDKNO.s 			page 1


   1              		.cpu cortex-m7
   2              		.arch armv7e-m
   3              		.fpu fpv5-d16
   4              		.eabi_attribute 28, 1
   5              		.eabi_attribute 20, 1
   6              		.eabi_attribute 21, 1
   7              		.eabi_attribute 23, 3
   8              		.eabi_attribute 24, 1
   9              		.eabi_attribute 25, 1
  10              		.eabi_attribute 26, 1
  11              		.eabi_attribute 30, 4
  12              		.eabi_attribute 34, 1
  13              		.eabi_attribute 18, 4
  14              		.file	"rosic_FourierTransformerRadix2.cpp"
  15              		.text
  16              	.Ltext0:
  17              		.cfi_sections	.debug_frame
  18              		.file 1 "open303/Source/DSPCode/rosic_FourierTransformerRadix2.cpp"
  19              		.section	.text._Z6makectiPiPd,"ax",%progbits
  20              		.align	1
  21              		.global	_Z6makectiPiPd
  22              		.syntax unified
  23              		.thumb
  24              		.thumb_func
  26              	_Z6makectiPiPd:
  27              	.LVL0:
  28              	.LFB648:
  29              		.file 2 "open303/Source/DSPCode/fft4g.c"
   1:open303/Source/DSPCode/fft4g.c **** /*
   2:open303/Source/DSPCode/fft4g.c **** Fast Fourier/Cosine/Sine Transform
   3:open303/Source/DSPCode/fft4g.c ****     dimension   :one
   4:open303/Source/DSPCode/fft4g.c ****     data length :power of 2
   5:open303/Source/DSPCode/fft4g.c ****     decimation  :frequency
   6:open303/Source/DSPCode/fft4g.c ****     radix       :4, 2
   7:open303/Source/DSPCode/fft4g.c ****     data        :inplace
   8:open303/Source/DSPCode/fft4g.c ****     table       :use
   9:open303/Source/DSPCode/fft4g.c **** functions
  10:open303/Source/DSPCode/fft4g.c ****     cdft: Complex Discrete Fourier Transform
  11:open303/Source/DSPCode/fft4g.c ****     rdft: Real Discrete Fourier Transform
  12:open303/Source/DSPCode/fft4g.c ****     ddct: Discrete Cosine Transform
  13:open303/Source/DSPCode/fft4g.c ****     ddst: Discrete Sine Transform
  14:open303/Source/DSPCode/fft4g.c ****     dfct: Cosine Transform of RDFT (Real Symmetric DFT)
  15:open303/Source/DSPCode/fft4g.c ****     dfst: Sine Transform of RDFT (Real Anti-symmetric DFT)
  16:open303/Source/DSPCode/fft4g.c **** function prototypes
  17:open303/Source/DSPCode/fft4g.c ****     void cdft(int, int, double *, int *, double *);
  18:open303/Source/DSPCode/fft4g.c ****     void rdft(int, int, double *, int *, double *);
  19:open303/Source/DSPCode/fft4g.c ****     void ddct(int, int, double *, int *, double *);
  20:open303/Source/DSPCode/fft4g.c ****     void ddst(int, int, double *, int *, double *);
  21:open303/Source/DSPCode/fft4g.c ****     void dfct(int, double *, double *, int *, double *);
  22:open303/Source/DSPCode/fft4g.c ****     void dfst(int, double *, double *, int *, double *);
  23:open303/Source/DSPCode/fft4g.c **** 
  24:open303/Source/DSPCode/fft4g.c **** 
  25:open303/Source/DSPCode/fft4g.c **** -------- Complex DFT (Discrete Fourier Transform) --------
  26:open303/Source/DSPCode/fft4g.c ****     [definition]
  27:open303/Source/DSPCode/fft4g.c ****         <case1>
  28:open303/Source/DSPCode/fft4g.c ****             X[k] = sum_j=0^n-1 x[j]*exp(2*pi*i*j*k/n), 0<=k<n
  29:open303/Source/DSPCode/fft4g.c ****         <case2>
ARM GAS  /var/folders/7j/7n_15nxd0bx4q178nq7r8qsr0000gn/T//cc8hDKNO.s 			page 2


  30:open303/Source/DSPCode/fft4g.c ****             X[k] = sum_j=0^n-1 x[j]*exp(-2*pi*i*j*k/n), 0<=k<n
  31:open303/Source/DSPCode/fft4g.c ****         (notes: sum_j=0^n-1 is a summation from j=0 to n-1)
  32:open303/Source/DSPCode/fft4g.c ****     [usage]
  33:open303/Source/DSPCode/fft4g.c ****         <case1>
  34:open303/Source/DSPCode/fft4g.c ****             ip[0] = 0; // first time only
  35:open303/Source/DSPCode/fft4g.c ****             cdft(2*n, 1, a, ip, w);
  36:open303/Source/DSPCode/fft4g.c ****         <case2>
  37:open303/Source/DSPCode/fft4g.c ****             ip[0] = 0; // first time only
  38:open303/Source/DSPCode/fft4g.c ****             cdft(2*n, -1, a, ip, w);
  39:open303/Source/DSPCode/fft4g.c ****     [parameters]
  40:open303/Source/DSPCode/fft4g.c ****         2*n            :data length (int)
  41:open303/Source/DSPCode/fft4g.c ****                         n >= 1, n = power of 2
  42:open303/Source/DSPCode/fft4g.c ****         a[0...2*n-1]   :input/output data (double *)
  43:open303/Source/DSPCode/fft4g.c ****                         input data
  44:open303/Source/DSPCode/fft4g.c ****                             a[2*j] = Re(x[j]), 
  45:open303/Source/DSPCode/fft4g.c ****                             a[2*j+1] = Im(x[j]), 0<=j<n
  46:open303/Source/DSPCode/fft4g.c ****                         output data
  47:open303/Source/DSPCode/fft4g.c ****                             a[2*k] = Re(X[k]), 
  48:open303/Source/DSPCode/fft4g.c ****                             a[2*k+1] = Im(X[k]), 0<=k<n
  49:open303/Source/DSPCode/fft4g.c ****         ip[0...*]      :work area for bit reversal (int *)
  50:open303/Source/DSPCode/fft4g.c ****                         length of ip >= 2+sqrt(n)
  51:open303/Source/DSPCode/fft4g.c ****                         strictly, 
  52:open303/Source/DSPCode/fft4g.c ****                         length of ip >= 
  53:open303/Source/DSPCode/fft4g.c ****                             2+(1<<(int)(log(n+0.5)/log(2))/2).
  54:open303/Source/DSPCode/fft4g.c ****                         ip[0],ip[1] are pointers of the cos/sin table.
  55:open303/Source/DSPCode/fft4g.c ****         w[0...n/2-1]   :cos/sin table (double *)
  56:open303/Source/DSPCode/fft4g.c ****                         w[],ip[] are initialized if ip[0] == 0.
  57:open303/Source/DSPCode/fft4g.c ****     [remark]
  58:open303/Source/DSPCode/fft4g.c ****         Inverse of 
  59:open303/Source/DSPCode/fft4g.c ****             cdft(2*n, -1, a, ip, w);
  60:open303/Source/DSPCode/fft4g.c ****         is 
  61:open303/Source/DSPCode/fft4g.c ****             cdft(2*n, 1, a, ip, w);
  62:open303/Source/DSPCode/fft4g.c ****             for (j = 0; j <= 2 * n - 1; j++) {
  63:open303/Source/DSPCode/fft4g.c ****                 a[j] *= 1.0 / n;
  64:open303/Source/DSPCode/fft4g.c ****             }
  65:open303/Source/DSPCode/fft4g.c ****         .
  66:open303/Source/DSPCode/fft4g.c **** 
  67:open303/Source/DSPCode/fft4g.c **** 
  68:open303/Source/DSPCode/fft4g.c **** -------- Real DFT / Inverse of Real DFT --------
  69:open303/Source/DSPCode/fft4g.c ****     [definition]
  70:open303/Source/DSPCode/fft4g.c ****         <case1> RDFT
  71:open303/Source/DSPCode/fft4g.c ****             R[k] = sum_j=0^n-1 a[j]*cos(2*pi*j*k/n), 0<=k<=n/2
  72:open303/Source/DSPCode/fft4g.c ****             I[k] = sum_j=0^n-1 a[j]*sin(2*pi*j*k/n), 0<k<n/2
  73:open303/Source/DSPCode/fft4g.c ****         <case2> IRDFT (excluding scale)
  74:open303/Source/DSPCode/fft4g.c ****             a[k] = (R[0] + R[n/2]*cos(pi*k))/2 + 
  75:open303/Source/DSPCode/fft4g.c ****                    sum_j=1^n/2-1 R[j]*cos(2*pi*j*k/n) + 
  76:open303/Source/DSPCode/fft4g.c ****                    sum_j=1^n/2-1 I[j]*sin(2*pi*j*k/n), 0<=k<n
  77:open303/Source/DSPCode/fft4g.c ****     [usage]
  78:open303/Source/DSPCode/fft4g.c ****         <case1>
  79:open303/Source/DSPCode/fft4g.c ****             ip[0] = 0; // first time only
  80:open303/Source/DSPCode/fft4g.c ****             rdft(n, 1, a, ip, w);
  81:open303/Source/DSPCode/fft4g.c ****         <case2>
  82:open303/Source/DSPCode/fft4g.c ****             ip[0] = 0; // first time only
  83:open303/Source/DSPCode/fft4g.c ****             rdft(n, -1, a, ip, w);
  84:open303/Source/DSPCode/fft4g.c ****     [parameters]
  85:open303/Source/DSPCode/fft4g.c ****         n              :data length (int)
  86:open303/Source/DSPCode/fft4g.c ****                         n >= 2, n = power of 2
ARM GAS  /var/folders/7j/7n_15nxd0bx4q178nq7r8qsr0000gn/T//cc8hDKNO.s 			page 3


  87:open303/Source/DSPCode/fft4g.c ****         a[0...n-1]     :input/output data (double *)
  88:open303/Source/DSPCode/fft4g.c ****                         <case1>
  89:open303/Source/DSPCode/fft4g.c ****                             output data
  90:open303/Source/DSPCode/fft4g.c ****                                 a[2*k] = R[k], 0<=k<n/2
  91:open303/Source/DSPCode/fft4g.c ****                                 a[2*k+1] = I[k], 0<k<n/2
  92:open303/Source/DSPCode/fft4g.c ****                                 a[1] = R[n/2]
  93:open303/Source/DSPCode/fft4g.c ****                         <case2>
  94:open303/Source/DSPCode/fft4g.c ****                             input data
  95:open303/Source/DSPCode/fft4g.c ****                                 a[2*j] = R[j], 0<=j<n/2
  96:open303/Source/DSPCode/fft4g.c ****                                 a[2*j+1] = I[j], 0<j<n/2
  97:open303/Source/DSPCode/fft4g.c ****                                 a[1] = R[n/2]
  98:open303/Source/DSPCode/fft4g.c ****         ip[0...*]      :work area for bit reversal (int *)
  99:open303/Source/DSPCode/fft4g.c ****                         length of ip >= 2+sqrt(n/2)
 100:open303/Source/DSPCode/fft4g.c ****                         strictly, 
 101:open303/Source/DSPCode/fft4g.c ****                         length of ip >= 
 102:open303/Source/DSPCode/fft4g.c ****                             2+(1<<(int)(log(n/2+0.5)/log(2))/2).
 103:open303/Source/DSPCode/fft4g.c ****                         ip[0],ip[1] are pointers of the cos/sin table.
 104:open303/Source/DSPCode/fft4g.c ****         w[0...n/2-1]   :cos/sin table (double *)
 105:open303/Source/DSPCode/fft4g.c ****                         w[],ip[] are initialized if ip[0] == 0.
 106:open303/Source/DSPCode/fft4g.c ****     [remark]
 107:open303/Source/DSPCode/fft4g.c ****         Inverse of 
 108:open303/Source/DSPCode/fft4g.c ****             rdft(n, 1, a, ip, w);
 109:open303/Source/DSPCode/fft4g.c ****         is 
 110:open303/Source/DSPCode/fft4g.c ****             rdft(n, -1, a, ip, w);
 111:open303/Source/DSPCode/fft4g.c ****             for (j = 0; j <= n - 1; j++) {
 112:open303/Source/DSPCode/fft4g.c ****                 a[j] *= 2.0 / n;
 113:open303/Source/DSPCode/fft4g.c ****             }
 114:open303/Source/DSPCode/fft4g.c ****         .
 115:open303/Source/DSPCode/fft4g.c **** 
 116:open303/Source/DSPCode/fft4g.c **** 
 117:open303/Source/DSPCode/fft4g.c **** -------- DCT (Discrete Cosine Transform) / Inverse of DCT --------
 118:open303/Source/DSPCode/fft4g.c ****     [definition]
 119:open303/Source/DSPCode/fft4g.c ****         <case1> IDCT (excluding scale)
 120:open303/Source/DSPCode/fft4g.c ****             C[k] = sum_j=0^n-1 a[j]*cos(pi*j*(k+1/2)/n), 0<=k<n
 121:open303/Source/DSPCode/fft4g.c ****         <case2> DCT
 122:open303/Source/DSPCode/fft4g.c ****             C[k] = sum_j=0^n-1 a[j]*cos(pi*(j+1/2)*k/n), 0<=k<n
 123:open303/Source/DSPCode/fft4g.c ****     [usage]
 124:open303/Source/DSPCode/fft4g.c ****         <case1>
 125:open303/Source/DSPCode/fft4g.c ****             ip[0] = 0; // first time only
 126:open303/Source/DSPCode/fft4g.c ****             ddct(n, 1, a, ip, w);
 127:open303/Source/DSPCode/fft4g.c ****         <case2>
 128:open303/Source/DSPCode/fft4g.c ****             ip[0] = 0; // first time only
 129:open303/Source/DSPCode/fft4g.c ****             ddct(n, -1, a, ip, w);
 130:open303/Source/DSPCode/fft4g.c ****     [parameters]
 131:open303/Source/DSPCode/fft4g.c ****         n              :data length (int)
 132:open303/Source/DSPCode/fft4g.c ****                         n >= 2, n = power of 2
 133:open303/Source/DSPCode/fft4g.c ****         a[0...n-1]     :input/output data (double *)
 134:open303/Source/DSPCode/fft4g.c ****                         output data
 135:open303/Source/DSPCode/fft4g.c ****                             a[k] = C[k], 0<=k<n
 136:open303/Source/DSPCode/fft4g.c ****         ip[0...*]      :work area for bit reversal (int *)
 137:open303/Source/DSPCode/fft4g.c ****                         length of ip >= 2+sqrt(n/2)
 138:open303/Source/DSPCode/fft4g.c ****                         strictly, 
 139:open303/Source/DSPCode/fft4g.c ****                         length of ip >= 
 140:open303/Source/DSPCode/fft4g.c ****                             2+(1<<(int)(log(n/2+0.5)/log(2))/2).
 141:open303/Source/DSPCode/fft4g.c ****                         ip[0],ip[1] are pointers of the cos/sin table.
 142:open303/Source/DSPCode/fft4g.c ****         w[0...n*5/4-1] :cos/sin table (double *)
 143:open303/Source/DSPCode/fft4g.c ****                         w[],ip[] are initialized if ip[0] == 0.
ARM GAS  /var/folders/7j/7n_15nxd0bx4q178nq7r8qsr0000gn/T//cc8hDKNO.s 			page 4


 144:open303/Source/DSPCode/fft4g.c ****     [remark]
 145:open303/Source/DSPCode/fft4g.c ****         Inverse of 
 146:open303/Source/DSPCode/fft4g.c ****             ddct(n, -1, a, ip, w);
 147:open303/Source/DSPCode/fft4g.c ****         is 
 148:open303/Source/DSPCode/fft4g.c ****             a[0] *= 0.5;
 149:open303/Source/DSPCode/fft4g.c ****             ddct(n, 1, a, ip, w);
 150:open303/Source/DSPCode/fft4g.c ****             for (j = 0; j <= n - 1; j++) {
 151:open303/Source/DSPCode/fft4g.c ****                 a[j] *= 2.0 / n;
 152:open303/Source/DSPCode/fft4g.c ****             }
 153:open303/Source/DSPCode/fft4g.c ****         .
 154:open303/Source/DSPCode/fft4g.c **** 
 155:open303/Source/DSPCode/fft4g.c **** 
 156:open303/Source/DSPCode/fft4g.c **** -------- DST (Discrete Sine Transform) / Inverse of DST --------
 157:open303/Source/DSPCode/fft4g.c ****     [definition]
 158:open303/Source/DSPCode/fft4g.c ****         <case1> IDST (excluding scale)
 159:open303/Source/DSPCode/fft4g.c ****             S[k] = sum_j=1^n A[j]*sin(pi*j*(k+1/2)/n), 0<=k<n
 160:open303/Source/DSPCode/fft4g.c ****         <case2> DST
 161:open303/Source/DSPCode/fft4g.c ****             S[k] = sum_j=0^n-1 a[j]*sin(pi*(j+1/2)*k/n), 0<k<=n
 162:open303/Source/DSPCode/fft4g.c ****     [usage]
 163:open303/Source/DSPCode/fft4g.c ****         <case1>
 164:open303/Source/DSPCode/fft4g.c ****             ip[0] = 0; // first time only
 165:open303/Source/DSPCode/fft4g.c ****             ddst(n, 1, a, ip, w);
 166:open303/Source/DSPCode/fft4g.c ****         <case2>
 167:open303/Source/DSPCode/fft4g.c ****             ip[0] = 0; // first time only
 168:open303/Source/DSPCode/fft4g.c ****             ddst(n, -1, a, ip, w);
 169:open303/Source/DSPCode/fft4g.c ****     [parameters]
 170:open303/Source/DSPCode/fft4g.c ****         n              :data length (int)
 171:open303/Source/DSPCode/fft4g.c ****                         n >= 2, n = power of 2
 172:open303/Source/DSPCode/fft4g.c ****         a[0...n-1]     :input/output data (double *)
 173:open303/Source/DSPCode/fft4g.c ****                         <case1>
 174:open303/Source/DSPCode/fft4g.c ****                             input data
 175:open303/Source/DSPCode/fft4g.c ****                                 a[j] = A[j], 0<j<n
 176:open303/Source/DSPCode/fft4g.c ****                                 a[0] = A[n]
 177:open303/Source/DSPCode/fft4g.c ****                             output data
 178:open303/Source/DSPCode/fft4g.c ****                                 a[k] = S[k], 0<=k<n
 179:open303/Source/DSPCode/fft4g.c ****                         <case2>
 180:open303/Source/DSPCode/fft4g.c ****                             output data
 181:open303/Source/DSPCode/fft4g.c ****                                 a[k] = S[k], 0<k<n
 182:open303/Source/DSPCode/fft4g.c ****                                 a[0] = S[n]
 183:open303/Source/DSPCode/fft4g.c ****         ip[0...*]      :work area for bit reversal (int *)
 184:open303/Source/DSPCode/fft4g.c ****                         length of ip >= 2+sqrt(n/2)
 185:open303/Source/DSPCode/fft4g.c ****                         strictly, 
 186:open303/Source/DSPCode/fft4g.c ****                         length of ip >= 
 187:open303/Source/DSPCode/fft4g.c ****                             2+(1<<(int)(log(n/2+0.5)/log(2))/2).
 188:open303/Source/DSPCode/fft4g.c ****                         ip[0],ip[1] are pointers of the cos/sin table.
 189:open303/Source/DSPCode/fft4g.c ****         w[0...n*5/4-1] :cos/sin table (double *)
 190:open303/Source/DSPCode/fft4g.c ****                         w[],ip[] are initialized if ip[0] == 0.
 191:open303/Source/DSPCode/fft4g.c ****     [remark]
 192:open303/Source/DSPCode/fft4g.c ****         Inverse of 
 193:open303/Source/DSPCode/fft4g.c ****             ddst(n, -1, a, ip, w);
 194:open303/Source/DSPCode/fft4g.c ****         is 
 195:open303/Source/DSPCode/fft4g.c ****             a[0] *= 0.5;
 196:open303/Source/DSPCode/fft4g.c ****             ddst(n, 1, a, ip, w);
 197:open303/Source/DSPCode/fft4g.c ****             for (j = 0; j <= n - 1; j++) {
 198:open303/Source/DSPCode/fft4g.c ****                 a[j] *= 2.0 / n;
 199:open303/Source/DSPCode/fft4g.c ****             }
 200:open303/Source/DSPCode/fft4g.c ****         .
ARM GAS  /var/folders/7j/7n_15nxd0bx4q178nq7r8qsr0000gn/T//cc8hDKNO.s 			page 5


 201:open303/Source/DSPCode/fft4g.c **** 
 202:open303/Source/DSPCode/fft4g.c **** 
 203:open303/Source/DSPCode/fft4g.c **** -------- Cosine Transform of RDFT (Real Symmetric DFT) --------
 204:open303/Source/DSPCode/fft4g.c ****     [definition]
 205:open303/Source/DSPCode/fft4g.c ****         C[k] = sum_j=0^n a[j]*cos(pi*j*k/n), 0<=k<=n
 206:open303/Source/DSPCode/fft4g.c ****     [usage]
 207:open303/Source/DSPCode/fft4g.c ****         ip[0] = 0; // first time only
 208:open303/Source/DSPCode/fft4g.c ****         dfct(n, a, t, ip, w);
 209:open303/Source/DSPCode/fft4g.c ****     [parameters]
 210:open303/Source/DSPCode/fft4g.c ****         n              :data length - 1 (int)
 211:open303/Source/DSPCode/fft4g.c ****                         n >= 2, n = power of 2
 212:open303/Source/DSPCode/fft4g.c ****         a[0...n]       :input/output data (double *)
 213:open303/Source/DSPCode/fft4g.c ****                         output data
 214:open303/Source/DSPCode/fft4g.c ****                             a[k] = C[k], 0<=k<=n
 215:open303/Source/DSPCode/fft4g.c ****         t[0...n/2]     :work area (double *)
 216:open303/Source/DSPCode/fft4g.c ****         ip[0...*]      :work area for bit reversal (int *)
 217:open303/Source/DSPCode/fft4g.c ****                         length of ip >= 2+sqrt(n/4)
 218:open303/Source/DSPCode/fft4g.c ****                         strictly, 
 219:open303/Source/DSPCode/fft4g.c ****                         length of ip >= 
 220:open303/Source/DSPCode/fft4g.c ****                             2+(1<<(int)(log(n/4+0.5)/log(2))/2).
 221:open303/Source/DSPCode/fft4g.c ****                         ip[0],ip[1] are pointers of the cos/sin table.
 222:open303/Source/DSPCode/fft4g.c ****         w[0...n*5/8-1] :cos/sin table (double *)
 223:open303/Source/DSPCode/fft4g.c ****                         w[],ip[] are initialized if ip[0] == 0.
 224:open303/Source/DSPCode/fft4g.c ****     [remark]
 225:open303/Source/DSPCode/fft4g.c ****         Inverse of 
 226:open303/Source/DSPCode/fft4g.c ****             a[0] *= 0.5;
 227:open303/Source/DSPCode/fft4g.c ****             a[n] *= 0.5;
 228:open303/Source/DSPCode/fft4g.c ****             dfct(n, a, t, ip, w);
 229:open303/Source/DSPCode/fft4g.c ****         is 
 230:open303/Source/DSPCode/fft4g.c ****             a[0] *= 0.5;
 231:open303/Source/DSPCode/fft4g.c ****             a[n] *= 0.5;
 232:open303/Source/DSPCode/fft4g.c ****             dfct(n, a, t, ip, w);
 233:open303/Source/DSPCode/fft4g.c ****             for (j = 0; j <= n; j++) {
 234:open303/Source/DSPCode/fft4g.c ****                 a[j] *= 2.0 / n;
 235:open303/Source/DSPCode/fft4g.c ****             }
 236:open303/Source/DSPCode/fft4g.c ****         .
 237:open303/Source/DSPCode/fft4g.c **** 
 238:open303/Source/DSPCode/fft4g.c **** 
 239:open303/Source/DSPCode/fft4g.c **** -------- Sine Transform of RDFT (Real Anti-symmetric DFT) --------
 240:open303/Source/DSPCode/fft4g.c ****     [definition]
 241:open303/Source/DSPCode/fft4g.c ****         S[k] = sum_j=1^n-1 a[j]*sin(pi*j*k/n), 0<k<n
 242:open303/Source/DSPCode/fft4g.c ****     [usage]
 243:open303/Source/DSPCode/fft4g.c ****         ip[0] = 0; // first time only
 244:open303/Source/DSPCode/fft4g.c ****         dfst(n, a, t, ip, w);
 245:open303/Source/DSPCode/fft4g.c ****     [parameters]
 246:open303/Source/DSPCode/fft4g.c ****         n              :data length + 1 (int)
 247:open303/Source/DSPCode/fft4g.c ****                         n >= 2, n = power of 2
 248:open303/Source/DSPCode/fft4g.c ****         a[0...n-1]     :input/output data (double *)
 249:open303/Source/DSPCode/fft4g.c ****                         output data
 250:open303/Source/DSPCode/fft4g.c ****                             a[k] = S[k], 0<k<n
 251:open303/Source/DSPCode/fft4g.c ****                         (a[0] is used for work area)
 252:open303/Source/DSPCode/fft4g.c ****         t[0...n/2-1]   :work area (double *)
 253:open303/Source/DSPCode/fft4g.c ****         ip[0...*]      :work area for bit reversal (int *)
 254:open303/Source/DSPCode/fft4g.c ****                         length of ip >= 2+sqrt(n/4)
 255:open303/Source/DSPCode/fft4g.c ****                         strictly, 
 256:open303/Source/DSPCode/fft4g.c ****                         length of ip >= 
 257:open303/Source/DSPCode/fft4g.c ****                             2+(1<<(int)(log(n/4+0.5)/log(2))/2).
ARM GAS  /var/folders/7j/7n_15nxd0bx4q178nq7r8qsr0000gn/T//cc8hDKNO.s 			page 6


 258:open303/Source/DSPCode/fft4g.c ****                         ip[0],ip[1] are pointers of the cos/sin table.
 259:open303/Source/DSPCode/fft4g.c ****         w[0...n*5/8-1] :cos/sin table (double *)
 260:open303/Source/DSPCode/fft4g.c ****                         w[],ip[] are initialized if ip[0] == 0.
 261:open303/Source/DSPCode/fft4g.c ****     [remark]
 262:open303/Source/DSPCode/fft4g.c ****         Inverse of 
 263:open303/Source/DSPCode/fft4g.c ****             dfst(n, a, t, ip, w);
 264:open303/Source/DSPCode/fft4g.c ****         is 
 265:open303/Source/DSPCode/fft4g.c ****             dfst(n, a, t, ip, w);
 266:open303/Source/DSPCode/fft4g.c ****             for (j = 1; j <= n - 1; j++) {
 267:open303/Source/DSPCode/fft4g.c ****                 a[j] *= 2.0 / n;
 268:open303/Source/DSPCode/fft4g.c ****             }
 269:open303/Source/DSPCode/fft4g.c ****         .
 270:open303/Source/DSPCode/fft4g.c **** 
 271:open303/Source/DSPCode/fft4g.c **** 
 272:open303/Source/DSPCode/fft4g.c **** Appendix :
 273:open303/Source/DSPCode/fft4g.c ****     The cos/sin table is recalculated when the larger table required.
 274:open303/Source/DSPCode/fft4g.c ****     w[] and ip[] are compatible with all routines.
 275:open303/Source/DSPCode/fft4g.c **** */
 276:open303/Source/DSPCode/fft4g.c **** 
 277:open303/Source/DSPCode/fft4g.c **** 
 278:open303/Source/DSPCode/fft4g.c **** void cdft(int n, int isgn, double *a, int *ip, double *w)
 279:open303/Source/DSPCode/fft4g.c **** {
 280:open303/Source/DSPCode/fft4g.c ****     void makewt(int nw, int *ip, double *w);
 281:open303/Source/DSPCode/fft4g.c ****     void bitrv2(int n, int *ip, double *a);
 282:open303/Source/DSPCode/fft4g.c ****     void bitrv2conj(int n, int *ip, double *a);
 283:open303/Source/DSPCode/fft4g.c ****     void cftfsub(int n, double *a, double *w);
 284:open303/Source/DSPCode/fft4g.c ****     void cftbsub(int n, double *a, double *w);
 285:open303/Source/DSPCode/fft4g.c ****     
 286:open303/Source/DSPCode/fft4g.c ****     if (n > (ip[0] << 2)) {
 287:open303/Source/DSPCode/fft4g.c ****         makewt(n >> 2, ip, w);
 288:open303/Source/DSPCode/fft4g.c ****     }
 289:open303/Source/DSPCode/fft4g.c ****     if (n > 4) {
 290:open303/Source/DSPCode/fft4g.c ****         if (isgn >= 0) {
 291:open303/Source/DSPCode/fft4g.c ****             bitrv2(n, ip + 2, a);
 292:open303/Source/DSPCode/fft4g.c ****             cftfsub(n, a, w);
 293:open303/Source/DSPCode/fft4g.c ****         } else {
 294:open303/Source/DSPCode/fft4g.c ****             bitrv2conj(n, ip + 2, a);
 295:open303/Source/DSPCode/fft4g.c ****             cftbsub(n, a, w);
 296:open303/Source/DSPCode/fft4g.c ****         }
 297:open303/Source/DSPCode/fft4g.c ****     } else if (n == 4) {
 298:open303/Source/DSPCode/fft4g.c ****         cftfsub(n, a, w);
 299:open303/Source/DSPCode/fft4g.c ****     }
 300:open303/Source/DSPCode/fft4g.c **** }
 301:open303/Source/DSPCode/fft4g.c **** 
 302:open303/Source/DSPCode/fft4g.c **** 
 303:open303/Source/DSPCode/fft4g.c **** void rdft(int n, int isgn, double *a, int *ip, double *w)
 304:open303/Source/DSPCode/fft4g.c **** {
 305:open303/Source/DSPCode/fft4g.c ****     void makewt(int nw, int *ip, double *w);
 306:open303/Source/DSPCode/fft4g.c ****     void makect(int nc, int *ip, double *c);
 307:open303/Source/DSPCode/fft4g.c ****     void bitrv2(int n, int *ip, double *a);
 308:open303/Source/DSPCode/fft4g.c ****     void cftfsub(int n, double *a, double *w);
 309:open303/Source/DSPCode/fft4g.c ****     void cftbsub(int n, double *a, double *w);
 310:open303/Source/DSPCode/fft4g.c ****     void rftfsub(int n, double *a, int nc, double *c);
 311:open303/Source/DSPCode/fft4g.c ****     void rftbsub(int n, double *a, int nc, double *c);
 312:open303/Source/DSPCode/fft4g.c ****     int nw, nc;
 313:open303/Source/DSPCode/fft4g.c ****     double xi;
 314:open303/Source/DSPCode/fft4g.c ****     
ARM GAS  /var/folders/7j/7n_15nxd0bx4q178nq7r8qsr0000gn/T//cc8hDKNO.s 			page 7


 315:open303/Source/DSPCode/fft4g.c ****     nw = ip[0];
 316:open303/Source/DSPCode/fft4g.c ****     if (n > (nw << 2)) {
 317:open303/Source/DSPCode/fft4g.c ****         nw = n >> 2;
 318:open303/Source/DSPCode/fft4g.c ****         makewt(nw, ip, w);
 319:open303/Source/DSPCode/fft4g.c ****     }
 320:open303/Source/DSPCode/fft4g.c ****     nc = ip[1];
 321:open303/Source/DSPCode/fft4g.c ****     if (n > (nc << 2)) {
 322:open303/Source/DSPCode/fft4g.c ****         nc = n >> 2;
 323:open303/Source/DSPCode/fft4g.c ****         makect(nc, ip, w + nw);
 324:open303/Source/DSPCode/fft4g.c ****     }
 325:open303/Source/DSPCode/fft4g.c ****     if (isgn >= 0) {
 326:open303/Source/DSPCode/fft4g.c ****         if (n > 4) {
 327:open303/Source/DSPCode/fft4g.c ****             bitrv2(n, ip + 2, a);
 328:open303/Source/DSPCode/fft4g.c ****             cftfsub(n, a, w);
 329:open303/Source/DSPCode/fft4g.c ****             rftfsub(n, a, nc, w + nw);
 330:open303/Source/DSPCode/fft4g.c ****         } else if (n == 4) {
 331:open303/Source/DSPCode/fft4g.c ****             cftfsub(n, a, w);
 332:open303/Source/DSPCode/fft4g.c ****         }
 333:open303/Source/DSPCode/fft4g.c ****         xi = a[0] - a[1];
 334:open303/Source/DSPCode/fft4g.c ****         a[0] += a[1];
 335:open303/Source/DSPCode/fft4g.c ****         a[1] = xi;
 336:open303/Source/DSPCode/fft4g.c ****     } else {
 337:open303/Source/DSPCode/fft4g.c ****         a[1] = 0.5 * (a[0] - a[1]);
 338:open303/Source/DSPCode/fft4g.c ****         a[0] -= a[1];
 339:open303/Source/DSPCode/fft4g.c ****         if (n > 4) {
 340:open303/Source/DSPCode/fft4g.c ****             rftbsub(n, a, nc, w + nw);
 341:open303/Source/DSPCode/fft4g.c ****             bitrv2(n, ip + 2, a);
 342:open303/Source/DSPCode/fft4g.c ****             cftbsub(n, a, w);
 343:open303/Source/DSPCode/fft4g.c ****         } else if (n == 4) {
 344:open303/Source/DSPCode/fft4g.c ****             cftfsub(n, a, w);
 345:open303/Source/DSPCode/fft4g.c ****         }
 346:open303/Source/DSPCode/fft4g.c ****     }
 347:open303/Source/DSPCode/fft4g.c **** }
 348:open303/Source/DSPCode/fft4g.c **** 
 349:open303/Source/DSPCode/fft4g.c **** 
 350:open303/Source/DSPCode/fft4g.c **** void ddct(int n, int isgn, double *a, int *ip, double *w)
 351:open303/Source/DSPCode/fft4g.c **** {
 352:open303/Source/DSPCode/fft4g.c ****     void makewt(int nw, int *ip, double *w);
 353:open303/Source/DSPCode/fft4g.c ****     void makect(int nc, int *ip, double *c);
 354:open303/Source/DSPCode/fft4g.c ****     void bitrv2(int n, int *ip, double *a);
 355:open303/Source/DSPCode/fft4g.c ****     void cftfsub(int n, double *a, double *w);
 356:open303/Source/DSPCode/fft4g.c ****     void cftbsub(int n, double *a, double *w);
 357:open303/Source/DSPCode/fft4g.c ****     void rftfsub(int n, double *a, int nc, double *c);
 358:open303/Source/DSPCode/fft4g.c ****     void rftbsub(int n, double *a, int nc, double *c);
 359:open303/Source/DSPCode/fft4g.c ****     void dctsub(int n, double *a, int nc, double *c);
 360:open303/Source/DSPCode/fft4g.c ****     int j, nw, nc;
 361:open303/Source/DSPCode/fft4g.c ****     double xr;
 362:open303/Source/DSPCode/fft4g.c ****     
 363:open303/Source/DSPCode/fft4g.c ****     nw = ip[0];
 364:open303/Source/DSPCode/fft4g.c ****     if (n > (nw << 2)) {
 365:open303/Source/DSPCode/fft4g.c ****         nw = n >> 2;
 366:open303/Source/DSPCode/fft4g.c ****         makewt(nw, ip, w);
 367:open303/Source/DSPCode/fft4g.c ****     }
 368:open303/Source/DSPCode/fft4g.c ****     nc = ip[1];
 369:open303/Source/DSPCode/fft4g.c ****     if (n > nc) {
 370:open303/Source/DSPCode/fft4g.c ****         nc = n;
 371:open303/Source/DSPCode/fft4g.c ****         makect(nc, ip, w + nw);
ARM GAS  /var/folders/7j/7n_15nxd0bx4q178nq7r8qsr0000gn/T//cc8hDKNO.s 			page 8


 372:open303/Source/DSPCode/fft4g.c ****     }
 373:open303/Source/DSPCode/fft4g.c ****     if (isgn < 0) {
 374:open303/Source/DSPCode/fft4g.c ****         xr = a[n - 1];
 375:open303/Source/DSPCode/fft4g.c ****         for (j = n - 2; j >= 2; j -= 2) {
 376:open303/Source/DSPCode/fft4g.c ****             a[j + 1] = a[j] - a[j - 1];
 377:open303/Source/DSPCode/fft4g.c ****             a[j] += a[j - 1];
 378:open303/Source/DSPCode/fft4g.c ****         }
 379:open303/Source/DSPCode/fft4g.c ****         a[1] = a[0] - xr;
 380:open303/Source/DSPCode/fft4g.c ****         a[0] += xr;
 381:open303/Source/DSPCode/fft4g.c ****         if (n > 4) {
 382:open303/Source/DSPCode/fft4g.c ****             rftbsub(n, a, nc, w + nw);
 383:open303/Source/DSPCode/fft4g.c ****             bitrv2(n, ip + 2, a);
 384:open303/Source/DSPCode/fft4g.c ****             cftbsub(n, a, w);
 385:open303/Source/DSPCode/fft4g.c ****         } else if (n == 4) {
 386:open303/Source/DSPCode/fft4g.c ****             cftfsub(n, a, w);
 387:open303/Source/DSPCode/fft4g.c ****         }
 388:open303/Source/DSPCode/fft4g.c ****     }
 389:open303/Source/DSPCode/fft4g.c ****     dctsub(n, a, nc, w + nw);
 390:open303/Source/DSPCode/fft4g.c ****     if (isgn >= 0) {
 391:open303/Source/DSPCode/fft4g.c ****         if (n > 4) {
 392:open303/Source/DSPCode/fft4g.c ****             bitrv2(n, ip + 2, a);
 393:open303/Source/DSPCode/fft4g.c ****             cftfsub(n, a, w);
 394:open303/Source/DSPCode/fft4g.c ****             rftfsub(n, a, nc, w + nw);
 395:open303/Source/DSPCode/fft4g.c ****         } else if (n == 4) {
 396:open303/Source/DSPCode/fft4g.c ****             cftfsub(n, a, w);
 397:open303/Source/DSPCode/fft4g.c ****         }
 398:open303/Source/DSPCode/fft4g.c ****         xr = a[0] - a[1];
 399:open303/Source/DSPCode/fft4g.c ****         a[0] += a[1];
 400:open303/Source/DSPCode/fft4g.c ****         for (j = 2; j < n; j += 2) {
 401:open303/Source/DSPCode/fft4g.c ****             a[j - 1] = a[j] - a[j + 1];
 402:open303/Source/DSPCode/fft4g.c ****             a[j] += a[j + 1];
 403:open303/Source/DSPCode/fft4g.c ****         }
 404:open303/Source/DSPCode/fft4g.c ****         a[n - 1] = xr;
 405:open303/Source/DSPCode/fft4g.c ****     }
 406:open303/Source/DSPCode/fft4g.c **** }
 407:open303/Source/DSPCode/fft4g.c **** 
 408:open303/Source/DSPCode/fft4g.c **** 
 409:open303/Source/DSPCode/fft4g.c **** void ddst(int n, int isgn, double *a, int *ip, double *w)
 410:open303/Source/DSPCode/fft4g.c **** {
 411:open303/Source/DSPCode/fft4g.c ****     void makewt(int nw, int *ip, double *w);
 412:open303/Source/DSPCode/fft4g.c ****     void makect(int nc, int *ip, double *c);
 413:open303/Source/DSPCode/fft4g.c ****     void bitrv2(int n, int *ip, double *a);
 414:open303/Source/DSPCode/fft4g.c ****     void cftfsub(int n, double *a, double *w);
 415:open303/Source/DSPCode/fft4g.c ****     void cftbsub(int n, double *a, double *w);
 416:open303/Source/DSPCode/fft4g.c ****     void rftfsub(int n, double *a, int nc, double *c);
 417:open303/Source/DSPCode/fft4g.c ****     void rftbsub(int n, double *a, int nc, double *c);
 418:open303/Source/DSPCode/fft4g.c ****     void dstsub(int n, double *a, int nc, double *c);
 419:open303/Source/DSPCode/fft4g.c ****     int j, nw, nc;
 420:open303/Source/DSPCode/fft4g.c ****     double xr;
 421:open303/Source/DSPCode/fft4g.c ****     
 422:open303/Source/DSPCode/fft4g.c ****     nw = ip[0];
 423:open303/Source/DSPCode/fft4g.c ****     if (n > (nw << 2)) {
 424:open303/Source/DSPCode/fft4g.c ****         nw = n >> 2;
 425:open303/Source/DSPCode/fft4g.c ****         makewt(nw, ip, w);
 426:open303/Source/DSPCode/fft4g.c ****     }
 427:open303/Source/DSPCode/fft4g.c ****     nc = ip[1];
 428:open303/Source/DSPCode/fft4g.c ****     if (n > nc) {
ARM GAS  /var/folders/7j/7n_15nxd0bx4q178nq7r8qsr0000gn/T//cc8hDKNO.s 			page 9


 429:open303/Source/DSPCode/fft4g.c ****         nc = n;
 430:open303/Source/DSPCode/fft4g.c ****         makect(nc, ip, w + nw);
 431:open303/Source/DSPCode/fft4g.c ****     }
 432:open303/Source/DSPCode/fft4g.c ****     if (isgn < 0) {
 433:open303/Source/DSPCode/fft4g.c ****         xr = a[n - 1];
 434:open303/Source/DSPCode/fft4g.c ****         for (j = n - 2; j >= 2; j -= 2) {
 435:open303/Source/DSPCode/fft4g.c ****             a[j + 1] = -a[j] - a[j - 1];
 436:open303/Source/DSPCode/fft4g.c ****             a[j] -= a[j - 1];
 437:open303/Source/DSPCode/fft4g.c ****         }
 438:open303/Source/DSPCode/fft4g.c ****         a[1] = a[0] + xr;
 439:open303/Source/DSPCode/fft4g.c ****         a[0] -= xr;
 440:open303/Source/DSPCode/fft4g.c ****         if (n > 4) {
 441:open303/Source/DSPCode/fft4g.c ****             rftbsub(n, a, nc, w + nw);
 442:open303/Source/DSPCode/fft4g.c ****             bitrv2(n, ip + 2, a);
 443:open303/Source/DSPCode/fft4g.c ****             cftbsub(n, a, w);
 444:open303/Source/DSPCode/fft4g.c ****         } else if (n == 4) {
 445:open303/Source/DSPCode/fft4g.c ****             cftfsub(n, a, w);
 446:open303/Source/DSPCode/fft4g.c ****         }
 447:open303/Source/DSPCode/fft4g.c ****     }
 448:open303/Source/DSPCode/fft4g.c ****     dstsub(n, a, nc, w + nw);
 449:open303/Source/DSPCode/fft4g.c ****     if (isgn >= 0) {
 450:open303/Source/DSPCode/fft4g.c ****         if (n > 4) {
 451:open303/Source/DSPCode/fft4g.c ****             bitrv2(n, ip + 2, a);
 452:open303/Source/DSPCode/fft4g.c ****             cftfsub(n, a, w);
 453:open303/Source/DSPCode/fft4g.c ****             rftfsub(n, a, nc, w + nw);
 454:open303/Source/DSPCode/fft4g.c ****         } else if (n == 4) {
 455:open303/Source/DSPCode/fft4g.c ****             cftfsub(n, a, w);
 456:open303/Source/DSPCode/fft4g.c ****         }
 457:open303/Source/DSPCode/fft4g.c ****         xr = a[0] - a[1];
 458:open303/Source/DSPCode/fft4g.c ****         a[0] += a[1];
 459:open303/Source/DSPCode/fft4g.c ****         for (j = 2; j < n; j += 2) {
 460:open303/Source/DSPCode/fft4g.c ****             a[j - 1] = -a[j] - a[j + 1];
 461:open303/Source/DSPCode/fft4g.c ****             a[j] -= a[j + 1];
 462:open303/Source/DSPCode/fft4g.c ****         }
 463:open303/Source/DSPCode/fft4g.c ****         a[n - 1] = -xr;
 464:open303/Source/DSPCode/fft4g.c ****     }
 465:open303/Source/DSPCode/fft4g.c **** }
 466:open303/Source/DSPCode/fft4g.c **** 
 467:open303/Source/DSPCode/fft4g.c **** 
 468:open303/Source/DSPCode/fft4g.c **** void dfct(int n, double *a, double *t, int *ip, double *w)
 469:open303/Source/DSPCode/fft4g.c **** {
 470:open303/Source/DSPCode/fft4g.c ****     void makewt(int nw, int *ip, double *w);
 471:open303/Source/DSPCode/fft4g.c ****     void makect(int nc, int *ip, double *c);
 472:open303/Source/DSPCode/fft4g.c ****     void bitrv2(int n, int *ip, double *a);
 473:open303/Source/DSPCode/fft4g.c ****     void cftfsub(int n, double *a, double *w);
 474:open303/Source/DSPCode/fft4g.c ****     void rftfsub(int n, double *a, int nc, double *c);
 475:open303/Source/DSPCode/fft4g.c ****     void dctsub(int n, double *a, int nc, double *c);
 476:open303/Source/DSPCode/fft4g.c ****     int j, k, l, m, mh, nw, nc;
 477:open303/Source/DSPCode/fft4g.c ****     double xr, xi, yr, yi;
 478:open303/Source/DSPCode/fft4g.c ****     
 479:open303/Source/DSPCode/fft4g.c ****     nw = ip[0];
 480:open303/Source/DSPCode/fft4g.c ****     if (n > (nw << 3)) {
 481:open303/Source/DSPCode/fft4g.c ****         nw = n >> 3;
 482:open303/Source/DSPCode/fft4g.c ****         makewt(nw, ip, w);
 483:open303/Source/DSPCode/fft4g.c ****     }
 484:open303/Source/DSPCode/fft4g.c ****     nc = ip[1];
 485:open303/Source/DSPCode/fft4g.c ****     if (n > (nc << 1)) {
ARM GAS  /var/folders/7j/7n_15nxd0bx4q178nq7r8qsr0000gn/T//cc8hDKNO.s 			page 10


 486:open303/Source/DSPCode/fft4g.c ****         nc = n >> 1;
 487:open303/Source/DSPCode/fft4g.c ****         makect(nc, ip, w + nw);
 488:open303/Source/DSPCode/fft4g.c ****     }
 489:open303/Source/DSPCode/fft4g.c ****     m = n >> 1;
 490:open303/Source/DSPCode/fft4g.c ****     yi = a[m];
 491:open303/Source/DSPCode/fft4g.c ****     xi = a[0] + a[n];
 492:open303/Source/DSPCode/fft4g.c ****     a[0] -= a[n];
 493:open303/Source/DSPCode/fft4g.c ****     t[0] = xi - yi;
 494:open303/Source/DSPCode/fft4g.c ****     t[m] = xi + yi;
 495:open303/Source/DSPCode/fft4g.c ****     if (n > 2) {
 496:open303/Source/DSPCode/fft4g.c ****         mh = m >> 1;
 497:open303/Source/DSPCode/fft4g.c ****         for (j = 1; j < mh; j++) {
 498:open303/Source/DSPCode/fft4g.c ****             k = m - j;
 499:open303/Source/DSPCode/fft4g.c ****             xr = a[j] - a[n - j];
 500:open303/Source/DSPCode/fft4g.c ****             xi = a[j] + a[n - j];
 501:open303/Source/DSPCode/fft4g.c ****             yr = a[k] - a[n - k];
 502:open303/Source/DSPCode/fft4g.c ****             yi = a[k] + a[n - k];
 503:open303/Source/DSPCode/fft4g.c ****             a[j] = xr;
 504:open303/Source/DSPCode/fft4g.c ****             a[k] = yr;
 505:open303/Source/DSPCode/fft4g.c ****             t[j] = xi - yi;
 506:open303/Source/DSPCode/fft4g.c ****             t[k] = xi + yi;
 507:open303/Source/DSPCode/fft4g.c ****         }
 508:open303/Source/DSPCode/fft4g.c ****         t[mh] = a[mh] + a[n - mh];
 509:open303/Source/DSPCode/fft4g.c ****         a[mh] -= a[n - mh];
 510:open303/Source/DSPCode/fft4g.c ****         dctsub(m, a, nc, w + nw);
 511:open303/Source/DSPCode/fft4g.c ****         if (m > 4) {
 512:open303/Source/DSPCode/fft4g.c ****             bitrv2(m, ip + 2, a);
 513:open303/Source/DSPCode/fft4g.c ****             cftfsub(m, a, w);
 514:open303/Source/DSPCode/fft4g.c ****             rftfsub(m, a, nc, w + nw);
 515:open303/Source/DSPCode/fft4g.c ****         } else if (m == 4) {
 516:open303/Source/DSPCode/fft4g.c ****             cftfsub(m, a, w);
 517:open303/Source/DSPCode/fft4g.c ****         }
 518:open303/Source/DSPCode/fft4g.c ****         a[n - 1] = a[0] - a[1];
 519:open303/Source/DSPCode/fft4g.c ****         a[1] = a[0] + a[1];
 520:open303/Source/DSPCode/fft4g.c ****         for (j = m - 2; j >= 2; j -= 2) {
 521:open303/Source/DSPCode/fft4g.c ****             a[2 * j + 1] = a[j] + a[j + 1];
 522:open303/Source/DSPCode/fft4g.c ****             a[2 * j - 1] = a[j] - a[j + 1];
 523:open303/Source/DSPCode/fft4g.c ****         }
 524:open303/Source/DSPCode/fft4g.c ****         l = 2;
 525:open303/Source/DSPCode/fft4g.c ****         m = mh;
 526:open303/Source/DSPCode/fft4g.c ****         while (m >= 2) {
 527:open303/Source/DSPCode/fft4g.c ****             dctsub(m, t, nc, w + nw);
 528:open303/Source/DSPCode/fft4g.c ****             if (m > 4) {
 529:open303/Source/DSPCode/fft4g.c ****                 bitrv2(m, ip + 2, t);
 530:open303/Source/DSPCode/fft4g.c ****                 cftfsub(m, t, w);
 531:open303/Source/DSPCode/fft4g.c ****                 rftfsub(m, t, nc, w + nw);
 532:open303/Source/DSPCode/fft4g.c ****             } else if (m == 4) {
 533:open303/Source/DSPCode/fft4g.c ****                 cftfsub(m, t, w);
 534:open303/Source/DSPCode/fft4g.c ****             }
 535:open303/Source/DSPCode/fft4g.c ****             a[n - l] = t[0] - t[1];
 536:open303/Source/DSPCode/fft4g.c ****             a[l] = t[0] + t[1];
 537:open303/Source/DSPCode/fft4g.c ****             k = 0;
 538:open303/Source/DSPCode/fft4g.c ****             for (j = 2; j < m; j += 2) {
 539:open303/Source/DSPCode/fft4g.c ****                 k += l << 2;
 540:open303/Source/DSPCode/fft4g.c ****                 a[k - l] = t[j] - t[j + 1];
 541:open303/Source/DSPCode/fft4g.c ****                 a[k + l] = t[j] + t[j + 1];
 542:open303/Source/DSPCode/fft4g.c ****             }
ARM GAS  /var/folders/7j/7n_15nxd0bx4q178nq7r8qsr0000gn/T//cc8hDKNO.s 			page 11


 543:open303/Source/DSPCode/fft4g.c ****             l <<= 1;
 544:open303/Source/DSPCode/fft4g.c ****             mh = m >> 1;
 545:open303/Source/DSPCode/fft4g.c ****             for (j = 0; j < mh; j++) {
 546:open303/Source/DSPCode/fft4g.c ****                 k = m - j;
 547:open303/Source/DSPCode/fft4g.c ****                 t[j] = t[m + k] - t[m + j];
 548:open303/Source/DSPCode/fft4g.c ****                 t[k] = t[m + k] + t[m + j];
 549:open303/Source/DSPCode/fft4g.c ****             }
 550:open303/Source/DSPCode/fft4g.c ****             t[mh] = t[m + mh];
 551:open303/Source/DSPCode/fft4g.c ****             m = mh;
 552:open303/Source/DSPCode/fft4g.c ****         }
 553:open303/Source/DSPCode/fft4g.c ****         a[l] = t[0];
 554:open303/Source/DSPCode/fft4g.c ****         a[n] = t[2] - t[1];
 555:open303/Source/DSPCode/fft4g.c ****         a[0] = t[2] + t[1];
 556:open303/Source/DSPCode/fft4g.c ****     } else {
 557:open303/Source/DSPCode/fft4g.c ****         a[1] = a[0];
 558:open303/Source/DSPCode/fft4g.c ****         a[2] = t[0];
 559:open303/Source/DSPCode/fft4g.c ****         a[0] = t[1];
 560:open303/Source/DSPCode/fft4g.c ****     }
 561:open303/Source/DSPCode/fft4g.c **** }
 562:open303/Source/DSPCode/fft4g.c **** 
 563:open303/Source/DSPCode/fft4g.c **** 
 564:open303/Source/DSPCode/fft4g.c **** void dfst(int n, double *a, double *t, int *ip, double *w)
 565:open303/Source/DSPCode/fft4g.c **** {
 566:open303/Source/DSPCode/fft4g.c ****     void makewt(int nw, int *ip, double *w);
 567:open303/Source/DSPCode/fft4g.c ****     void makect(int nc, int *ip, double *c);
 568:open303/Source/DSPCode/fft4g.c ****     void bitrv2(int n, int *ip, double *a);
 569:open303/Source/DSPCode/fft4g.c ****     void cftfsub(int n, double *a, double *w);
 570:open303/Source/DSPCode/fft4g.c ****     void rftfsub(int n, double *a, int nc, double *c);
 571:open303/Source/DSPCode/fft4g.c ****     void dstsub(int n, double *a, int nc, double *c);
 572:open303/Source/DSPCode/fft4g.c ****     int j, k, l, m, mh, nw, nc;
 573:open303/Source/DSPCode/fft4g.c ****     double xr, xi, yr, yi;
 574:open303/Source/DSPCode/fft4g.c ****     
 575:open303/Source/DSPCode/fft4g.c ****     nw = ip[0];
 576:open303/Source/DSPCode/fft4g.c ****     if (n > (nw << 3)) {
 577:open303/Source/DSPCode/fft4g.c ****         nw = n >> 3;
 578:open303/Source/DSPCode/fft4g.c ****         makewt(nw, ip, w);
 579:open303/Source/DSPCode/fft4g.c ****     }
 580:open303/Source/DSPCode/fft4g.c ****     nc = ip[1];
 581:open303/Source/DSPCode/fft4g.c ****     if (n > (nc << 1)) {
 582:open303/Source/DSPCode/fft4g.c ****         nc = n >> 1;
 583:open303/Source/DSPCode/fft4g.c ****         makect(nc, ip, w + nw);
 584:open303/Source/DSPCode/fft4g.c ****     }
 585:open303/Source/DSPCode/fft4g.c ****     if (n > 2) {
 586:open303/Source/DSPCode/fft4g.c ****         m = n >> 1;
 587:open303/Source/DSPCode/fft4g.c ****         mh = m >> 1;
 588:open303/Source/DSPCode/fft4g.c ****         for (j = 1; j < mh; j++) {
 589:open303/Source/DSPCode/fft4g.c ****             k = m - j;
 590:open303/Source/DSPCode/fft4g.c ****             xr = a[j] + a[n - j];
 591:open303/Source/DSPCode/fft4g.c ****             xi = a[j] - a[n - j];
 592:open303/Source/DSPCode/fft4g.c ****             yr = a[k] + a[n - k];
 593:open303/Source/DSPCode/fft4g.c ****             yi = a[k] - a[n - k];
 594:open303/Source/DSPCode/fft4g.c ****             a[j] = xr;
 595:open303/Source/DSPCode/fft4g.c ****             a[k] = yr;
 596:open303/Source/DSPCode/fft4g.c ****             t[j] = xi + yi;
 597:open303/Source/DSPCode/fft4g.c ****             t[k] = xi - yi;
 598:open303/Source/DSPCode/fft4g.c ****         }
 599:open303/Source/DSPCode/fft4g.c ****         t[0] = a[mh] - a[n - mh];
ARM GAS  /var/folders/7j/7n_15nxd0bx4q178nq7r8qsr0000gn/T//cc8hDKNO.s 			page 12


 600:open303/Source/DSPCode/fft4g.c ****         a[mh] += a[n - mh];
 601:open303/Source/DSPCode/fft4g.c ****         a[0] = a[m];
 602:open303/Source/DSPCode/fft4g.c ****         dstsub(m, a, nc, w + nw);
 603:open303/Source/DSPCode/fft4g.c ****         if (m > 4) {
 604:open303/Source/DSPCode/fft4g.c ****             bitrv2(m, ip + 2, a);
 605:open303/Source/DSPCode/fft4g.c ****             cftfsub(m, a, w);
 606:open303/Source/DSPCode/fft4g.c ****             rftfsub(m, a, nc, w + nw);
 607:open303/Source/DSPCode/fft4g.c ****         } else if (m == 4) {
 608:open303/Source/DSPCode/fft4g.c ****             cftfsub(m, a, w);
 609:open303/Source/DSPCode/fft4g.c ****         }
 610:open303/Source/DSPCode/fft4g.c ****         a[n - 1] = a[1] - a[0];
 611:open303/Source/DSPCode/fft4g.c ****         a[1] = a[0] + a[1];
 612:open303/Source/DSPCode/fft4g.c ****         for (j = m - 2; j >= 2; j -= 2) {
 613:open303/Source/DSPCode/fft4g.c ****             a[2 * j + 1] = a[j] - a[j + 1];
 614:open303/Source/DSPCode/fft4g.c ****             a[2 * j - 1] = -a[j] - a[j + 1];
 615:open303/Source/DSPCode/fft4g.c ****         }
 616:open303/Source/DSPCode/fft4g.c ****         l = 2;
 617:open303/Source/DSPCode/fft4g.c ****         m = mh;
 618:open303/Source/DSPCode/fft4g.c ****         while (m >= 2) {
 619:open303/Source/DSPCode/fft4g.c ****             dstsub(m, t, nc, w + nw);
 620:open303/Source/DSPCode/fft4g.c ****             if (m > 4) {
 621:open303/Source/DSPCode/fft4g.c ****                 bitrv2(m, ip + 2, t);
 622:open303/Source/DSPCode/fft4g.c ****                 cftfsub(m, t, w);
 623:open303/Source/DSPCode/fft4g.c ****                 rftfsub(m, t, nc, w + nw);
 624:open303/Source/DSPCode/fft4g.c ****             } else if (m == 4) {
 625:open303/Source/DSPCode/fft4g.c ****                 cftfsub(m, t, w);
 626:open303/Source/DSPCode/fft4g.c ****             }
 627:open303/Source/DSPCode/fft4g.c ****             a[n - l] = t[1] - t[0];
 628:open303/Source/DSPCode/fft4g.c ****             a[l] = t[0] + t[1];
 629:open303/Source/DSPCode/fft4g.c ****             k = 0;
 630:open303/Source/DSPCode/fft4g.c ****             for (j = 2; j < m; j += 2) {
 631:open303/Source/DSPCode/fft4g.c ****                 k += l << 2;
 632:open303/Source/DSPCode/fft4g.c ****                 a[k - l] = -t[j] - t[j + 1];
 633:open303/Source/DSPCode/fft4g.c ****                 a[k + l] = t[j] - t[j + 1];
 634:open303/Source/DSPCode/fft4g.c ****             }
 635:open303/Source/DSPCode/fft4g.c ****             l <<= 1;
 636:open303/Source/DSPCode/fft4g.c ****             mh = m >> 1;
 637:open303/Source/DSPCode/fft4g.c ****             for (j = 1; j < mh; j++) {
 638:open303/Source/DSPCode/fft4g.c ****                 k = m - j;
 639:open303/Source/DSPCode/fft4g.c ****                 t[j] = t[m + k] + t[m + j];
 640:open303/Source/DSPCode/fft4g.c ****                 t[k] = t[m + k] - t[m + j];
 641:open303/Source/DSPCode/fft4g.c ****             }
 642:open303/Source/DSPCode/fft4g.c ****             t[0] = t[m + mh];
 643:open303/Source/DSPCode/fft4g.c ****             m = mh;
 644:open303/Source/DSPCode/fft4g.c ****         }
 645:open303/Source/DSPCode/fft4g.c ****         a[l] = t[0];
 646:open303/Source/DSPCode/fft4g.c ****     }
 647:open303/Source/DSPCode/fft4g.c ****     a[0] = 0;
 648:open303/Source/DSPCode/fft4g.c **** }
 649:open303/Source/DSPCode/fft4g.c **** 
 650:open303/Source/DSPCode/fft4g.c **** 
 651:open303/Source/DSPCode/fft4g.c **** /* -------- initializing routines -------- */
 652:open303/Source/DSPCode/fft4g.c **** 
 653:open303/Source/DSPCode/fft4g.c **** 
 654:open303/Source/DSPCode/fft4g.c **** #include <math.h>
 655:open303/Source/DSPCode/fft4g.c **** 
 656:open303/Source/DSPCode/fft4g.c **** void makewt(int nw, int *ip, double *w)
ARM GAS  /var/folders/7j/7n_15nxd0bx4q178nq7r8qsr0000gn/T//cc8hDKNO.s 			page 13


 657:open303/Source/DSPCode/fft4g.c **** {
 658:open303/Source/DSPCode/fft4g.c ****     void bitrv2(int n, int *ip, double *a);
 659:open303/Source/DSPCode/fft4g.c ****     int j, nwh;
 660:open303/Source/DSPCode/fft4g.c ****     double delta, x, y;
 661:open303/Source/DSPCode/fft4g.c ****     
 662:open303/Source/DSPCode/fft4g.c ****     ip[0] = nw;
 663:open303/Source/DSPCode/fft4g.c ****     ip[1] = 1;
 664:open303/Source/DSPCode/fft4g.c ****     if (nw > 2) {
 665:open303/Source/DSPCode/fft4g.c ****         nwh = nw >> 1;
 666:open303/Source/DSPCode/fft4g.c ****         delta = atan(1.0) / nwh;
 667:open303/Source/DSPCode/fft4g.c ****         w[0] = 1;
 668:open303/Source/DSPCode/fft4g.c ****         w[1] = 0;
 669:open303/Source/DSPCode/fft4g.c ****         w[nwh] = cos(delta * nwh);
 670:open303/Source/DSPCode/fft4g.c ****         w[nwh + 1] = w[nwh];
 671:open303/Source/DSPCode/fft4g.c ****         if (nwh > 2) {
 672:open303/Source/DSPCode/fft4g.c ****             for (j = 2; j < nwh; j += 2) {
 673:open303/Source/DSPCode/fft4g.c ****                 x = cos(delta * j);
 674:open303/Source/DSPCode/fft4g.c ****                 y = sin(delta * j);
 675:open303/Source/DSPCode/fft4g.c ****                 w[j] = x;
 676:open303/Source/DSPCode/fft4g.c ****                 w[j + 1] = y;
 677:open303/Source/DSPCode/fft4g.c ****                 w[nw - j] = y;
 678:open303/Source/DSPCode/fft4g.c ****                 w[nw - j + 1] = x;
 679:open303/Source/DSPCode/fft4g.c ****             }
 680:open303/Source/DSPCode/fft4g.c ****             bitrv2(nw, ip + 2, w);
 681:open303/Source/DSPCode/fft4g.c ****         }
 682:open303/Source/DSPCode/fft4g.c ****     }
 683:open303/Source/DSPCode/fft4g.c **** }
 684:open303/Source/DSPCode/fft4g.c **** 
 685:open303/Source/DSPCode/fft4g.c **** 
 686:open303/Source/DSPCode/fft4g.c **** void makect(int nc, int *ip, double *c)
 687:open303/Source/DSPCode/fft4g.c **** {
  30              		.loc 2 687 1 view -0
  31              		.cfi_startproc
  32              		@ args = 0, pretend = 0, frame = 0
  33              		@ frame_needed = 0, uses_anonymous_args = 0
 688:open303/Source/DSPCode/fft4g.c ****     int j, nch;
 689:open303/Source/DSPCode/fft4g.c ****     double delta;
 690:open303/Source/DSPCode/fft4g.c ****     
 691:open303/Source/DSPCode/fft4g.c ****     ip[1] = nc;
 692:open303/Source/DSPCode/fft4g.c ****     if (nc > 1) {
  34              		.loc 2 692 5 is_stmt 0 view .LVU1
  35 0000 0128     		cmp	r0, #1
 687:open303/Source/DSPCode/fft4g.c ****     int j, nch;
  36              		.loc 2 687 1 view .LVU2
  37 0002 F8B5     		push	{r3, r4, r5, r6, r7, lr}
  38              		.cfi_def_cfa_offset 24
  39              		.cfi_offset 3, -24
  40              		.cfi_offset 4, -20
  41              		.cfi_offset 5, -16
  42              		.cfi_offset 6, -12
  43              		.cfi_offset 7, -8
  44              		.cfi_offset 14, -4
  45 0004 0546     		mov	r5, r0
 688:open303/Source/DSPCode/fft4g.c ****     int j, nch;
  46              		.loc 2 688 5 is_stmt 1 view .LVU3
 689:open303/Source/DSPCode/fft4g.c ****     
  47              		.loc 2 689 5 view .LVU4
ARM GAS  /var/folders/7j/7n_15nxd0bx4q178nq7r8qsr0000gn/T//cc8hDKNO.s 			page 14


 691:open303/Source/DSPCode/fft4g.c ****     if (nc > 1) {
  48              		.loc 2 691 5 view .LVU5
 687:open303/Source/DSPCode/fft4g.c ****     int j, nch;
  49              		.loc 2 687 1 is_stmt 0 view .LVU6
  50 0006 1446     		mov	r4, r2
  51 0008 2DED068B 		vpush.64	{d8, d9, d10}
  52              		.cfi_def_cfa_offset 48
  53              		.cfi_offset 80, -48
  54              		.cfi_offset 81, -44
  55              		.cfi_offset 82, -40
  56              		.cfi_offset 83, -36
  57              		.cfi_offset 84, -32
  58              		.cfi_offset 85, -28
 691:open303/Source/DSPCode/fft4g.c ****     if (nc > 1) {
  59              		.loc 2 691 11 view .LVU7
  60 000c 4860     		str	r0, [r1, #4]
  61              		.loc 2 692 5 is_stmt 1 view .LVU8
  62 000e 1DDD     		ble	.L1
  63              	.LVL1:
  64              	.LBB8:
  65              	.LBI8:
 686:open303/Source/DSPCode/fft4g.c **** {
  66              		.loc 2 686 6 view .LVU9
  67              	.LBB9:
 693:open303/Source/DSPCode/fft4g.c ****         nch = nc >> 1;
  68              		.loc 2 693 9 view .LVU10
  69              		.loc 2 693 13 is_stmt 0 view .LVU11
  70 0010 4610     		asrs	r6, r0, #1
  71              	.LVL2:
 694:open303/Source/DSPCode/fft4g.c ****         delta = atan(1.0) / nch;
  72              		.loc 2 694 9 is_stmt 1 view .LVU12
 695:open303/Source/DSPCode/fft4g.c ****         c[0] = cos(delta * nch);
 696:open303/Source/DSPCode/fft4g.c ****         c[nch] = 0.5 * c[0];
  73              		.loc 2 696 22 is_stmt 0 view .LVU13
  74 0012 B6EE00AB 		vmov.f64	d10, #5.0e-1
  75 0016 04F10807 		add	r7, r4, #8
 694:open303/Source/DSPCode/fft4g.c ****         delta = atan(1.0) / nch;
  76              		.loc 2 694 27 view .LVU14
  77 001a 07EE906A 		vmov	s15, r6	@ int
  78 001e B8EEE70B 		vcvt.f64.s32	d0, s15
 694:open303/Source/DSPCode/fft4g.c ****         delta = atan(1.0) / nch;
  79              		.loc 2 694 15 view .LVU15
  80 0022 9FED197B 		vldr.64	d7, .L6
  81 0026 87EE009B 		vdiv.f64	d9, d7, d0
  82              	.LVL3:
 695:open303/Source/DSPCode/fft4g.c ****         c[0] = cos(delta * nch);
  83              		.loc 2 695 9 is_stmt 1 view .LVU16
 695:open303/Source/DSPCode/fft4g.c ****         c[0] = cos(delta * nch);
  84              		.loc 2 695 19 is_stmt 0 view .LVU17
  85 002a 20EE090B 		vmul.f64	d0, d0, d9
  86 002e FFF7FEFF 		bl	cos
  87              	.LVL4:
  88              		.loc 2 696 16 view .LVU18
  89 0032 04EBC603 		add	r3, r4, r6, lsl #3
 695:open303/Source/DSPCode/fft4g.c ****         c[0] = cos(delta * nch);
  90              		.loc 2 695 14 discriminator 1 view .LVU19
  91 0036 84ED000B 		vstr.64	d0, [r4]
ARM GAS  /var/folders/7j/7n_15nxd0bx4q178nq7r8qsr0000gn/T//cc8hDKNO.s 			page 15


  92              		.loc 2 696 9 is_stmt 1 view .LVU20
  93              		.loc 2 696 22 is_stmt 0 view .LVU21
  94 003a 20EE0A0B 		vmul.f64	d0, d0, d10
  95 003e 04EBC504 		add	r4, r4, r5, lsl #3
  96              	.LVL5:
 697:open303/Source/DSPCode/fft4g.c ****         for (j = 1; j < nch; j++) {
  97              		.loc 2 697 16 view .LVU22
  98 0042 0125     		movs	r5, #1
  99              	.LVL6:
 696:open303/Source/DSPCode/fft4g.c ****         for (j = 1; j < nch; j++) {
 100              		.loc 2 696 16 view .LVU23
 101 0044 83ED000B 		vstr.64	d0, [r3]
 102              		.loc 2 697 9 is_stmt 1 view .LVU24
 103              	.LVL7:
 104              	.L3:
 105              		.loc 2 697 23 discriminator 1 view .LVU25
 106 0048 AE42     		cmp	r6, r5
 107 004a 02D1     		bne	.L4
 108              	.LVL8:
 109              	.L1:
 110              		.loc 2 697 23 is_stmt 0 discriminator 1 view .LVU26
 111              	.LBE9:
 112              	.LBE8:
 698:open303/Source/DSPCode/fft4g.c ****             c[j] = 0.5 * cos(delta * j);
 699:open303/Source/DSPCode/fft4g.c ****             c[nc - j] = 0.5 * sin(delta * j);
 700:open303/Source/DSPCode/fft4g.c ****         }
 701:open303/Source/DSPCode/fft4g.c ****     }
 702:open303/Source/DSPCode/fft4g.c **** }
 113              		.loc 2 702 1 view .LVU27
 114 004c BDEC068B 		vldm	sp!, {d8-d10}
 115              		.cfi_remember_state
 116              		.cfi_restore 84
 117              		.cfi_restore 85
 118              		.cfi_restore 82
 119              		.cfi_restore 83
 120              		.cfi_restore 80
 121              		.cfi_restore 81
 122              		.cfi_def_cfa_offset 24
 123 0050 F8BD     		pop	{r3, r4, r5, r6, r7, pc}
 124              	.LVL9:
 125              	.L4:
 126              		.cfi_restore_state
 127              	.LBB11:
 128              	.LBB10:
 698:open303/Source/DSPCode/fft4g.c ****             c[j] = 0.5 * cos(delta * j);
 129              		.loc 2 698 13 is_stmt 1 view .LVU28
 698:open303/Source/DSPCode/fft4g.c ****             c[j] = 0.5 * cos(delta * j);
 130              		.loc 2 698 29 is_stmt 0 view .LVU29
 131 0052 07EE905A 		vmov	s15, r5	@ int
 697:open303/Source/DSPCode/fft4g.c ****             c[j] = 0.5 * cos(delta * j);
 132              		.loc 2 697 9 discriminator 3 view .LVU30
 133 0056 0135     		adds	r5, r5, #1
 134              	.LVL10:
 698:open303/Source/DSPCode/fft4g.c ****             c[j] = 0.5 * cos(delta * j);
 135              		.loc 2 698 29 view .LVU31
 136 0058 B8EEE78B 		vcvt.f64.s32	d8, s15
 137 005c 28EE098B 		vmul.f64	d8, d8, d9
ARM GAS  /var/folders/7j/7n_15nxd0bx4q178nq7r8qsr0000gn/T//cc8hDKNO.s 			page 16


 138 0060 B0EE480B 		vmov.f64	d0, d8
 139 0064 FFF7FEFF 		bl	cos
 140              	.LVL11:
 698:open303/Source/DSPCode/fft4g.c ****             c[j] = 0.5 * cos(delta * j);
 141              		.loc 2 698 24 discriminator 1 view .LVU32
 142 0068 20EE0A0B 		vmul.f64	d0, d0, d10
 698:open303/Source/DSPCode/fft4g.c ****             c[j] = 0.5 * cos(delta * j);
 143              		.loc 2 698 18 discriminator 1 view .LVU33
 144 006c A7EC020B 		vstmia.64	r7!, {d0}
 699:open303/Source/DSPCode/fft4g.c ****         }
 145              		.loc 2 699 13 is_stmt 1 view .LVU34
 699:open303/Source/DSPCode/fft4g.c ****         }
 146              		.loc 2 699 34 is_stmt 0 view .LVU35
 147 0070 B0EE480B 		vmov.f64	d0, d8
 148 0074 FFF7FEFF 		bl	sin
 149              	.LVL12:
 699:open303/Source/DSPCode/fft4g.c ****         }
 150              		.loc 2 699 29 discriminator 1 view .LVU36
 151 0078 20EE0A0B 		vmul.f64	d0, d0, d10
 699:open303/Source/DSPCode/fft4g.c ****         }
 152              		.loc 2 699 23 discriminator 1 view .LVU37
 153 007c 24ED020B 		vstmdb.64	r4!, {d0}
 697:open303/Source/DSPCode/fft4g.c ****             c[j] = 0.5 * cos(delta * j);
 154              		.loc 2 697 9 is_stmt 1 discriminator 3 view .LVU38
 155 0080 E2E7     		b	.L3
 156              	.L7:
 157 0082 00BFAFF3 		.align	3
 157      0080
 158              	.L6:
 159 0088 182D4454 		.word	1413754136
 160 008c FB21E93F 		.word	1072243195
 161              	.LBE10:
 162              	.LBE11:
 163              		.cfi_endproc
 164              	.LFE648:
 166              		.section	.text._Z6bitrv2iPiPd,"ax",%progbits
 167              		.align	1
 168              		.global	_Z6bitrv2iPiPd
 169              		.syntax unified
 170              		.thumb
 171              		.thumb_func
 173              	_Z6bitrv2iPiPd:
 174              	.LVL13:
 175              	.LFB649:
 703:open303/Source/DSPCode/fft4g.c **** 
 704:open303/Source/DSPCode/fft4g.c **** 
 705:open303/Source/DSPCode/fft4g.c **** /* -------- child routines -------- */
 706:open303/Source/DSPCode/fft4g.c **** 
 707:open303/Source/DSPCode/fft4g.c **** 
 708:open303/Source/DSPCode/fft4g.c **** void bitrv2(int n, int *ip, double *a)
 709:open303/Source/DSPCode/fft4g.c **** {
 176              		.loc 2 709 1 view -0
 177              		.cfi_startproc
 178              		@ args = 0, pretend = 0, frame = 8
 179              		@ frame_needed = 0, uses_anonymous_args = 0
 710:open303/Source/DSPCode/fft4g.c ****     int j, j1, k, k1, l, m, m2;
 180              		.loc 2 710 5 view .LVU40
ARM GAS  /var/folders/7j/7n_15nxd0bx4q178nq7r8qsr0000gn/T//cc8hDKNO.s 			page 17


 711:open303/Source/DSPCode/fft4g.c ****     double xr, xi, yr, yi;
 181              		.loc 2 711 5 view .LVU41
 712:open303/Source/DSPCode/fft4g.c ****     
 713:open303/Source/DSPCode/fft4g.c ****     ip[0] = 0;
 182              		.loc 2 713 5 view .LVU42
 709:open303/Source/DSPCode/fft4g.c ****     int j, j1, k, k1, l, m, m2;
 183              		.loc 2 709 1 is_stmt 0 view .LVU43
 184 0000 2DE9F74F 		push	{r0, r1, r2, r4, r5, r6, r7, r8, r9, r10, fp, lr}
 185              		.cfi_def_cfa_offset 48
 186              		.cfi_offset 4, -36
 187              		.cfi_offset 5, -32
 188              		.cfi_offset 6, -28
 189              		.cfi_offset 7, -24
 190              		.cfi_offset 8, -20
 191              		.cfi_offset 9, -16
 192              		.cfi_offset 10, -12
 193              		.cfi_offset 11, -8
 194              		.cfi_offset 14, -4
 195              		.loc 2 713 11 view .LVU44
 196 0004 0023     		movs	r3, #0
 714:open303/Source/DSPCode/fft4g.c ****     l = n;
 715:open303/Source/DSPCode/fft4g.c ****     m = 1;
 197              		.loc 2 715 7 view .LVU45
 198 0006 0124     		movs	r4, #1
 713:open303/Source/DSPCode/fft4g.c ****     l = n;
 199              		.loc 2 713 11 view .LVU46
 200 0008 0B60     		str	r3, [r1]
 714:open303/Source/DSPCode/fft4g.c ****     l = n;
 201              		.loc 2 714 5 is_stmt 1 view .LVU47
 202              	.LVL14:
 203              		.loc 2 715 5 view .LVU48
 716:open303/Source/DSPCode/fft4g.c ****     while ((m << 3) < l) {
 204              		.loc 2 716 5 view .LVU49
 205              	.L9:
 206              		.loc 2 716 21 view .LVU50
 207              		.loc 2 716 15 is_stmt 0 view .LVU51
 208 000a E300     		lsls	r3, r4, #3
 209              		.loc 2 716 21 view .LVU52
 210 000c 8342     		cmp	r3, r0
 211 000e 0ADB     		blt	.L12
 717:open303/Source/DSPCode/fft4g.c ****         l >>= 1;
 718:open303/Source/DSPCode/fft4g.c ****         for (j = 0; j < m; j++) {
 719:open303/Source/DSPCode/fft4g.c ****             ip[m + j] = ip[j] + l;
 720:open303/Source/DSPCode/fft4g.c ****         }
 721:open303/Source/DSPCode/fft4g.c ****         m <<= 1;
 722:open303/Source/DSPCode/fft4g.c ****     }
 723:open303/Source/DSPCode/fft4g.c ****     m2 = 2 * m;
 212              		.loc 2 723 5 is_stmt 1 view .LVU53
 213              		.loc 2 723 8 is_stmt 0 view .LVU54
 214 0010 4FEA4405 		lsl	r5, r4, #1
 215              	.LVL15:
 724:open303/Source/DSPCode/fft4g.c ****     if ((m << 3) == l) {
 216              		.loc 2 724 5 is_stmt 1 view .LVU55
 217 0014 16D0     		beq	.L13
 218 0016 8C46     		mov	ip, r1
 725:open303/Source/DSPCode/fft4g.c ****         for (k = 0; k < m; k++) {
 726:open303/Source/DSPCode/fft4g.c ****             for (j = 0; j < k; j++) {
ARM GAS  /var/folders/7j/7n_15nxd0bx4q178nq7r8qsr0000gn/T//cc8hDKNO.s 			page 18


 727:open303/Source/DSPCode/fft4g.c ****                 j1 = 2 * j + ip[k];
 728:open303/Source/DSPCode/fft4g.c ****                 k1 = 2 * k + ip[j];
 729:open303/Source/DSPCode/fft4g.c ****                 xr = a[j1];
 730:open303/Source/DSPCode/fft4g.c ****                 xi = a[j1 + 1];
 731:open303/Source/DSPCode/fft4g.c ****                 yr = a[k1];
 732:open303/Source/DSPCode/fft4g.c ****                 yi = a[k1 + 1];
 733:open303/Source/DSPCode/fft4g.c ****                 a[j1] = yr;
 734:open303/Source/DSPCode/fft4g.c ****                 a[j1 + 1] = yi;
 735:open303/Source/DSPCode/fft4g.c ****                 a[k1] = xr;
 736:open303/Source/DSPCode/fft4g.c ****                 a[k1 + 1] = xi;
 737:open303/Source/DSPCode/fft4g.c ****                 j1 += m2;
 738:open303/Source/DSPCode/fft4g.c ****                 k1 += 2 * m2;
 739:open303/Source/DSPCode/fft4g.c ****                 xr = a[j1];
 740:open303/Source/DSPCode/fft4g.c ****                 xi = a[j1 + 1];
 741:open303/Source/DSPCode/fft4g.c ****                 yr = a[k1];
 742:open303/Source/DSPCode/fft4g.c ****                 yi = a[k1 + 1];
 743:open303/Source/DSPCode/fft4g.c ****                 a[j1] = yr;
 744:open303/Source/DSPCode/fft4g.c ****                 a[j1 + 1] = yi;
 745:open303/Source/DSPCode/fft4g.c ****                 a[k1] = xr;
 746:open303/Source/DSPCode/fft4g.c ****                 a[k1 + 1] = xi;
 747:open303/Source/DSPCode/fft4g.c ****                 j1 += m2;
 748:open303/Source/DSPCode/fft4g.c ****                 k1 -= m2;
 749:open303/Source/DSPCode/fft4g.c ****                 xr = a[j1];
 750:open303/Source/DSPCode/fft4g.c ****                 xi = a[j1 + 1];
 751:open303/Source/DSPCode/fft4g.c ****                 yr = a[k1];
 752:open303/Source/DSPCode/fft4g.c ****                 yi = a[k1 + 1];
 753:open303/Source/DSPCode/fft4g.c ****                 a[j1] = yr;
 754:open303/Source/DSPCode/fft4g.c ****                 a[j1 + 1] = yi;
 755:open303/Source/DSPCode/fft4g.c ****                 a[k1] = xr;
 756:open303/Source/DSPCode/fft4g.c ****                 a[k1 + 1] = xi;
 757:open303/Source/DSPCode/fft4g.c ****                 j1 += m2;
 758:open303/Source/DSPCode/fft4g.c ****                 k1 += 2 * m2;
 759:open303/Source/DSPCode/fft4g.c ****                 xr = a[j1];
 760:open303/Source/DSPCode/fft4g.c ****                 xi = a[j1 + 1];
 761:open303/Source/DSPCode/fft4g.c ****                 yr = a[k1];
 762:open303/Source/DSPCode/fft4g.c ****                 yi = a[k1 + 1];
 763:open303/Source/DSPCode/fft4g.c ****                 a[j1] = yr;
 764:open303/Source/DSPCode/fft4g.c ****                 a[j1 + 1] = yi;
 765:open303/Source/DSPCode/fft4g.c ****                 a[k1] = xr;
 766:open303/Source/DSPCode/fft4g.c ****                 a[k1 + 1] = xi;
 767:open303/Source/DSPCode/fft4g.c ****             }
 768:open303/Source/DSPCode/fft4g.c ****             j1 = 2 * k + m2 + ip[k];
 769:open303/Source/DSPCode/fft4g.c ****             k1 = j1 + m2;
 770:open303/Source/DSPCode/fft4g.c ****             xr = a[j1];
 771:open303/Source/DSPCode/fft4g.c ****             xi = a[j1 + 1];
 772:open303/Source/DSPCode/fft4g.c ****             yr = a[k1];
 773:open303/Source/DSPCode/fft4g.c ****             yi = a[k1 + 1];
 774:open303/Source/DSPCode/fft4g.c ****             a[j1] = yr;
 775:open303/Source/DSPCode/fft4g.c ****             a[j1 + 1] = yi;
 776:open303/Source/DSPCode/fft4g.c ****             a[k1] = xr;
 777:open303/Source/DSPCode/fft4g.c ****             a[k1 + 1] = xi;
 778:open303/Source/DSPCode/fft4g.c ****         }
 779:open303/Source/DSPCode/fft4g.c ****     } else {
 780:open303/Source/DSPCode/fft4g.c ****         for (k = 1; k < m; k++) {
 219              		.loc 2 780 16 is_stmt 0 view .LVU56
 220 0018 0127     		movs	r7, #1
 221              	.LVL16:
ARM GAS  /var/folders/7j/7n_15nxd0bx4q178nq7r8qsr0000gn/T//cc8hDKNO.s 			page 19


 222              	.L14:
 223              		.loc 2 780 23 is_stmt 1 discriminator 1 view .LVU57
 224 001a A742     		cmp	r7, r4
 225 001c C0F29980 		blt	.L20
 226              	.LVL17:
 227              	.L8:
 781:open303/Source/DSPCode/fft4g.c ****             for (j = 0; j < k; j++) {
 782:open303/Source/DSPCode/fft4g.c ****                 j1 = 2 * j + ip[k];
 783:open303/Source/DSPCode/fft4g.c ****                 k1 = 2 * k + ip[j];
 784:open303/Source/DSPCode/fft4g.c ****                 xr = a[j1];
 785:open303/Source/DSPCode/fft4g.c ****                 xi = a[j1 + 1];
 786:open303/Source/DSPCode/fft4g.c ****                 yr = a[k1];
 787:open303/Source/DSPCode/fft4g.c ****                 yi = a[k1 + 1];
 788:open303/Source/DSPCode/fft4g.c ****                 a[j1] = yr;
 789:open303/Source/DSPCode/fft4g.c ****                 a[j1 + 1] = yi;
 790:open303/Source/DSPCode/fft4g.c ****                 a[k1] = xr;
 791:open303/Source/DSPCode/fft4g.c ****                 a[k1 + 1] = xi;
 792:open303/Source/DSPCode/fft4g.c ****                 j1 += m2;
 793:open303/Source/DSPCode/fft4g.c ****                 k1 += m2;
 794:open303/Source/DSPCode/fft4g.c ****                 xr = a[j1];
 795:open303/Source/DSPCode/fft4g.c ****                 xi = a[j1 + 1];
 796:open303/Source/DSPCode/fft4g.c ****                 yr = a[k1];
 797:open303/Source/DSPCode/fft4g.c ****                 yi = a[k1 + 1];
 798:open303/Source/DSPCode/fft4g.c ****                 a[j1] = yr;
 799:open303/Source/DSPCode/fft4g.c ****                 a[j1 + 1] = yi;
 800:open303/Source/DSPCode/fft4g.c ****                 a[k1] = xr;
 801:open303/Source/DSPCode/fft4g.c ****                 a[k1 + 1] = xi;
 802:open303/Source/DSPCode/fft4g.c ****             }
 803:open303/Source/DSPCode/fft4g.c ****         }
 804:open303/Source/DSPCode/fft4g.c ****     }
 805:open303/Source/DSPCode/fft4g.c **** }
 228              		.loc 2 805 1 is_stmt 0 view .LVU58
 229 0020 03B0     		add	sp, sp, #12
 230              		.cfi_remember_state
 231              		.cfi_def_cfa_offset 36
 232              		@ sp needed
 233 0022 BDE8F08F 		pop	{r4, r5, r6, r7, r8, r9, r10, fp, pc}
 234              	.LVL18:
 235              	.L12:
 236              		.cfi_restore_state
 717:open303/Source/DSPCode/fft4g.c ****         for (j = 0; j < m; j++) {
 237              		.loc 2 717 9 is_stmt 1 view .LVU59
 717:open303/Source/DSPCode/fft4g.c ****         for (j = 0; j < m; j++) {
 238              		.loc 2 717 11 is_stmt 0 view .LVU60
 239 0026 4010     		asrs	r0, r0, #1
 240              	.LVL19:
 718:open303/Source/DSPCode/fft4g.c ****             ip[m + j] = ip[j] + l;
 241              		.loc 2 718 9 is_stmt 1 view .LVU61
 718:open303/Source/DSPCode/fft4g.c ****             ip[m + j] = ip[j] + l;
 242              		.loc 2 718 16 is_stmt 0 view .LVU62
 243 0028 0023     		movs	r3, #0
 244 002a 01EB8406 		add	r6, r1, r4, lsl #2
 245              	.LVL20:
 246              	.L10:
 718:open303/Source/DSPCode/fft4g.c ****             ip[m + j] = ip[j] + l;
 247              		.loc 2 718 23 is_stmt 1 discriminator 1 view .LVU63
 248 002e A342     		cmp	r3, r4
ARM GAS  /var/folders/7j/7n_15nxd0bx4q178nq7r8qsr0000gn/T//cc8hDKNO.s 			page 20


 249 0030 01DB     		blt	.L11
 721:open303/Source/DSPCode/fft4g.c ****     }
 250              		.loc 2 721 9 view .LVU64
 721:open303/Source/DSPCode/fft4g.c ****     }
 251              		.loc 2 721 11 is_stmt 0 view .LVU65
 252 0032 6400     		lsls	r4, r4, #1
 253              	.LVL21:
 721:open303/Source/DSPCode/fft4g.c ****     }
 254              		.loc 2 721 11 view .LVU66
 255 0034 E9E7     		b	.L9
 256              	.LVL22:
 257              	.L11:
 719:open303/Source/DSPCode/fft4g.c ****         }
 258              		.loc 2 719 13 is_stmt 1 view .LVU67
 719:open303/Source/DSPCode/fft4g.c ****         }
 259              		.loc 2 719 31 is_stmt 0 view .LVU68
 260 0036 51F82350 		ldr	r5, [r1, r3, lsl #2]
 718:open303/Source/DSPCode/fft4g.c ****             ip[m + j] = ip[j] + l;
 261              		.loc 2 718 9 discriminator 3 view .LVU69
 262 003a 0133     		adds	r3, r3, #1
 263              	.LVL23:
 719:open303/Source/DSPCode/fft4g.c ****         }
 264              		.loc 2 719 31 view .LVU70
 265 003c 0544     		add	r5, r5, r0
 719:open303/Source/DSPCode/fft4g.c ****         }
 266              		.loc 2 719 23 view .LVU71
 267 003e 46F8045B 		str	r5, [r6], #4
 718:open303/Source/DSPCode/fft4g.c ****             ip[m + j] = ip[j] + l;
 268              		.loc 2 718 9 is_stmt 1 discriminator 3 view .LVU72
 269 0042 F4E7     		b	.L10
 270              	.LVL24:
 271              	.L13:
 738:open303/Source/DSPCode/fft4g.c ****                 xr = a[j1];
 272              		.loc 2 738 25 is_stmt 0 view .LVU73
 273 0044 4FEA840E 		lsl	lr, r4, #2
 274 0048 AC46     		mov	ip, r5
 725:open303/Source/DSPCode/fft4g.c ****             for (j = 0; j < k; j++) {
 275              		.loc 2 725 16 view .LVU74
 276 004a 0026     		movs	r6, #0
 277              	.LVL25:
 278              	.L15:
 725:open303/Source/DSPCode/fft4g.c ****             for (j = 0; j < k; j++) {
 279              		.loc 2 725 23 is_stmt 1 discriminator 1 view .LVU75
 280 004c A642     		cmp	r6, r4
 281 004e E7DA     		bge	.L8
 282 0050 7300     		lsls	r3, r6, #1
 726:open303/Source/DSPCode/fft4g.c ****                 j1 = 2 * j + ip[k];
 283              		.loc 2 726 20 is_stmt 0 view .LVU76
 284 0052 0027     		movs	r7, #0
 285 0054 0193     		str	r3, [sp, #4]
 286 0056 5EE0     		b	.L18
 287              	.LVL26:
 288              	.L16:
 727:open303/Source/DSPCode/fft4g.c ****                 k1 = 2 * k + ip[j];
 289              		.loc 2 727 17 is_stmt 1 view .LVU77
 727:open303/Source/DSPCode/fft4g.c ****                 k1 = 2 * k + ip[j];
 290              		.loc 2 727 20 is_stmt 0 view .LVU78
ARM GAS  /var/folders/7j/7n_15nxd0bx4q178nq7r8qsr0000gn/T//cc8hDKNO.s 			page 21


 291 0058 03EB4703 		add	r3, r3, r7, lsl #1
 728:open303/Source/DSPCode/fft4g.c ****                 xr = a[j1];
 292              		.loc 2 728 20 view .LVU79
 293 005c 51F82700 		ldr	r0, [r1, r7, lsl #2]
 726:open303/Source/DSPCode/fft4g.c ****                 j1 = 2 * j + ip[k];
 294              		.loc 2 726 13 discriminator 3 view .LVU80
 295 0060 0137     		adds	r7, r7, #1
 727:open303/Source/DSPCode/fft4g.c ****                 k1 = 2 * k + ip[j];
 296              		.loc 2 727 20 view .LVU81
 297 0062 0093     		str	r3, [sp]
 298              	.LVL27:
 728:open303/Source/DSPCode/fft4g.c ****                 xr = a[j1];
 299              		.loc 2 728 17 is_stmt 1 view .LVU82
 728:open303/Source/DSPCode/fft4g.c ****                 xr = a[j1];
 300              		.loc 2 728 20 is_stmt 0 view .LVU83
 301 0064 019B     		ldr	r3, [sp, #4]
 302              	.LVL28:
 728:open303/Source/DSPCode/fft4g.c ****                 xr = a[j1];
 303              		.loc 2 728 20 view .LVU84
 304 0066 1844     		add	r0, r0, r3
 305              	.LVL29:
 729:open303/Source/DSPCode/fft4g.c ****                 xi = a[j1 + 1];
 306              		.loc 2 729 17 is_stmt 1 view .LVU85
 729:open303/Source/DSPCode/fft4g.c ****                 xi = a[j1 + 1];
 307              		.loc 2 729 26 is_stmt 0 view .LVU86
 308 0068 009B     		ldr	r3, [sp]
 731:open303/Source/DSPCode/fft4g.c ****                 yi = a[k1 + 1];
 309              		.loc 2 731 26 view .LVU87
 310 006a 02EBC009 		add	r9, r2, r0, lsl #3
 738:open303/Source/DSPCode/fft4g.c ****                 xr = a[j1];
 311              		.loc 2 738 20 view .LVU88
 312 006e 7044     		add	r0, r0, lr
 313              	.LVL30:
 729:open303/Source/DSPCode/fft4g.c ****                 xi = a[j1 + 1];
 314              		.loc 2 729 26 view .LVU89
 315 0070 02EBC30B 		add	fp, r2, r3, lsl #3
 737:open303/Source/DSPCode/fft4g.c ****                 k1 += 2 * m2;
 316              		.loc 2 737 20 view .LVU90
 317 0074 2B44     		add	r3, r3, r5
 729:open303/Source/DSPCode/fft4g.c ****                 xi = a[j1 + 1];
 318              		.loc 2 729 20 view .LVU91
 319 0076 9BED006B 		vldr.64	d6, [fp]
 320              	.LVL31:
 730:open303/Source/DSPCode/fft4g.c ****                 yr = a[k1];
 321              		.loc 2 730 17 is_stmt 1 view .LVU92
 730:open303/Source/DSPCode/fft4g.c ****                 yr = a[k1];
 322              		.loc 2 730 20 is_stmt 0 view .LVU93
 323 007a 9BED027B 		vldr.64	d7, [fp, #8]
 324              	.LVL32:
 731:open303/Source/DSPCode/fft4g.c ****                 yi = a[k1 + 1];
 325              		.loc 2 731 17 is_stmt 1 view .LVU94
 731:open303/Source/DSPCode/fft4g.c ****                 yi = a[k1 + 1];
 326              		.loc 2 731 20 is_stmt 0 view .LVU95
 327 007e 99ED004B 		vldr.64	d4, [r9]
 328              	.LVL33:
 732:open303/Source/DSPCode/fft4g.c ****                 a[j1] = yr;
 329              		.loc 2 732 17 is_stmt 1 view .LVU96
ARM GAS  /var/folders/7j/7n_15nxd0bx4q178nq7r8qsr0000gn/T//cc8hDKNO.s 			page 22


 732:open303/Source/DSPCode/fft4g.c ****                 a[j1] = yr;
 330              		.loc 2 732 20 is_stmt 0 view .LVU97
 331 0082 99ED025B 		vldr.64	d5, [r9, #8]
 332              	.LVL34:
 733:open303/Source/DSPCode/fft4g.c ****                 a[j1 + 1] = yi;
 333              		.loc 2 733 17 is_stmt 1 view .LVU98
 733:open303/Source/DSPCode/fft4g.c ****                 a[j1 + 1] = yi;
 334              		.loc 2 733 23 is_stmt 0 view .LVU99
 335 0086 8BED004B 		vstr.64	d4, [fp]
 734:open303/Source/DSPCode/fft4g.c ****                 a[k1] = xr;
 336              		.loc 2 734 17 is_stmt 1 view .LVU100
 734:open303/Source/DSPCode/fft4g.c ****                 a[k1] = xr;
 337              		.loc 2 734 27 is_stmt 0 view .LVU101
 338 008a 8BED025B 		vstr.64	d5, [fp, #8]
 735:open303/Source/DSPCode/fft4g.c ****                 a[k1 + 1] = xi;
 339              		.loc 2 735 17 is_stmt 1 view .LVU102
 735:open303/Source/DSPCode/fft4g.c ****                 a[k1 + 1] = xi;
 340              		.loc 2 735 23 is_stmt 0 view .LVU103
 341 008e 89ED006B 		vstr.64	d6, [r9]
 736:open303/Source/DSPCode/fft4g.c ****                 j1 += m2;
 342              		.loc 2 736 17 is_stmt 1 view .LVU104
 736:open303/Source/DSPCode/fft4g.c ****                 j1 += m2;
 343              		.loc 2 736 27 is_stmt 0 view .LVU105
 344 0092 89ED027B 		vstr.64	d7, [r9, #8]
 737:open303/Source/DSPCode/fft4g.c ****                 k1 += 2 * m2;
 345              		.loc 2 737 17 is_stmt 1 view .LVU106
 346              	.LVL35:
 738:open303/Source/DSPCode/fft4g.c ****                 xr = a[j1];
 347              		.loc 2 738 17 view .LVU107
 739:open303/Source/DSPCode/fft4g.c ****                 xi = a[j1 + 1];
 348              		.loc 2 739 17 view .LVU108
 739:open303/Source/DSPCode/fft4g.c ****                 xi = a[j1 + 1];
 349              		.loc 2 739 26 is_stmt 0 view .LVU109
 350 0096 02EBC30B 		add	fp, r2, r3, lsl #3
 747:open303/Source/DSPCode/fft4g.c ****                 k1 -= m2;
 351              		.loc 2 747 20 view .LVU110
 352 009a 2B44     		add	r3, r3, r5
 353              	.LVL36:
 741:open303/Source/DSPCode/fft4g.c ****                 yi = a[k1 + 1];
 354              		.loc 2 741 26 view .LVU111
 355 009c 02EBC009 		add	r9, r2, r0, lsl #3
 748:open303/Source/DSPCode/fft4g.c ****                 xr = a[j1];
 356              		.loc 2 748 20 view .LVU112
 357 00a0 401B     		subs	r0, r0, r5
 358              	.LVL37:
 739:open303/Source/DSPCode/fft4g.c ****                 xi = a[j1 + 1];
 359              		.loc 2 739 20 view .LVU113
 360 00a2 9BED006B 		vldr.64	d6, [fp]
 361              	.LVL38:
 740:open303/Source/DSPCode/fft4g.c ****                 yr = a[k1];
 362              		.loc 2 740 17 is_stmt 1 view .LVU114
 740:open303/Source/DSPCode/fft4g.c ****                 yr = a[k1];
 363              		.loc 2 740 20 is_stmt 0 view .LVU115
 364 00a6 9BED027B 		vldr.64	d7, [fp, #8]
 365              	.LVL39:
 741:open303/Source/DSPCode/fft4g.c ****                 yi = a[k1 + 1];
 366              		.loc 2 741 17 is_stmt 1 view .LVU116
ARM GAS  /var/folders/7j/7n_15nxd0bx4q178nq7r8qsr0000gn/T//cc8hDKNO.s 			page 23


 741:open303/Source/DSPCode/fft4g.c ****                 yi = a[k1 + 1];
 367              		.loc 2 741 20 is_stmt 0 view .LVU117
 368 00aa 99ED004B 		vldr.64	d4, [r9]
 369              	.LVL40:
 742:open303/Source/DSPCode/fft4g.c ****                 a[j1] = yr;
 370              		.loc 2 742 17 is_stmt 1 view .LVU118
 742:open303/Source/DSPCode/fft4g.c ****                 a[j1] = yr;
 371              		.loc 2 742 20 is_stmt 0 view .LVU119
 372 00ae 99ED025B 		vldr.64	d5, [r9, #8]
 373              	.LVL41:
 743:open303/Source/DSPCode/fft4g.c ****                 a[j1 + 1] = yi;
 374              		.loc 2 743 17 is_stmt 1 view .LVU120
 743:open303/Source/DSPCode/fft4g.c ****                 a[j1 + 1] = yi;
 375              		.loc 2 743 23 is_stmt 0 view .LVU121
 376 00b2 8BED004B 		vstr.64	d4, [fp]
 744:open303/Source/DSPCode/fft4g.c ****                 a[k1] = xr;
 377              		.loc 2 744 17 is_stmt 1 view .LVU122
 744:open303/Source/DSPCode/fft4g.c ****                 a[k1] = xr;
 378              		.loc 2 744 27 is_stmt 0 view .LVU123
 379 00b6 8BED025B 		vstr.64	d5, [fp, #8]
 745:open303/Source/DSPCode/fft4g.c ****                 a[k1 + 1] = xi;
 380              		.loc 2 745 17 is_stmt 1 view .LVU124
 745:open303/Source/DSPCode/fft4g.c ****                 a[k1 + 1] = xi;
 381              		.loc 2 745 23 is_stmt 0 view .LVU125
 382 00ba 89ED006B 		vstr.64	d6, [r9]
 746:open303/Source/DSPCode/fft4g.c ****                 j1 += m2;
 383              		.loc 2 746 17 is_stmt 1 view .LVU126
 746:open303/Source/DSPCode/fft4g.c ****                 j1 += m2;
 384              		.loc 2 746 27 is_stmt 0 view .LVU127
 385 00be 89ED027B 		vstr.64	d7, [r9, #8]
 747:open303/Source/DSPCode/fft4g.c ****                 k1 -= m2;
 386              		.loc 2 747 17 is_stmt 1 view .LVU128
 387              	.LVL42:
 748:open303/Source/DSPCode/fft4g.c ****                 xr = a[j1];
 388              		.loc 2 748 17 view .LVU129
 749:open303/Source/DSPCode/fft4g.c ****                 xi = a[j1 + 1];
 389              		.loc 2 749 17 view .LVU130
 749:open303/Source/DSPCode/fft4g.c ****                 xi = a[j1 + 1];
 390              		.loc 2 749 26 is_stmt 0 view .LVU131
 391 00c2 02EBC30B 		add	fp, r2, r3, lsl #3
 757:open303/Source/DSPCode/fft4g.c ****                 k1 += 2 * m2;
 392              		.loc 2 757 20 view .LVU132
 393 00c6 2B44     		add	r3, r3, r5
 394              	.LVL43:
 751:open303/Source/DSPCode/fft4g.c ****                 yi = a[k1 + 1];
 395              		.loc 2 751 26 view .LVU133
 396 00c8 02EBC009 		add	r9, r2, r0, lsl #3
 758:open303/Source/DSPCode/fft4g.c ****                 xr = a[j1];
 397              		.loc 2 758 20 view .LVU134
 398 00cc 7044     		add	r0, r0, lr
 399              	.LVL44:
 759:open303/Source/DSPCode/fft4g.c ****                 xi = a[j1 + 1];
 400              		.loc 2 759 26 view .LVU135
 401 00ce 02EBC308 		add	r8, r2, r3, lsl #3
 749:open303/Source/DSPCode/fft4g.c ****                 xi = a[j1 + 1];
 402              		.loc 2 749 20 view .LVU136
 403 00d2 9BED006B 		vldr.64	d6, [fp]
ARM GAS  /var/folders/7j/7n_15nxd0bx4q178nq7r8qsr0000gn/T//cc8hDKNO.s 			page 24


 404              	.LVL45:
 750:open303/Source/DSPCode/fft4g.c ****                 yr = a[k1];
 405              		.loc 2 750 17 is_stmt 1 view .LVU137
 750:open303/Source/DSPCode/fft4g.c ****                 yr = a[k1];
 406              		.loc 2 750 20 is_stmt 0 view .LVU138
 407 00d6 9BED027B 		vldr.64	d7, [fp, #8]
 408              	.LVL46:
 751:open303/Source/DSPCode/fft4g.c ****                 yi = a[k1 + 1];
 409              		.loc 2 751 17 is_stmt 1 view .LVU139
 752:open303/Source/DSPCode/fft4g.c ****                 a[j1] = yr;
 410              		.loc 2 752 20 is_stmt 0 view .LVU140
 411 00da 99ED025B 		vldr.64	d5, [r9, #8]
 412              	.LVL47:
 751:open303/Source/DSPCode/fft4g.c ****                 yi = a[k1 + 1];
 413              		.loc 2 751 20 view .LVU141
 414 00de 99ED004B 		vldr.64	d4, [r9]
 415              	.LVL48:
 752:open303/Source/DSPCode/fft4g.c ****                 a[j1] = yr;
 416              		.loc 2 752 17 is_stmt 1 view .LVU142
 753:open303/Source/DSPCode/fft4g.c ****                 a[j1 + 1] = yi;
 417              		.loc 2 753 17 view .LVU143
 754:open303/Source/DSPCode/fft4g.c ****                 a[k1] = xr;
 418              		.loc 2 754 27 is_stmt 0 view .LVU144
 419 00e2 8BED025B 		vstr.64	d5, [fp, #8]
 753:open303/Source/DSPCode/fft4g.c ****                 a[j1 + 1] = yi;
 420              		.loc 2 753 23 view .LVU145
 421 00e6 8BED004B 		vstr.64	d4, [fp]
 754:open303/Source/DSPCode/fft4g.c ****                 a[k1] = xr;
 422              		.loc 2 754 17 is_stmt 1 view .LVU146
 755:open303/Source/DSPCode/fft4g.c ****                 a[k1 + 1] = xi;
 423              		.loc 2 755 17 view .LVU147
 755:open303/Source/DSPCode/fft4g.c ****                 a[k1 + 1] = xi;
 424              		.loc 2 755 23 is_stmt 0 view .LVU148
 425 00ea 89ED006B 		vstr.64	d6, [r9]
 756:open303/Source/DSPCode/fft4g.c ****                 j1 += m2;
 426              		.loc 2 756 17 is_stmt 1 view .LVU149
 756:open303/Source/DSPCode/fft4g.c ****                 j1 += m2;
 427              		.loc 2 756 27 is_stmt 0 view .LVU150
 428 00ee 89ED027B 		vstr.64	d7, [r9, #8]
 757:open303/Source/DSPCode/fft4g.c ****                 k1 += 2 * m2;
 429              		.loc 2 757 17 is_stmt 1 view .LVU151
 430              	.LVL49:
 758:open303/Source/DSPCode/fft4g.c ****                 xr = a[j1];
 431              		.loc 2 758 17 view .LVU152
 759:open303/Source/DSPCode/fft4g.c ****                 xi = a[j1 + 1];
 432              		.loc 2 759 17 view .LVU153
 761:open303/Source/DSPCode/fft4g.c ****                 yi = a[k1 + 1];
 433              		.loc 2 761 26 is_stmt 0 view .LVU154
 434 00f2 02EBC009 		add	r9, r2, r0, lsl #3
 759:open303/Source/DSPCode/fft4g.c ****                 xi = a[j1 + 1];
 435              		.loc 2 759 20 view .LVU155
 436 00f6 98ED007B 		vldr.64	d7, [r8]
 437              	.LVL50:
 760:open303/Source/DSPCode/fft4g.c ****                 yr = a[k1];
 438              		.loc 2 760 17 is_stmt 1 view .LVU156
 762:open303/Source/DSPCode/fft4g.c ****                 a[j1] = yr;
 439              		.loc 2 762 20 is_stmt 0 view .LVU157
ARM GAS  /var/folders/7j/7n_15nxd0bx4q178nq7r8qsr0000gn/T//cc8hDKNO.s 			page 25


 440 00fa 99ED026B 		vldr.64	d6, [r9, #8]
 761:open303/Source/DSPCode/fft4g.c ****                 yi = a[k1 + 1];
 441              		.loc 2 761 20 view .LVU158
 442 00fe 99ED005B 		vldr.64	d5, [r9]
 443              	.LVL51:
 760:open303/Source/DSPCode/fft4g.c ****                 yr = a[k1];
 444              		.loc 2 760 20 view .LVU159
 445 0102 D8E902AB 		ldrd	r10, [r8, #8]
 446              	.LVL52:
 761:open303/Source/DSPCode/fft4g.c ****                 yi = a[k1 + 1];
 447              		.loc 2 761 17 is_stmt 1 view .LVU160
 762:open303/Source/DSPCode/fft4g.c ****                 a[j1] = yr;
 448              		.loc 2 762 17 view .LVU161
 763:open303/Source/DSPCode/fft4g.c ****                 a[j1 + 1] = yi;
 449              		.loc 2 763 17 view .LVU162
 763:open303/Source/DSPCode/fft4g.c ****                 a[j1 + 1] = yi;
 450              		.loc 2 763 23 is_stmt 0 view .LVU163
 451 0106 88ED005B 		vstr.64	d5, [r8]
 764:open303/Source/DSPCode/fft4g.c ****                 a[k1] = xr;
 452              		.loc 2 764 17 is_stmt 1 view .LVU164
 764:open303/Source/DSPCode/fft4g.c ****                 a[k1] = xr;
 453              		.loc 2 764 27 is_stmt 0 view .LVU165
 454 010a 88ED026B 		vstr.64	d6, [r8, #8]
 765:open303/Source/DSPCode/fft4g.c ****                 a[k1 + 1] = xi;
 455              		.loc 2 765 17 is_stmt 1 view .LVU166
 765:open303/Source/DSPCode/fft4g.c ****                 a[k1 + 1] = xi;
 456              		.loc 2 765 23 is_stmt 0 view .LVU167
 457 010e 89ED007B 		vstr.64	d7, [r9]
 766:open303/Source/DSPCode/fft4g.c ****             }
 458              		.loc 2 766 17 is_stmt 1 view .LVU168
 766:open303/Source/DSPCode/fft4g.c ****             }
 459              		.loc 2 766 27 is_stmt 0 view .LVU169
 460 0112 C9E902AB 		strd	r10, [r9, #8]
 726:open303/Source/DSPCode/fft4g.c ****                 j1 = 2 * j + ip[k];
 461              		.loc 2 726 13 is_stmt 1 discriminator 3 view .LVU170
 462              	.LVL53:
 463              	.L18:
 726:open303/Source/DSPCode/fft4g.c ****                 j1 = 2 * j + ip[k];
 464              		.loc 2 726 27 discriminator 1 view .LVU171
 465 0116 B742     		cmp	r7, r6
 466 0118 51F82630 		ldr	r3, [r1, r6, lsl #2]
 467 011c 9CD1     		bne	.L16
 768:open303/Source/DSPCode/fft4g.c ****             k1 = j1 + m2;
 468              		.loc 2 768 13 view .LVU172
 768:open303/Source/DSPCode/fft4g.c ****             k1 = j1 + m2;
 469              		.loc 2 768 16 is_stmt 0 view .LVU173
 470 011e 6344     		add	r3, r3, ip
 471              	.LVL54:
 769:open303/Source/DSPCode/fft4g.c ****             xr = a[j1];
 472              		.loc 2 769 13 is_stmt 1 view .LVU174
 770:open303/Source/DSPCode/fft4g.c ****             xi = a[j1 + 1];
 473              		.loc 2 770 13 view .LVU175
 725:open303/Source/DSPCode/fft4g.c ****             for (j = 0; j < k; j++) {
 474              		.loc 2 725 9 is_stmt 0 discriminator 2 view .LVU176
 475 0120 0136     		adds	r6, r6, #1
 476              	.LVL55:
 725:open303/Source/DSPCode/fft4g.c ****             for (j = 0; j < k; j++) {
ARM GAS  /var/folders/7j/7n_15nxd0bx4q178nq7r8qsr0000gn/T//cc8hDKNO.s 			page 26


 477              		.loc 2 725 9 discriminator 2 view .LVU177
 478 0122 0CF1020C 		add	ip, ip, #2
 770:open303/Source/DSPCode/fft4g.c ****             xi = a[j1 + 1];
 479              		.loc 2 770 22 view .LVU178
 480 0126 02EBC308 		add	r8, r2, r3, lsl #3
 769:open303/Source/DSPCode/fft4g.c ****             xr = a[j1];
 481              		.loc 2 769 16 view .LVU179
 482 012a 2B44     		add	r3, r3, r5
 483              	.LVL56:
 772:open303/Source/DSPCode/fft4g.c ****             yi = a[k1 + 1];
 484              		.loc 2 772 22 view .LVU180
 485 012c 02EBC300 		add	r0, r2, r3, lsl #3
 770:open303/Source/DSPCode/fft4g.c ****             xi = a[j1 + 1];
 486              		.loc 2 770 16 view .LVU181
 487 0130 98ED007B 		vldr.64	d7, [r8]
 488              	.LVL57:
 771:open303/Source/DSPCode/fft4g.c ****             yr = a[k1];
 489              		.loc 2 771 13 is_stmt 1 view .LVU182
 772:open303/Source/DSPCode/fft4g.c ****             yi = a[k1 + 1];
 490              		.loc 2 772 16 is_stmt 0 view .LVU183
 491 0134 90ED005B 		vldr.64	d5, [r0]
 773:open303/Source/DSPCode/fft4g.c ****             a[j1] = yr;
 492              		.loc 2 773 16 view .LVU184
 493 0138 90ED026B 		vldr.64	d6, [r0, #8]
 771:open303/Source/DSPCode/fft4g.c ****             yr = a[k1];
 494              		.loc 2 771 16 view .LVU185
 495 013c D8E902AB 		ldrd	r10, [r8, #8]
 496              	.LVL58:
 772:open303/Source/DSPCode/fft4g.c ****             yi = a[k1 + 1];
 497              		.loc 2 772 13 is_stmt 1 view .LVU186
 773:open303/Source/DSPCode/fft4g.c ****             a[j1] = yr;
 498              		.loc 2 773 13 view .LVU187
 774:open303/Source/DSPCode/fft4g.c ****             a[j1 + 1] = yi;
 499              		.loc 2 774 13 view .LVU188
 774:open303/Source/DSPCode/fft4g.c ****             a[j1 + 1] = yi;
 500              		.loc 2 774 19 is_stmt 0 view .LVU189
 501 0140 88ED005B 		vstr.64	d5, [r8]
 775:open303/Source/DSPCode/fft4g.c ****             a[k1] = xr;
 502              		.loc 2 775 13 is_stmt 1 view .LVU190
 775:open303/Source/DSPCode/fft4g.c ****             a[k1] = xr;
 503              		.loc 2 775 23 is_stmt 0 view .LVU191
 504 0144 88ED026B 		vstr.64	d6, [r8, #8]
 776:open303/Source/DSPCode/fft4g.c ****             a[k1 + 1] = xi;
 505              		.loc 2 776 13 is_stmt 1 view .LVU192
 776:open303/Source/DSPCode/fft4g.c ****             a[k1 + 1] = xi;
 506              		.loc 2 776 19 is_stmt 0 view .LVU193
 507 0148 80ED007B 		vstr.64	d7, [r0]
 777:open303/Source/DSPCode/fft4g.c ****         }
 508              		.loc 2 777 13 is_stmt 1 view .LVU194
 777:open303/Source/DSPCode/fft4g.c ****         }
 509              		.loc 2 777 23 is_stmt 0 view .LVU195
 510 014c C0E902AB 		strd	r10, [r0, #8]
 725:open303/Source/DSPCode/fft4g.c ****             for (j = 0; j < k; j++) {
 511              		.loc 2 725 9 is_stmt 1 discriminator 2 view .LVU196
 512              	.LVL59:
 725:open303/Source/DSPCode/fft4g.c ****             for (j = 0; j < k; j++) {
 513              		.loc 2 725 9 is_stmt 0 discriminator 2 view .LVU197
ARM GAS  /var/folders/7j/7n_15nxd0bx4q178nq7r8qsr0000gn/T//cc8hDKNO.s 			page 27


 514 0150 7CE7     		b	.L15
 515              	.LVL60:
 516              	.L20:
 725:open303/Source/DSPCode/fft4g.c ****             for (j = 0; j < k; j++) {
 517              		.loc 2 725 9 discriminator 2 view .LVU198
 518 0152 DCF80430 		ldr	r3, [ip, #4]
 782:open303/Source/DSPCode/fft4g.c ****                 k1 = 2 * k + ip[j];
 519              		.loc 2 782 34 view .LVU199
 520 0156 0CF1040E 		add	lr, ip, #4
 783:open303/Source/DSPCode/fft4g.c ****                 xr = a[j1];
 521              		.loc 2 783 24 view .LVU200
 522 015a 4FEA4708 		lsl	r8, r7, #1
 523 015e 8946     		mov	r9, r1
 524 0160 02EBC306 		add	r6, r2, r3, lsl #3
 525 0164 2B44     		add	r3, r3, r5
 526 0166 02EBC303 		add	r3, r2, r3, lsl #3
 527              	.L19:
 782:open303/Source/DSPCode/fft4g.c ****                 k1 = 2 * k + ip[j];
 528              		.loc 2 782 17 is_stmt 1 view .LVU201
 529              	.LVL61:
 783:open303/Source/DSPCode/fft4g.c ****                 xr = a[j1];
 530              		.loc 2 783 17 view .LVU202
 783:open303/Source/DSPCode/fft4g.c ****                 xr = a[j1];
 531              		.loc 2 783 34 is_stmt 0 view .LVU203
 532 016a 59F8040B 		ldr	r0, [r9], #4
 781:open303/Source/DSPCode/fft4g.c ****                 j1 = 2 * j + ip[k];
 533              		.loc 2 781 27 discriminator 1 view .LVU204
 534 016e 1036     		adds	r6, r6, #16
 535 0170 1033     		adds	r3, r3, #16
 783:open303/Source/DSPCode/fft4g.c ****                 xr = a[j1];
 536              		.loc 2 783 20 view .LVU205
 537 0172 4044     		add	r0, r0, r8
 538              	.LVL62:
 784:open303/Source/DSPCode/fft4g.c ****                 xi = a[j1 + 1];
 539              		.loc 2 784 17 is_stmt 1 view .LVU206
 786:open303/Source/DSPCode/fft4g.c ****                 yi = a[k1 + 1];
 540              		.loc 2 786 26 is_stmt 0 view .LVU207
 541 0174 02EBC00B 		add	fp, r2, r0, lsl #3
 793:open303/Source/DSPCode/fft4g.c ****                 xr = a[j1];
 542              		.loc 2 793 20 view .LVU208
 543 0178 2844     		add	r0, r0, r5
 544              	.LVL63:
 784:open303/Source/DSPCode/fft4g.c ****                 xi = a[j1 + 1];
 545              		.loc 2 784 20 view .LVU209
 546 017a 16ED046B 		vldr.64	d6, [r6, #-16]
 547              	.LVL64:
 785:open303/Source/DSPCode/fft4g.c ****                 yr = a[k1];
 548              		.loc 2 785 17 is_stmt 1 view .LVU210
 785:open303/Source/DSPCode/fft4g.c ****                 yr = a[k1];
 549              		.loc 2 785 20 is_stmt 0 view .LVU211
 550 017e 16ED027B 		vldr.64	d7, [r6, #-8]
 551              	.LVL65:
 786:open303/Source/DSPCode/fft4g.c ****                 yi = a[k1 + 1];
 552              		.loc 2 786 17 is_stmt 1 view .LVU212
 786:open303/Source/DSPCode/fft4g.c ****                 yi = a[k1 + 1];
 553              		.loc 2 786 20 is_stmt 0 view .LVU213
 554 0182 9BED004B 		vldr.64	d4, [fp]
ARM GAS  /var/folders/7j/7n_15nxd0bx4q178nq7r8qsr0000gn/T//cc8hDKNO.s 			page 28


 555              	.LVL66:
 787:open303/Source/DSPCode/fft4g.c ****                 a[j1] = yr;
 556              		.loc 2 787 17 is_stmt 1 view .LVU214
 787:open303/Source/DSPCode/fft4g.c ****                 a[j1] = yr;
 557              		.loc 2 787 20 is_stmt 0 view .LVU215
 558 0186 9BED025B 		vldr.64	d5, [fp, #8]
 559              	.LVL67:
 788:open303/Source/DSPCode/fft4g.c ****                 a[j1 + 1] = yi;
 560              		.loc 2 788 17 is_stmt 1 view .LVU216
 796:open303/Source/DSPCode/fft4g.c ****                 yi = a[k1 + 1];
 561              		.loc 2 796 26 is_stmt 0 view .LVU217
 562 018a 02EBC00A 		add	r10, r2, r0, lsl #3
 781:open303/Source/DSPCode/fft4g.c ****                 j1 = 2 * j + ip[k];
 563              		.loc 2 781 27 discriminator 1 view .LVU218
 564 018e 0CF10400 		add	r0, ip, #4
 788:open303/Source/DSPCode/fft4g.c ****                 a[j1 + 1] = yi;
 565              		.loc 2 788 23 view .LVU219
 566 0192 06ED044B 		vstr.64	d4, [r6, #-16]
 789:open303/Source/DSPCode/fft4g.c ****                 a[k1] = xr;
 567              		.loc 2 789 17 is_stmt 1 view .LVU220
 789:open303/Source/DSPCode/fft4g.c ****                 a[k1] = xr;
 568              		.loc 2 789 27 is_stmt 0 view .LVU221
 569 0196 06ED025B 		vstr.64	d5, [r6, #-8]
 790:open303/Source/DSPCode/fft4g.c ****                 a[k1 + 1] = xi;
 570              		.loc 2 790 17 is_stmt 1 view .LVU222
 790:open303/Source/DSPCode/fft4g.c ****                 a[k1 + 1] = xi;
 571              		.loc 2 790 23 is_stmt 0 view .LVU223
 572 019a 8BED006B 		vstr.64	d6, [fp]
 791:open303/Source/DSPCode/fft4g.c ****                 j1 += m2;
 573              		.loc 2 791 17 is_stmt 1 view .LVU224
 791:open303/Source/DSPCode/fft4g.c ****                 j1 += m2;
 574              		.loc 2 791 27 is_stmt 0 view .LVU225
 575 019e 8BED027B 		vstr.64	d7, [fp, #8]
 792:open303/Source/DSPCode/fft4g.c ****                 k1 += m2;
 576              		.loc 2 792 17 is_stmt 1 view .LVU226
 793:open303/Source/DSPCode/fft4g.c ****                 xr = a[j1];
 577              		.loc 2 793 17 view .LVU227
 578              	.LVL68:
 794:open303/Source/DSPCode/fft4g.c ****                 xi = a[j1 + 1];
 579              		.loc 2 794 17 view .LVU228
 794:open303/Source/DSPCode/fft4g.c ****                 xi = a[j1 + 1];
 580              		.loc 2 794 20 is_stmt 0 view .LVU229
 581 01a2 13ED046B 		vldr.64	d6, [r3, #-16]
 582              	.LVL69:
 795:open303/Source/DSPCode/fft4g.c ****                 yr = a[k1];
 583              		.loc 2 795 17 is_stmt 1 view .LVU230
 795:open303/Source/DSPCode/fft4g.c ****                 yr = a[k1];
 584              		.loc 2 795 20 is_stmt 0 view .LVU231
 585 01a6 13ED027B 		vldr.64	d7, [r3, #-8]
 586              	.LVL70:
 796:open303/Source/DSPCode/fft4g.c ****                 yi = a[k1 + 1];
 587              		.loc 2 796 17 is_stmt 1 view .LVU232
 796:open303/Source/DSPCode/fft4g.c ****                 yi = a[k1 + 1];
 588              		.loc 2 796 20 is_stmt 0 view .LVU233
 589 01aa 9AED004B 		vldr.64	d4, [r10]
 590              	.LVL71:
 797:open303/Source/DSPCode/fft4g.c ****                 a[j1] = yr;
ARM GAS  /var/folders/7j/7n_15nxd0bx4q178nq7r8qsr0000gn/T//cc8hDKNO.s 			page 29


 591              		.loc 2 797 17 is_stmt 1 view .LVU234
 797:open303/Source/DSPCode/fft4g.c ****                 a[j1] = yr;
 592              		.loc 2 797 20 is_stmt 0 view .LVU235
 593 01ae 9AED025B 		vldr.64	d5, [r10, #8]
 594              	.LVL72:
 798:open303/Source/DSPCode/fft4g.c ****                 a[j1 + 1] = yi;
 595              		.loc 2 798 17 is_stmt 1 view .LVU236
 781:open303/Source/DSPCode/fft4g.c ****                 j1 = 2 * j + ip[k];
 596              		.loc 2 781 27 is_stmt 0 discriminator 1 view .LVU237
 597 01b2 4845     		cmp	r0, r9
 798:open303/Source/DSPCode/fft4g.c ****                 a[j1 + 1] = yi;
 598              		.loc 2 798 23 view .LVU238
 599 01b4 03ED044B 		vstr.64	d4, [r3, #-16]
 799:open303/Source/DSPCode/fft4g.c ****                 a[k1] = xr;
 600              		.loc 2 799 17 is_stmt 1 view .LVU239
 799:open303/Source/DSPCode/fft4g.c ****                 a[k1] = xr;
 601              		.loc 2 799 27 is_stmt 0 view .LVU240
 602 01b8 03ED025B 		vstr.64	d5, [r3, #-8]
 800:open303/Source/DSPCode/fft4g.c ****                 a[k1 + 1] = xi;
 603              		.loc 2 800 17 is_stmt 1 view .LVU241
 800:open303/Source/DSPCode/fft4g.c ****                 a[k1 + 1] = xi;
 604              		.loc 2 800 23 is_stmt 0 view .LVU242
 605 01bc 8AED006B 		vstr.64	d6, [r10]
 801:open303/Source/DSPCode/fft4g.c ****             }
 606              		.loc 2 801 17 is_stmt 1 view .LVU243
 801:open303/Source/DSPCode/fft4g.c ****             }
 607              		.loc 2 801 27 is_stmt 0 view .LVU244
 608 01c0 8AED027B 		vstr.64	d7, [r10, #8]
 781:open303/Source/DSPCode/fft4g.c ****                 j1 = 2 * j + ip[k];
 609              		.loc 2 781 13 is_stmt 1 discriminator 3 view .LVU245
 781:open303/Source/DSPCode/fft4g.c ****                 j1 = 2 * j + ip[k];
 610              		.loc 2 781 27 discriminator 1 view .LVU246
 611 01c4 D1D1     		bne	.L19
 780:open303/Source/DSPCode/fft4g.c ****             for (j = 0; j < k; j++) {
 612              		.loc 2 780 9 discriminator 2 view .LVU247
 613 01c6 0137     		adds	r7, r7, #1
 614              	.LVL73:
 780:open303/Source/DSPCode/fft4g.c ****             for (j = 0; j < k; j++) {
 615              		.loc 2 780 9 is_stmt 0 discriminator 2 view .LVU248
 616 01c8 F446     		mov	ip, lr
 617 01ca 26E7     		b	.L14
 618              		.cfi_endproc
 619              	.LFE649:
 621              		.section	.text._Z6makewtiPiPd,"ax",%progbits
 622              		.align	1
 623              		.global	_Z6makewtiPiPd
 624              		.syntax unified
 625              		.thumb
 626              		.thumb_func
 628              	_Z6makewtiPiPd:
 629              	.LVL74:
 630              	.LFB647:
 657:open303/Source/DSPCode/fft4g.c ****     void bitrv2(int n, int *ip, double *a);
 631              		.loc 2 657 1 is_stmt 1 view -0
 632              		.cfi_startproc
 633              		@ args = 0, pretend = 0, frame = 0
 634              		@ frame_needed = 0, uses_anonymous_args = 0
ARM GAS  /var/folders/7j/7n_15nxd0bx4q178nq7r8qsr0000gn/T//cc8hDKNO.s 			page 30


 658:open303/Source/DSPCode/fft4g.c ****     int j, nwh;
 635              		.loc 2 658 5 view .LVU250
 659:open303/Source/DSPCode/fft4g.c ****     double delta, x, y;
 636              		.loc 2 659 5 view .LVU251
 660:open303/Source/DSPCode/fft4g.c ****     
 637              		.loc 2 660 5 view .LVU252
 662:open303/Source/DSPCode/fft4g.c ****     ip[1] = 1;
 638              		.loc 2 662 5 view .LVU253
 663:open303/Source/DSPCode/fft4g.c ****     if (nw > 2) {
 639              		.loc 2 663 11 is_stmt 0 view .LVU254
 640 0000 0123     		movs	r3, #1
 664:open303/Source/DSPCode/fft4g.c ****         nwh = nw >> 1;
 641              		.loc 2 664 5 view .LVU255
 642 0002 0228     		cmp	r0, #2
 657:open303/Source/DSPCode/fft4g.c ****     void bitrv2(int n, int *ip, double *a);
 643              		.loc 2 657 1 view .LVU256
 644 0004 2DE9F047 		push	{r4, r5, r6, r7, r8, r9, r10, lr}
 645              		.cfi_def_cfa_offset 32
 646              		.cfi_offset 4, -32
 647              		.cfi_offset 5, -28
 648              		.cfi_offset 6, -24
 649              		.cfi_offset 7, -20
 650              		.cfi_offset 8, -16
 651              		.cfi_offset 9, -12
 652              		.cfi_offset 10, -8
 653              		.cfi_offset 14, -4
 654 0008 0546     		mov	r5, r0
 655 000a 8A46     		mov	r10, r1
 656 000c 1446     		mov	r4, r2
 657 000e 2DED068B 		vpush.64	{d8, d9, d10}
 658              		.cfi_def_cfa_offset 56
 659              		.cfi_offset 80, -56
 660              		.cfi_offset 81, -52
 661              		.cfi_offset 82, -48
 662              		.cfi_offset 83, -44
 663              		.cfi_offset 84, -40
 664              		.cfi_offset 85, -36
 662:open303/Source/DSPCode/fft4g.c ****     ip[1] = 1;
 665              		.loc 2 662 11 view .LVU257
 666 0012 0860     		str	r0, [r1]
 663:open303/Source/DSPCode/fft4g.c ****     if (nw > 2) {
 667              		.loc 2 663 5 is_stmt 1 view .LVU258
 663:open303/Source/DSPCode/fft4g.c ****     if (nw > 2) {
 668              		.loc 2 663 11 is_stmt 0 view .LVU259
 669 0014 4B60     		str	r3, [r1, #4]
 664:open303/Source/DSPCode/fft4g.c ****         nwh = nw >> 1;
 670              		.loc 2 664 5 is_stmt 1 view .LVU260
 671 0016 4ADD     		ble	.L23
 672              	.LVL75:
 673              	.LBB14:
 674              	.LBI14:
 656:open303/Source/DSPCode/fft4g.c **** {
 675              		.loc 2 656 6 view .LVU261
 676              	.LBB15:
 665:open303/Source/DSPCode/fft4g.c ****         delta = atan(1.0) / nwh;
 677              		.loc 2 665 9 view .LVU262
 665:open303/Source/DSPCode/fft4g.c ****         delta = atan(1.0) / nwh;
ARM GAS  /var/folders/7j/7n_15nxd0bx4q178nq7r8qsr0000gn/T//cc8hDKNO.s 			page 31


 678              		.loc 2 665 13 is_stmt 0 view .LVU263
 679 0018 40FA03F7 		asr	r7, r0, r3
 680              	.LVL76:
 666:open303/Source/DSPCode/fft4g.c ****         w[0] = 1;
 681              		.loc 2 666 9 is_stmt 1 view .LVU264
 667:open303/Source/DSPCode/fft4g.c ****         w[1] = 0;
 682              		.loc 2 667 14 is_stmt 0 view .LVU265
 683 001c 0022     		movs	r2, #0
 684              	.LVL77:
 667:open303/Source/DSPCode/fft4g.c ****         w[1] = 0;
 685              		.loc 2 667 14 view .LVU266
 686 001e 284B     		ldr	r3, .L29+8
 666:open303/Source/DSPCode/fft4g.c ****         w[0] = 1;
 687              		.loc 2 666 27 view .LVU267
 688 0020 07EE907A 		vmov	s15, r7	@ int
 689 0024 B8EEE70B 		vcvt.f64.s32	d0, s15
 666:open303/Source/DSPCode/fft4g.c ****         w[0] = 1;
 690              		.loc 2 666 15 view .LVU268
 691 0028 9FED237B 		vldr.64	d7, .L29
 667:open303/Source/DSPCode/fft4g.c ****         w[1] = 0;
 692              		.loc 2 667 14 view .LVU269
 693 002c C4E90023 		strd	r2, [r4]
 668:open303/Source/DSPCode/fft4g.c ****         w[nwh] = cos(delta * nwh);
 694              		.loc 2 668 14 view .LVU270
 695 0030 0023     		movs	r3, #0
 696 0032 0022     		movs	r2, #0
 666:open303/Source/DSPCode/fft4g.c ****         w[0] = 1;
 697              		.loc 2 666 15 view .LVU271
 698 0034 87EE00AB 		vdiv.f64	d10, d7, d0
 699              	.LVL78:
 667:open303/Source/DSPCode/fft4g.c ****         w[1] = 0;
 700              		.loc 2 667 9 is_stmt 1 view .LVU272
 668:open303/Source/DSPCode/fft4g.c ****         w[nwh] = cos(delta * nwh);
 701              		.loc 2 668 9 view .LVU273
 668:open303/Source/DSPCode/fft4g.c ****         w[nwh] = cos(delta * nwh);
 702              		.loc 2 668 14 is_stmt 0 view .LVU274
 703 0038 C4E90223 		strd	r2, [r4, #8]
 669:open303/Source/DSPCode/fft4g.c ****         w[nwh + 1] = w[nwh];
 704              		.loc 2 669 9 is_stmt 1 view .LVU275
 669:open303/Source/DSPCode/fft4g.c ****         w[nwh + 1] = w[nwh];
 705              		.loc 2 669 21 is_stmt 0 view .LVU276
 706 003c 20EE0A0B 		vmul.f64	d0, d0, d10
 707 0040 FFF7FEFF 		bl	cos
 708              	.LVL79:
 671:open303/Source/DSPCode/fft4g.c ****             for (j = 2; j < nwh; j += 2) {
 709              		.loc 2 671 9 view .LVU277
 710 0044 022F     		cmp	r7, #2
 669:open303/Source/DSPCode/fft4g.c ****         w[nwh + 1] = w[nwh];
 711              		.loc 2 669 16 discriminator 1 view .LVU278
 712 0046 04EBC703 		add	r3, r4, r7, lsl #3
 713 004a 83ED000B 		vstr.64	d0, [r3]
 670:open303/Source/DSPCode/fft4g.c ****         if (nwh > 2) {
 714              		.loc 2 670 9 is_stmt 1 view .LVU279
 670:open303/Source/DSPCode/fft4g.c ****         if (nwh > 2) {
 715              		.loc 2 670 20 is_stmt 0 view .LVU280
 716 004e 83ED020B 		vstr.64	d0, [r3, #8]
 671:open303/Source/DSPCode/fft4g.c ****             for (j = 2; j < nwh; j += 2) {
ARM GAS  /var/folders/7j/7n_15nxd0bx4q178nq7r8qsr0000gn/T//cc8hDKNO.s 			page 32


 717              		.loc 2 671 9 is_stmt 1 view .LVU281
 718 0052 2CDD     		ble	.L23
 719 0054 A146     		mov	r9, r4
 720 0056 04EBC508 		add	r8, r4, r5, lsl #3
 672:open303/Source/DSPCode/fft4g.c ****                 x = cos(delta * j);
 721              		.loc 2 672 20 is_stmt 0 view .LVU282
 722 005a 0226     		movs	r6, #2
 723              	.L27:
 724              	.LVL80:
 673:open303/Source/DSPCode/fft4g.c ****                 y = sin(delta * j);
 725              		.loc 2 673 17 is_stmt 1 view .LVU283
 673:open303/Source/DSPCode/fft4g.c ****                 y = sin(delta * j);
 726              		.loc 2 673 24 is_stmt 0 view .LVU284
 727 005c 07EE906A 		vmov	s15, r6	@ int
 672:open303/Source/DSPCode/fft4g.c ****                 x = cos(delta * j);
 728              		.loc 2 672 36 discriminator 3 view .LVU285
 729 0060 0236     		adds	r6, r6, #2
 730              	.LVL81:
 672:open303/Source/DSPCode/fft4g.c ****                 x = cos(delta * j);
 731              		.loc 2 672 27 discriminator 1 view .LVU286
 732 0062 09F11009 		add	r9, r9, #16
 733 0066 A8F11008 		sub	r8, r8, #16
 673:open303/Source/DSPCode/fft4g.c ****                 y = sin(delta * j);
 734              		.loc 2 673 24 view .LVU287
 735 006a B8EEE78B 		vcvt.f64.s32	d8, s15
 736 006e 28EE0A8B 		vmul.f64	d8, d8, d10
 737 0072 B0EE480B 		vmov.f64	d0, d8
 738 0076 FFF7FEFF 		bl	cos
 739              	.LVL82:
 673:open303/Source/DSPCode/fft4g.c ****                 y = sin(delta * j);
 740              		.loc 2 673 24 view .LVU288
 741 007a B0EE409B 		vmov.f64	d9, d0
 742              	.LVL83:
 674:open303/Source/DSPCode/fft4g.c ****                 w[j] = x;
 743              		.loc 2 674 17 is_stmt 1 view .LVU289
 674:open303/Source/DSPCode/fft4g.c ****                 w[j] = x;
 744              		.loc 2 674 24 is_stmt 0 view .LVU290
 745 007e B0EE480B 		vmov.f64	d0, d8
 746              	.LVL84:
 674:open303/Source/DSPCode/fft4g.c ****                 w[j] = x;
 747              		.loc 2 674 24 view .LVU291
 748 0082 FFF7FEFF 		bl	sin
 749              	.LVL85:
 675:open303/Source/DSPCode/fft4g.c ****                 w[j + 1] = y;
 750              		.loc 2 675 17 is_stmt 1 view .LVU292
 672:open303/Source/DSPCode/fft4g.c ****                 x = cos(delta * j);
 751              		.loc 2 672 27 is_stmt 0 discriminator 1 view .LVU293
 752 0086 B742     		cmp	r7, r6
 675:open303/Source/DSPCode/fft4g.c ****                 w[j + 1] = y;
 753              		.loc 2 675 22 view .LVU294
 754 0088 89ED009B 		vstr.64	d9, [r9]
 676:open303/Source/DSPCode/fft4g.c ****                 w[nw - j] = y;
 755              		.loc 2 676 17 is_stmt 1 view .LVU295
 676:open303/Source/DSPCode/fft4g.c ****                 w[nw - j] = y;
 756              		.loc 2 676 26 is_stmt 0 view .LVU296
 757 008c 89ED020B 		vstr.64	d0, [r9, #8]
 677:open303/Source/DSPCode/fft4g.c ****                 w[nw - j + 1] = x;
ARM GAS  /var/folders/7j/7n_15nxd0bx4q178nq7r8qsr0000gn/T//cc8hDKNO.s 			page 33


 758              		.loc 2 677 17 is_stmt 1 view .LVU297
 677:open303/Source/DSPCode/fft4g.c ****                 w[nw - j + 1] = x;
 759              		.loc 2 677 27 is_stmt 0 view .LVU298
 760 0090 88ED000B 		vstr.64	d0, [r8]
 678:open303/Source/DSPCode/fft4g.c ****             }
 761              		.loc 2 678 17 is_stmt 1 view .LVU299
 678:open303/Source/DSPCode/fft4g.c ****             }
 762              		.loc 2 678 31 is_stmt 0 view .LVU300
 763 0094 88ED029B 		vstr.64	d9, [r8, #8]
 672:open303/Source/DSPCode/fft4g.c ****                 x = cos(delta * j);
 764              		.loc 2 672 13 is_stmt 1 discriminator 3 view .LVU301
 765              	.LVL86:
 672:open303/Source/DSPCode/fft4g.c ****                 x = cos(delta * j);
 766              		.loc 2 672 27 discriminator 1 view .LVU302
 767 0098 E0DC     		bgt	.L27
 680:open303/Source/DSPCode/fft4g.c ****         }
 768              		.loc 2 680 13 view .LVU303
 680:open303/Source/DSPCode/fft4g.c ****         }
 769              		.loc 2 680 19 is_stmt 0 view .LVU304
 770 009a 2246     		mov	r2, r4
 771 009c 0AF10801 		add	r1, r10, #8
 772 00a0 2846     		mov	r0, r5
 773              	.LBE15:
 774              	.LBE14:
 683:open303/Source/DSPCode/fft4g.c **** 
 775              		.loc 2 683 1 view .LVU305
 776 00a2 BDEC068B 		vldm	sp!, {d8-d10}
 777              		.cfi_remember_state
 778              		.cfi_restore 84
 779              		.cfi_restore 85
 780              		.cfi_restore 82
 781              		.cfi_restore 83
 782              		.cfi_restore 80
 783              		.cfi_restore 81
 784              		.cfi_def_cfa_offset 32
 785              	.LVL87:
 683:open303/Source/DSPCode/fft4g.c **** 
 786              		.loc 2 683 1 view .LVU306
 787 00a6 BDE8F047 		pop	{r4, r5, r6, r7, r8, r9, r10, lr}
 788              		.cfi_restore 14
 789              		.cfi_restore 10
 790              		.cfi_restore 9
 791              		.cfi_restore 8
 792              		.cfi_restore 7
 793              		.cfi_restore 6
 794              		.cfi_restore 5
 795              		.cfi_restore 4
 796              		.cfi_def_cfa_offset 0
 797              	.LVL88:
 798              	.LBB17:
 799              	.LBB16:
 680:open303/Source/DSPCode/fft4g.c ****         }
 800              		.loc 2 680 19 view .LVU307
 801 00aa FFF7FEBF 		b	_Z6bitrv2iPiPd
 802              	.LVL89:
 803              	.L23:
 804              		.cfi_restore_state
ARM GAS  /var/folders/7j/7n_15nxd0bx4q178nq7r8qsr0000gn/T//cc8hDKNO.s 			page 34


 680:open303/Source/DSPCode/fft4g.c ****         }
 805              		.loc 2 680 19 view .LVU308
 806              	.LBE16:
 807              	.LBE17:
 683:open303/Source/DSPCode/fft4g.c **** 
 808              		.loc 2 683 1 view .LVU309
 809 00ae BDEC068B 		vldm	sp!, {d8-d10}
 810              		.cfi_restore 84
 811              		.cfi_restore 85
 812              		.cfi_restore 82
 813              		.cfi_restore 83
 814              		.cfi_restore 80
 815              		.cfi_restore 81
 816              		.cfi_def_cfa_offset 32
 817 00b2 BDE8F087 		pop	{r4, r5, r6, r7, r8, r9, r10, pc}
 818              	.LVL90:
 819              	.L30:
 683:open303/Source/DSPCode/fft4g.c **** 
 820              		.loc 2 683 1 view .LVU310
 821 00b6 00BF     		.align	3
 822              	.L29:
 823 00b8 182D4454 		.word	1413754136
 824 00bc FB21E93F 		.word	1072243195
 825 00c0 0000F03F 		.word	1072693248
 826              		.cfi_endproc
 827              	.LFE647:
 829              		.section	.text._Z10bitrv2conjiPiPd,"ax",%progbits
 830              		.align	1
 831              		.global	_Z10bitrv2conjiPiPd
 832              		.syntax unified
 833              		.thumb
 834              		.thumb_func
 836              	_Z10bitrv2conjiPiPd:
 837              	.LVL91:
 838              	.LFB650:
 806:open303/Source/DSPCode/fft4g.c **** 
 807:open303/Source/DSPCode/fft4g.c **** 
 808:open303/Source/DSPCode/fft4g.c **** void bitrv2conj(int n, int *ip, double *a)
 809:open303/Source/DSPCode/fft4g.c **** {
 839              		.loc 2 809 1 is_stmt 1 view -0
 840              		.cfi_startproc
 841              		@ args = 0, pretend = 0, frame = 8
 842              		@ frame_needed = 0, uses_anonymous_args = 0
 810:open303/Source/DSPCode/fft4g.c ****     int j, j1, k, k1, l, m, m2;
 843              		.loc 2 810 5 view .LVU312
 811:open303/Source/DSPCode/fft4g.c ****     double xr, xi, yr, yi;
 844              		.loc 2 811 5 view .LVU313
 812:open303/Source/DSPCode/fft4g.c ****     
 813:open303/Source/DSPCode/fft4g.c ****     ip[0] = 0;
 845              		.loc 2 813 5 view .LVU314
 809:open303/Source/DSPCode/fft4g.c ****     int j, j1, k, k1, l, m, m2;
 846              		.loc 2 809 1 is_stmt 0 view .LVU315
 847 0000 2DE9F74F 		push	{r0, r1, r2, r4, r5, r6, r7, r8, r9, r10, fp, lr}
 848              		.cfi_def_cfa_offset 48
 849              		.cfi_offset 4, -36
 850              		.cfi_offset 5, -32
 851              		.cfi_offset 6, -28
ARM GAS  /var/folders/7j/7n_15nxd0bx4q178nq7r8qsr0000gn/T//cc8hDKNO.s 			page 35


 852              		.cfi_offset 7, -24
 853              		.cfi_offset 8, -20
 854              		.cfi_offset 9, -16
 855              		.cfi_offset 10, -12
 856              		.cfi_offset 11, -8
 857              		.cfi_offset 14, -4
 858              		.loc 2 813 11 view .LVU316
 859 0004 0023     		movs	r3, #0
 814:open303/Source/DSPCode/fft4g.c ****     l = n;
 815:open303/Source/DSPCode/fft4g.c ****     m = 1;
 860              		.loc 2 815 7 view .LVU317
 861 0006 0125     		movs	r5, #1
 813:open303/Source/DSPCode/fft4g.c ****     l = n;
 862              		.loc 2 813 11 view .LVU318
 863 0008 0B60     		str	r3, [r1]
 814:open303/Source/DSPCode/fft4g.c ****     l = n;
 864              		.loc 2 814 5 is_stmt 1 view .LVU319
 865              	.LVL92:
 866              		.loc 2 815 5 view .LVU320
 816:open303/Source/DSPCode/fft4g.c ****     while ((m << 3) < l) {
 867              		.loc 2 816 5 view .LVU321
 868              	.L32:
 869              		.loc 2 816 21 view .LVU322
 870              		.loc 2 816 15 is_stmt 0 view .LVU323
 871 000a EB00     		lsls	r3, r5, #3
 872              		.loc 2 816 21 view .LVU324
 873 000c 8342     		cmp	r3, r0
 874 000e 0DDB     		blt	.L35
 817:open303/Source/DSPCode/fft4g.c ****         l >>= 1;
 818:open303/Source/DSPCode/fft4g.c ****         for (j = 0; j < m; j++) {
 819:open303/Source/DSPCode/fft4g.c ****             ip[m + j] = ip[j] + l;
 820:open303/Source/DSPCode/fft4g.c ****         }
 821:open303/Source/DSPCode/fft4g.c ****         m <<= 1;
 822:open303/Source/DSPCode/fft4g.c ****     }
 823:open303/Source/DSPCode/fft4g.c ****     m2 = 2 * m;
 875              		.loc 2 823 5 is_stmt 1 view .LVU325
 876              		.loc 2 823 8 is_stmt 0 view .LVU326
 877 0010 4FEA4500 		lsl	r0, r5, #1
 878              	.LVL93:
 824:open303/Source/DSPCode/fft4g.c ****     if ((m << 3) == l) {
 879              		.loc 2 824 5 is_stmt 1 view .LVU327
 880 0014 40F0BB80 		bne	.L36
 825:open303/Source/DSPCode/fft4g.c ****         for (k = 0; k < m; k++) {
 826:open303/Source/DSPCode/fft4g.c ****             for (j = 0; j < k; j++) {
 827:open303/Source/DSPCode/fft4g.c ****                 j1 = 2 * j + ip[k];
 828:open303/Source/DSPCode/fft4g.c ****                 k1 = 2 * k + ip[j];
 829:open303/Source/DSPCode/fft4g.c ****                 xr = a[j1];
 830:open303/Source/DSPCode/fft4g.c ****                 xi = -a[j1 + 1];
 831:open303/Source/DSPCode/fft4g.c ****                 yr = a[k1];
 832:open303/Source/DSPCode/fft4g.c ****                 yi = -a[k1 + 1];
 833:open303/Source/DSPCode/fft4g.c ****                 a[j1] = yr;
 834:open303/Source/DSPCode/fft4g.c ****                 a[j1 + 1] = yi;
 835:open303/Source/DSPCode/fft4g.c ****                 a[k1] = xr;
 836:open303/Source/DSPCode/fft4g.c ****                 a[k1 + 1] = xi;
 837:open303/Source/DSPCode/fft4g.c ****                 j1 += m2;
 838:open303/Source/DSPCode/fft4g.c ****                 k1 += 2 * m2;
 881              		.loc 2 838 25 is_stmt 0 view .LVU328
ARM GAS  /var/folders/7j/7n_15nxd0bx4q178nq7r8qsr0000gn/T//cc8hDKNO.s 			page 36


 882 0018 AE00     		lsls	r6, r5, #2
 825:open303/Source/DSPCode/fft4g.c ****         for (k = 0; k < m; k++) {
 883              		.loc 2 825 16 view .LVU329
 884 001a 0024     		movs	r4, #0
 885              	.L37:
 886              	.LVL94:
 825:open303/Source/DSPCode/fft4g.c ****         for (k = 0; k < m; k++) {
 887              		.loc 2 825 23 is_stmt 1 discriminator 1 view .LVU330
 888 001c AC42     		cmp	r4, r5
 889 001e 80F2CA80 		bge	.L31
 890 0022 4FEA440E 		lsl	lr, r4, #1
 826:open303/Source/DSPCode/fft4g.c ****                 j1 = 2 * j + ip[k];
 891              		.loc 2 826 20 is_stmt 0 view .LVU331
 892 0026 4FF0000C 		mov	ip, #0
 893 002a 7BE0     		b	.L40
 894              	.LVL95:
 895              	.L35:
 817:open303/Source/DSPCode/fft4g.c ****         for (j = 0; j < m; j++) {
 896              		.loc 2 817 9 is_stmt 1 view .LVU332
 817:open303/Source/DSPCode/fft4g.c ****         for (j = 0; j < m; j++) {
 897              		.loc 2 817 11 is_stmt 0 view .LVU333
 898 002c 4010     		asrs	r0, r0, #1
 899              	.LVL96:
 818:open303/Source/DSPCode/fft4g.c ****             ip[m + j] = ip[j] + l;
 900              		.loc 2 818 9 is_stmt 1 view .LVU334
 818:open303/Source/DSPCode/fft4g.c ****             ip[m + j] = ip[j] + l;
 901              		.loc 2 818 16 is_stmt 0 view .LVU335
 902 002e 0023     		movs	r3, #0
 903 0030 01EB8506 		add	r6, r1, r5, lsl #2
 904              	.LVL97:
 905              	.L33:
 818:open303/Source/DSPCode/fft4g.c ****             ip[m + j] = ip[j] + l;
 906              		.loc 2 818 23 is_stmt 1 discriminator 1 view .LVU336
 907 0034 AB42     		cmp	r3, r5
 908 0036 01DB     		blt	.L34
 821:open303/Source/DSPCode/fft4g.c ****     }
 909              		.loc 2 821 9 view .LVU337
 821:open303/Source/DSPCode/fft4g.c ****     }
 910              		.loc 2 821 11 is_stmt 0 view .LVU338
 911 0038 6D00     		lsls	r5, r5, #1
 912              	.LVL98:
 821:open303/Source/DSPCode/fft4g.c ****     }
 913              		.loc 2 821 11 view .LVU339
 914 003a E6E7     		b	.L32
 915              	.LVL99:
 916              	.L34:
 819:open303/Source/DSPCode/fft4g.c ****         }
 917              		.loc 2 819 13 is_stmt 1 view .LVU340
 819:open303/Source/DSPCode/fft4g.c ****         }
 918              		.loc 2 819 31 is_stmt 0 view .LVU341
 919 003c 51F82340 		ldr	r4, [r1, r3, lsl #2]
 818:open303/Source/DSPCode/fft4g.c ****             ip[m + j] = ip[j] + l;
 920              		.loc 2 818 9 discriminator 3 view .LVU342
 921 0040 0133     		adds	r3, r3, #1
 922              	.LVL100:
 819:open303/Source/DSPCode/fft4g.c ****         }
 923              		.loc 2 819 31 view .LVU343
ARM GAS  /var/folders/7j/7n_15nxd0bx4q178nq7r8qsr0000gn/T//cc8hDKNO.s 			page 37


 924 0042 0444     		add	r4, r4, r0
 819:open303/Source/DSPCode/fft4g.c ****         }
 925              		.loc 2 819 23 view .LVU344
 926 0044 46F8044B 		str	r4, [r6], #4
 818:open303/Source/DSPCode/fft4g.c ****             ip[m + j] = ip[j] + l;
 927              		.loc 2 818 9 is_stmt 1 discriminator 3 view .LVU345
 928 0048 F4E7     		b	.L33
 929              	.LVL101:
 930              	.L38:
 827:open303/Source/DSPCode/fft4g.c ****                 k1 = 2 * k + ip[j];
 931              		.loc 2 827 17 view .LVU346
 828:open303/Source/DSPCode/fft4g.c ****                 xr = a[j1];
 932              		.loc 2 828 20 is_stmt 0 view .LVU347
 933 004a 51F82C70 		ldr	r7, [r1, ip, lsl #2]
 827:open303/Source/DSPCode/fft4g.c ****                 k1 = 2 * k + ip[j];
 934              		.loc 2 827 20 view .LVU348
 935 004e 03EB4C03 		add	r3, r3, ip, lsl #1
 936              	.LVL102:
 828:open303/Source/DSPCode/fft4g.c ****                 xr = a[j1];
 937              		.loc 2 828 17 is_stmt 1 view .LVU349
 826:open303/Source/DSPCode/fft4g.c ****                 j1 = 2 * j + ip[k];
 938              		.loc 2 826 13 is_stmt 0 discriminator 3 view .LVU350
 939 0052 0CF1010C 		add	ip, ip, #1
 828:open303/Source/DSPCode/fft4g.c ****                 xr = a[j1];
 940              		.loc 2 828 20 view .LVU351
 941 0056 7744     		add	r7, r7, lr
 942              	.LVL103:
 829:open303/Source/DSPCode/fft4g.c ****                 xi = -a[j1 + 1];
 943              		.loc 2 829 17 is_stmt 1 view .LVU352
 829:open303/Source/DSPCode/fft4g.c ****                 xi = -a[j1 + 1];
 944              		.loc 2 829 26 is_stmt 0 view .LVU353
 945 0058 02EBC30B 		add	fp, r2, r3, lsl #3
 837:open303/Source/DSPCode/fft4g.c ****                 k1 += 2 * m2;
 946              		.loc 2 837 20 view .LVU354
 947 005c 0344     		add	r3, r3, r0
 948              	.LVL104:
 831:open303/Source/DSPCode/fft4g.c ****                 yi = -a[k1 + 1];
 949              		.loc 2 831 26 view .LVU355
 950 005e 02EBC709 		add	r9, r2, r7, lsl #3
 951              		.loc 2 838 20 view .LVU356
 952 0062 3744     		add	r7, r7, r6
 953              	.LVL105:
 830:open303/Source/DSPCode/fft4g.c ****                 yr = a[k1];
 954              		.loc 2 830 20 view .LVU357
 955 0064 9BED027B 		vldr.64	d7, [fp, #8]
 832:open303/Source/DSPCode/fft4g.c ****                 a[j1] = yr;
 956              		.loc 2 832 20 view .LVU358
 957 0068 99ED026B 		vldr.64	d6, [r9, #8]
 829:open303/Source/DSPCode/fft4g.c ****                 xi = -a[j1 + 1];
 958              		.loc 2 829 20 view .LVU359
 959 006c 9BED005B 		vldr.64	d5, [fp]
 960              	.LVL106:
 830:open303/Source/DSPCode/fft4g.c ****                 yr = a[k1];
 961              		.loc 2 830 17 is_stmt 1 view .LVU360
 831:open303/Source/DSPCode/fft4g.c ****                 yi = -a[k1 + 1];
 962              		.loc 2 831 20 is_stmt 0 view .LVU361
 963 0070 99ED004B 		vldr.64	d4, [r9]
ARM GAS  /var/folders/7j/7n_15nxd0bx4q178nq7r8qsr0000gn/T//cc8hDKNO.s 			page 38


 830:open303/Source/DSPCode/fft4g.c ****                 yr = a[k1];
 964              		.loc 2 830 20 view .LVU362
 965 0074 B1EE477B 		vneg.f64	d7, d7
 966              	.LVL107:
 831:open303/Source/DSPCode/fft4g.c ****                 yi = -a[k1 + 1];
 967              		.loc 2 831 17 is_stmt 1 view .LVU363
 832:open303/Source/DSPCode/fft4g.c ****                 a[j1] = yr;
 968              		.loc 2 832 17 view .LVU364
 832:open303/Source/DSPCode/fft4g.c ****                 a[j1] = yr;
 969              		.loc 2 832 20 is_stmt 0 view .LVU365
 970 0078 B1EE466B 		vneg.f64	d6, d6
 971              	.LVL108:
 833:open303/Source/DSPCode/fft4g.c ****                 a[j1 + 1] = yi;
 972              		.loc 2 833 17 is_stmt 1 view .LVU366
 833:open303/Source/DSPCode/fft4g.c ****                 a[j1 + 1] = yi;
 973              		.loc 2 833 23 is_stmt 0 view .LVU367
 974 007c 8BED004B 		vstr.64	d4, [fp]
 834:open303/Source/DSPCode/fft4g.c ****                 a[k1] = xr;
 975              		.loc 2 834 17 is_stmt 1 view .LVU368
 834:open303/Source/DSPCode/fft4g.c ****                 a[k1] = xr;
 976              		.loc 2 834 27 is_stmt 0 view .LVU369
 977 0080 8BED026B 		vstr.64	d6, [fp, #8]
 835:open303/Source/DSPCode/fft4g.c ****                 a[k1 + 1] = xi;
 978              		.loc 2 835 17 is_stmt 1 view .LVU370
 835:open303/Source/DSPCode/fft4g.c ****                 a[k1 + 1] = xi;
 979              		.loc 2 835 23 is_stmt 0 view .LVU371
 980 0084 89ED005B 		vstr.64	d5, [r9]
 836:open303/Source/DSPCode/fft4g.c ****                 j1 += m2;
 981              		.loc 2 836 17 is_stmt 1 view .LVU372
 836:open303/Source/DSPCode/fft4g.c ****                 j1 += m2;
 982              		.loc 2 836 27 is_stmt 0 view .LVU373
 983 0088 89ED027B 		vstr.64	d7, [r9, #8]
 837:open303/Source/DSPCode/fft4g.c ****                 k1 += 2 * m2;
 984              		.loc 2 837 17 is_stmt 1 view .LVU374
 985              	.LVL109:
 986              		.loc 2 838 17 view .LVU375
 839:open303/Source/DSPCode/fft4g.c ****                 xr = a[j1];
 987              		.loc 2 839 17 view .LVU376
 988              		.loc 2 839 26 is_stmt 0 view .LVU377
 989 008c 02EBC30B 		add	fp, r2, r3, lsl #3
 840:open303/Source/DSPCode/fft4g.c ****                 xi = -a[j1 + 1];
 841:open303/Source/DSPCode/fft4g.c ****                 yr = a[k1];
 842:open303/Source/DSPCode/fft4g.c ****                 yi = -a[k1 + 1];
 843:open303/Source/DSPCode/fft4g.c ****                 a[j1] = yr;
 844:open303/Source/DSPCode/fft4g.c ****                 a[j1 + 1] = yi;
 845:open303/Source/DSPCode/fft4g.c ****                 a[k1] = xr;
 846:open303/Source/DSPCode/fft4g.c ****                 a[k1 + 1] = xi;
 847:open303/Source/DSPCode/fft4g.c ****                 j1 += m2;
 990              		.loc 2 847 20 view .LVU378
 991 0090 0344     		add	r3, r3, r0
 992              	.LVL110:
 841:open303/Source/DSPCode/fft4g.c ****                 yi = -a[k1 + 1];
 993              		.loc 2 841 26 view .LVU379
 994 0092 02EBC709 		add	r9, r2, r7, lsl #3
 848:open303/Source/DSPCode/fft4g.c ****                 k1 -= m2;
 995              		.loc 2 848 20 view .LVU380
 996 0096 3F1A     		subs	r7, r7, r0
ARM GAS  /var/folders/7j/7n_15nxd0bx4q178nq7r8qsr0000gn/T//cc8hDKNO.s 			page 39


 997              	.LVL111:
 840:open303/Source/DSPCode/fft4g.c ****                 xi = -a[j1 + 1];
 998              		.loc 2 840 20 view .LVU381
 999 0098 9BED027B 		vldr.64	d7, [fp, #8]
 1000              	.LVL112:
 842:open303/Source/DSPCode/fft4g.c ****                 a[j1] = yr;
 1001              		.loc 2 842 20 view .LVU382
 1002 009c 99ED026B 		vldr.64	d6, [r9, #8]
 1003              	.LVL113:
 839:open303/Source/DSPCode/fft4g.c ****                 xi = -a[j1 + 1];
 1004              		.loc 2 839 20 view .LVU383
 1005 00a0 9BED005B 		vldr.64	d5, [fp]
 1006              	.LVL114:
 840:open303/Source/DSPCode/fft4g.c ****                 yr = a[k1];
 1007              		.loc 2 840 17 is_stmt 1 view .LVU384
 841:open303/Source/DSPCode/fft4g.c ****                 yi = -a[k1 + 1];
 1008              		.loc 2 841 20 is_stmt 0 view .LVU385
 1009 00a4 99ED004B 		vldr.64	d4, [r9]
 1010              	.LVL115:
 840:open303/Source/DSPCode/fft4g.c ****                 yr = a[k1];
 1011              		.loc 2 840 20 view .LVU386
 1012 00a8 B1EE477B 		vneg.f64	d7, d7
 1013              	.LVL116:
 841:open303/Source/DSPCode/fft4g.c ****                 yi = -a[k1 + 1];
 1014              		.loc 2 841 17 is_stmt 1 view .LVU387
 842:open303/Source/DSPCode/fft4g.c ****                 a[j1] = yr;
 1015              		.loc 2 842 17 view .LVU388
 842:open303/Source/DSPCode/fft4g.c ****                 a[j1] = yr;
 1016              		.loc 2 842 20 is_stmt 0 view .LVU389
 1017 00ac B1EE466B 		vneg.f64	d6, d6
 1018              	.LVL117:
 843:open303/Source/DSPCode/fft4g.c ****                 a[j1 + 1] = yi;
 1019              		.loc 2 843 17 is_stmt 1 view .LVU390
 843:open303/Source/DSPCode/fft4g.c ****                 a[j1 + 1] = yi;
 1020              		.loc 2 843 23 is_stmt 0 view .LVU391
 1021 00b0 8BED004B 		vstr.64	d4, [fp]
 844:open303/Source/DSPCode/fft4g.c ****                 a[k1] = xr;
 1022              		.loc 2 844 17 is_stmt 1 view .LVU392
 844:open303/Source/DSPCode/fft4g.c ****                 a[k1] = xr;
 1023              		.loc 2 844 27 is_stmt 0 view .LVU393
 1024 00b4 8BED026B 		vstr.64	d6, [fp, #8]
 845:open303/Source/DSPCode/fft4g.c ****                 a[k1 + 1] = xi;
 1025              		.loc 2 845 17 is_stmt 1 view .LVU394
 845:open303/Source/DSPCode/fft4g.c ****                 a[k1 + 1] = xi;
 1026              		.loc 2 845 23 is_stmt 0 view .LVU395
 1027 00b8 89ED005B 		vstr.64	d5, [r9]
 846:open303/Source/DSPCode/fft4g.c ****                 j1 += m2;
 1028              		.loc 2 846 17 is_stmt 1 view .LVU396
 846:open303/Source/DSPCode/fft4g.c ****                 j1 += m2;
 1029              		.loc 2 846 27 is_stmt 0 view .LVU397
 1030 00bc 89ED027B 		vstr.64	d7, [r9, #8]
 847:open303/Source/DSPCode/fft4g.c ****                 k1 -= m2;
 1031              		.loc 2 847 17 is_stmt 1 view .LVU398
 1032              	.LVL118:
 1033              		.loc 2 848 17 view .LVU399
 849:open303/Source/DSPCode/fft4g.c ****                 xr = a[j1];
 1034              		.loc 2 849 17 view .LVU400
ARM GAS  /var/folders/7j/7n_15nxd0bx4q178nq7r8qsr0000gn/T//cc8hDKNO.s 			page 40


 1035              		.loc 2 849 26 is_stmt 0 view .LVU401
 1036 00c0 02EBC30B 		add	fp, r2, r3, lsl #3
 850:open303/Source/DSPCode/fft4g.c ****                 xi = -a[j1 + 1];
 851:open303/Source/DSPCode/fft4g.c ****                 yr = a[k1];
 852:open303/Source/DSPCode/fft4g.c ****                 yi = -a[k1 + 1];
 853:open303/Source/DSPCode/fft4g.c ****                 a[j1] = yr;
 854:open303/Source/DSPCode/fft4g.c ****                 a[j1 + 1] = yi;
 855:open303/Source/DSPCode/fft4g.c ****                 a[k1] = xr;
 856:open303/Source/DSPCode/fft4g.c ****                 a[k1 + 1] = xi;
 857:open303/Source/DSPCode/fft4g.c ****                 j1 += m2;
 1037              		.loc 2 857 20 view .LVU402
 1038 00c4 0344     		add	r3, r3, r0
 1039              	.LVL119:
 851:open303/Source/DSPCode/fft4g.c ****                 yi = -a[k1 + 1];
 1040              		.loc 2 851 26 view .LVU403
 1041 00c6 02EBC709 		add	r9, r2, r7, lsl #3
 858:open303/Source/DSPCode/fft4g.c ****                 k1 += 2 * m2;
 1042              		.loc 2 858 20 view .LVU404
 1043 00ca 3744     		add	r7, r7, r6
 1044              	.LVL120:
 859:open303/Source/DSPCode/fft4g.c ****                 xr = a[j1];
 1045              		.loc 2 859 26 view .LVU405
 1046 00cc 02EBC308 		add	r8, r2, r3, lsl #3
 850:open303/Source/DSPCode/fft4g.c ****                 yr = a[k1];
 1047              		.loc 2 850 20 view .LVU406
 1048 00d0 9BED027B 		vldr.64	d7, [fp, #8]
 1049              	.LVL121:
 852:open303/Source/DSPCode/fft4g.c ****                 a[j1] = yr;
 1050              		.loc 2 852 20 view .LVU407
 1051 00d4 99ED026B 		vldr.64	d6, [r9, #8]
 1052              	.LVL122:
 849:open303/Source/DSPCode/fft4g.c ****                 xi = -a[j1 + 1];
 1053              		.loc 2 849 20 view .LVU408
 1054 00d8 9BED005B 		vldr.64	d5, [fp]
 1055              	.LVL123:
 850:open303/Source/DSPCode/fft4g.c ****                 yr = a[k1];
 1056              		.loc 2 850 17 is_stmt 1 view .LVU409
 851:open303/Source/DSPCode/fft4g.c ****                 yi = -a[k1 + 1];
 1057              		.loc 2 851 20 is_stmt 0 view .LVU410
 1058 00dc 99ED004B 		vldr.64	d4, [r9]
 1059              	.LVL124:
 850:open303/Source/DSPCode/fft4g.c ****                 yr = a[k1];
 1060              		.loc 2 850 20 view .LVU411
 1061 00e0 B1EE477B 		vneg.f64	d7, d7
 1062              	.LVL125:
 851:open303/Source/DSPCode/fft4g.c ****                 yi = -a[k1 + 1];
 1063              		.loc 2 851 17 is_stmt 1 view .LVU412
 852:open303/Source/DSPCode/fft4g.c ****                 a[j1] = yr;
 1064              		.loc 2 852 17 view .LVU413
 852:open303/Source/DSPCode/fft4g.c ****                 a[j1] = yr;
 1065              		.loc 2 852 20 is_stmt 0 view .LVU414
 1066 00e4 B1EE466B 		vneg.f64	d6, d6
 1067              	.LVL126:
 853:open303/Source/DSPCode/fft4g.c ****                 a[j1 + 1] = yi;
 1068              		.loc 2 853 17 is_stmt 1 view .LVU415
 853:open303/Source/DSPCode/fft4g.c ****                 a[j1 + 1] = yi;
 1069              		.loc 2 853 23 is_stmt 0 view .LVU416
ARM GAS  /var/folders/7j/7n_15nxd0bx4q178nq7r8qsr0000gn/T//cc8hDKNO.s 			page 41


 1070 00e8 8BED004B 		vstr.64	d4, [fp]
 854:open303/Source/DSPCode/fft4g.c ****                 a[k1] = xr;
 1071              		.loc 2 854 17 is_stmt 1 view .LVU417
 854:open303/Source/DSPCode/fft4g.c ****                 a[k1] = xr;
 1072              		.loc 2 854 27 is_stmt 0 view .LVU418
 1073 00ec 8BED026B 		vstr.64	d6, [fp, #8]
 855:open303/Source/DSPCode/fft4g.c ****                 a[k1 + 1] = xi;
 1074              		.loc 2 855 17 is_stmt 1 view .LVU419
 855:open303/Source/DSPCode/fft4g.c ****                 a[k1 + 1] = xi;
 1075              		.loc 2 855 23 is_stmt 0 view .LVU420
 1076 00f0 89ED005B 		vstr.64	d5, [r9]
 856:open303/Source/DSPCode/fft4g.c ****                 j1 += m2;
 1077              		.loc 2 856 17 is_stmt 1 view .LVU421
 856:open303/Source/DSPCode/fft4g.c ****                 j1 += m2;
 1078              		.loc 2 856 27 is_stmt 0 view .LVU422
 1079 00f4 89ED027B 		vstr.64	d7, [r9, #8]
 857:open303/Source/DSPCode/fft4g.c ****                 k1 += 2 * m2;
 1080              		.loc 2 857 17 is_stmt 1 view .LVU423
 1081              	.LVL127:
 858:open303/Source/DSPCode/fft4g.c ****                 xr = a[j1];
 1082              		.loc 2 858 17 view .LVU424
 1083              		.loc 2 859 17 view .LVU425
 860:open303/Source/DSPCode/fft4g.c ****                 xi = -a[j1 + 1];
 861:open303/Source/DSPCode/fft4g.c ****                 yr = a[k1];
 1084              		.loc 2 861 26 is_stmt 0 view .LVU426
 1085 00f8 02EBC709 		add	r9, r2, r7, lsl #3
 860:open303/Source/DSPCode/fft4g.c ****                 xi = -a[j1 + 1];
 1086              		.loc 2 860 20 view .LVU427
 1087 00fc 98ED027B 		vldr.64	d7, [r8, #8]
 1088              	.LVL128:
 862:open303/Source/DSPCode/fft4g.c ****                 yi = -a[k1 + 1];
 1089              		.loc 2 862 20 view .LVU428
 1090 0100 99ED026B 		vldr.64	d6, [r9, #8]
 1091              	.LVL129:
 861:open303/Source/DSPCode/fft4g.c ****                 yi = -a[k1 + 1];
 1092              		.loc 2 861 20 view .LVU429
 1093 0104 99ED005B 		vldr.64	d5, [r9]
 1094              	.LVL130:
 860:open303/Source/DSPCode/fft4g.c ****                 xi = -a[j1 + 1];
 1095              		.loc 2 860 20 view .LVU430
 1096 0108 B1EE477B 		vneg.f64	d7, d7
 1097              		.loc 2 862 20 view .LVU431
 1098 010c B1EE466B 		vneg.f64	d6, d6
 859:open303/Source/DSPCode/fft4g.c ****                 xi = -a[j1 + 1];
 1099              		.loc 2 859 20 view .LVU432
 1100 0110 D8E900AB 		ldrd	r10, [r8]
 1101              	.LVL131:
 860:open303/Source/DSPCode/fft4g.c ****                 yr = a[k1];
 1102              		.loc 2 860 17 is_stmt 1 view .LVU433
 861:open303/Source/DSPCode/fft4g.c ****                 yi = -a[k1 + 1];
 1103              		.loc 2 861 17 view .LVU434
 1104              		.loc 2 862 17 view .LVU435
 863:open303/Source/DSPCode/fft4g.c ****                 a[j1] = yr;
 1105              		.loc 2 863 17 view .LVU436
 864:open303/Source/DSPCode/fft4g.c ****                 a[j1 + 1] = yi;
 1106              		.loc 2 864 27 is_stmt 0 view .LVU437
 1107 0114 88ED026B 		vstr.64	d6, [r8, #8]
ARM GAS  /var/folders/7j/7n_15nxd0bx4q178nq7r8qsr0000gn/T//cc8hDKNO.s 			page 42


 863:open303/Source/DSPCode/fft4g.c ****                 a[j1] = yr;
 1108              		.loc 2 863 23 view .LVU438
 1109 0118 88ED005B 		vstr.64	d5, [r8]
 1110              		.loc 2 864 17 is_stmt 1 view .LVU439
 865:open303/Source/DSPCode/fft4g.c ****                 a[k1] = xr;
 1111              		.loc 2 865 17 view .LVU440
 1112              		.loc 2 865 23 is_stmt 0 view .LVU441
 1113 011c C9E900AB 		strd	r10, [r9]
 866:open303/Source/DSPCode/fft4g.c ****                 a[k1 + 1] = xi;
 1114              		.loc 2 866 17 is_stmt 1 view .LVU442
 1115              		.loc 2 866 27 is_stmt 0 view .LVU443
 1116 0120 89ED027B 		vstr.64	d7, [r9, #8]
 826:open303/Source/DSPCode/fft4g.c ****                 j1 = 2 * j + ip[k];
 1117              		.loc 2 826 13 is_stmt 1 discriminator 3 view .LVU444
 1118              	.LVL132:
 1119              	.L40:
 826:open303/Source/DSPCode/fft4g.c ****                 j1 = 2 * j + ip[k];
 1120              		.loc 2 826 27 discriminator 1 view .LVU445
 1121 0124 A445     		cmp	ip, r4
 1122 0126 51F82430 		ldr	r3, [r1, r4, lsl #2]
 1123 012a 8ED1     		bne	.L38
 867:open303/Source/DSPCode/fft4g.c ****             }
 868:open303/Source/DSPCode/fft4g.c ****             k1 = 2 * k + ip[k];
 1124              		.loc 2 868 13 view .LVU446
 1125              		.loc 2 868 16 is_stmt 0 view .LVU447
 1126 012c 7344     		add	r3, r3, lr
 1127              	.LVL133:
 869:open303/Source/DSPCode/fft4g.c ****             a[k1 + 1] = -a[k1 + 1];
 1128              		.loc 2 869 13 is_stmt 1 view .LVU448
 825:open303/Source/DSPCode/fft4g.c ****             for (j = 0; j < k; j++) {
 1129              		.loc 2 825 9 is_stmt 0 discriminator 2 view .LVU449
 1130 012e 0134     		adds	r4, r4, #1
 1131              	.LVL134:
 1132              		.loc 2 869 31 view .LVU450
 1133 0130 5F1C     		adds	r7, r3, #1
 1134              		.loc 2 869 34 view .LVU451
 1135 0132 02EBC707 		add	r7, r2, r7, lsl #3
 1136              		.loc 2 869 25 view .LVU452
 1137 0136 97ED007B 		vldr.64	d7, [r7]
 1138 013a B1EE477B 		vneg.f64	d7, d7
 1139              		.loc 2 869 23 view .LVU453
 1140 013e 87ED007B 		vstr.64	d7, [r7]
 870:open303/Source/DSPCode/fft4g.c ****             j1 = k1 + m2;
 1141              		.loc 2 870 13 is_stmt 1 view .LVU454
 1142              		.loc 2 870 16 is_stmt 0 view .LVU455
 1143 0142 C718     		adds	r7, r0, r3
 1144              	.LVL135:
 871:open303/Source/DSPCode/fft4g.c ****             k1 = j1 + m2;
 1145              		.loc 2 871 13 is_stmt 1 view .LVU456
 1146              		.loc 2 871 16 is_stmt 0 view .LVU457
 1147 0144 03EB4003 		add	r3, r3, r0, lsl #1
 1148              	.LVL136:
 872:open303/Source/DSPCode/fft4g.c ****             xr = a[j1];
 1149              		.loc 2 872 13 is_stmt 1 view .LVU458
 1150              		.loc 2 872 22 is_stmt 0 view .LVU459
 1151 0148 02EBC708 		add	r8, r2, r7, lsl #3
 873:open303/Source/DSPCode/fft4g.c ****             xi = -a[j1 + 1];
ARM GAS  /var/folders/7j/7n_15nxd0bx4q178nq7r8qsr0000gn/T//cc8hDKNO.s 			page 43


 874:open303/Source/DSPCode/fft4g.c ****             yr = a[k1];
 1152              		.loc 2 874 22 view .LVU460
 1153 014c 02EBC30E 		add	lr, r2, r3, lsl #3
 875:open303/Source/DSPCode/fft4g.c ****             yi = -a[k1 + 1];
 876:open303/Source/DSPCode/fft4g.c ****             a[j1] = yr;
 877:open303/Source/DSPCode/fft4g.c ****             a[j1 + 1] = yi;
 878:open303/Source/DSPCode/fft4g.c ****             a[k1] = xr;
 879:open303/Source/DSPCode/fft4g.c ****             a[k1 + 1] = xi;
 880:open303/Source/DSPCode/fft4g.c ****             k1 += m2;
 1154              		.loc 2 880 16 view .LVU461
 1155 0150 0344     		add	r3, r3, r0
 1156              	.LVL137:
 873:open303/Source/DSPCode/fft4g.c ****             xi = -a[j1 + 1];
 1157              		.loc 2 873 16 view .LVU462
 1158 0152 98ED027B 		vldr.64	d7, [r8, #8]
 875:open303/Source/DSPCode/fft4g.c ****             yi = -a[k1 + 1];
 1159              		.loc 2 875 16 view .LVU463
 1160 0156 9EED026B 		vldr.64	d6, [lr, #8]
 881:open303/Source/DSPCode/fft4g.c ****             a[k1 + 1] = -a[k1 + 1];
 1161              		.loc 2 881 31 view .LVU464
 1162 015a 0133     		adds	r3, r3, #1
 873:open303/Source/DSPCode/fft4g.c ****             xi = -a[j1 + 1];
 1163              		.loc 2 873 16 view .LVU465
 1164 015c B1EE477B 		vneg.f64	d7, d7
 875:open303/Source/DSPCode/fft4g.c ****             yi = -a[k1 + 1];
 1165              		.loc 2 875 16 view .LVU466
 1166 0160 B1EE466B 		vneg.f64	d6, d6
 1167              		.loc 2 881 34 view .LVU467
 1168 0164 02EBC303 		add	r3, r2, r3, lsl #3
 874:open303/Source/DSPCode/fft4g.c ****             yi = -a[k1 + 1];
 1169              		.loc 2 874 16 view .LVU468
 1170 0168 9EED005B 		vldr.64	d5, [lr]
 872:open303/Source/DSPCode/fft4g.c ****             xi = -a[j1 + 1];
 1171              		.loc 2 872 16 view .LVU469
 1172 016c D8E900AB 		ldrd	r10, [r8]
 1173              	.LVL138:
 873:open303/Source/DSPCode/fft4g.c ****             yr = a[k1];
 1174              		.loc 2 873 13 is_stmt 1 view .LVU470
 874:open303/Source/DSPCode/fft4g.c ****             yi = -a[k1 + 1];
 1175              		.loc 2 874 13 view .LVU471
 875:open303/Source/DSPCode/fft4g.c ****             a[j1] = yr;
 1176              		.loc 2 875 13 view .LVU472
 876:open303/Source/DSPCode/fft4g.c ****             a[j1 + 1] = yi;
 1177              		.loc 2 876 13 view .LVU473
 877:open303/Source/DSPCode/fft4g.c ****             a[k1] = xr;
 1178              		.loc 2 877 23 is_stmt 0 view .LVU474
 1179 0170 88ED026B 		vstr.64	d6, [r8, #8]
 876:open303/Source/DSPCode/fft4g.c ****             a[j1 + 1] = yi;
 1180              		.loc 2 876 19 view .LVU475
 1181 0174 88ED005B 		vstr.64	d5, [r8]
 877:open303/Source/DSPCode/fft4g.c ****             a[k1] = xr;
 1182              		.loc 2 877 13 is_stmt 1 view .LVU476
 878:open303/Source/DSPCode/fft4g.c ****             a[k1 + 1] = xi;
 1183              		.loc 2 878 13 view .LVU477
 878:open303/Source/DSPCode/fft4g.c ****             a[k1 + 1] = xi;
 1184              		.loc 2 878 19 is_stmt 0 view .LVU478
 1185 0178 CEE900AB 		strd	r10, [lr]
ARM GAS  /var/folders/7j/7n_15nxd0bx4q178nq7r8qsr0000gn/T//cc8hDKNO.s 			page 44


 879:open303/Source/DSPCode/fft4g.c ****             k1 += m2;
 1186              		.loc 2 879 13 is_stmt 1 view .LVU479
 879:open303/Source/DSPCode/fft4g.c ****             k1 += m2;
 1187              		.loc 2 879 23 is_stmt 0 view .LVU480
 1188 017c 8EED027B 		vstr.64	d7, [lr, #8]
 880:open303/Source/DSPCode/fft4g.c ****             a[k1 + 1] = -a[k1 + 1];
 1189              		.loc 2 880 13 is_stmt 1 view .LVU481
 1190              	.LVL139:
 1191              		.loc 2 881 13 view .LVU482
 1192              		.loc 2 881 25 is_stmt 0 view .LVU483
 1193 0180 93ED007B 		vldr.64	d7, [r3]
 1194              	.LVL140:
 1195              		.loc 2 881 25 view .LVU484
 1196 0184 B1EE477B 		vneg.f64	d7, d7
 1197              		.loc 2 881 23 view .LVU485
 1198 0188 83ED007B 		vstr.64	d7, [r3]
 1199              	.LVL141:
 825:open303/Source/DSPCode/fft4g.c ****             for (j = 0; j < k; j++) {
 1200              		.loc 2 825 9 is_stmt 1 discriminator 2 view .LVU486
 1201 018c 46E7     		b	.L37
 1202              	.LVL142:
 1203              	.L36:
 882:open303/Source/DSPCode/fft4g.c ****         }
 883:open303/Source/DSPCode/fft4g.c ****     } else {
 884:open303/Source/DSPCode/fft4g.c ****         a[1] = -a[1];
 1204              		.loc 2 884 9 view .LVU487
 1205              		.loc 2 884 16 is_stmt 0 view .LVU488
 1206 018e 92ED027B 		vldr.64	d7, [r2, #8]
 885:open303/Source/DSPCode/fft4g.c ****         a[m2 + 1] = -a[m2 + 1];
 1207              		.loc 2 885 27 view .LVU489
 1208 0192 431C     		adds	r3, r0, #1
 886:open303/Source/DSPCode/fft4g.c ****         for (k = 1; k < m; k++) {
 1209              		.loc 2 886 9 view .LVU490
 1210 0194 8E46     		mov	lr, r1
 1211              		.loc 2 886 16 view .LVU491
 1212 0196 4FF0010C 		mov	ip, #1
 884:open303/Source/DSPCode/fft4g.c ****         a[m2 + 1] = -a[m2 + 1];
 1213              		.loc 2 884 16 view .LVU492
 1214 019a B1EE477B 		vneg.f64	d7, d7
 885:open303/Source/DSPCode/fft4g.c ****         a[m2 + 1] = -a[m2 + 1];
 1215              		.loc 2 885 30 view .LVU493
 1216 019e 02EBC303 		add	r3, r2, r3, lsl #3
 884:open303/Source/DSPCode/fft4g.c ****         a[m2 + 1] = -a[m2 + 1];
 1217              		.loc 2 884 14 view .LVU494
 1218 01a2 82ED027B 		vstr.64	d7, [r2, #8]
 885:open303/Source/DSPCode/fft4g.c ****         a[m2 + 1] = -a[m2 + 1];
 1219              		.loc 2 885 9 is_stmt 1 view .LVU495
 885:open303/Source/DSPCode/fft4g.c ****         a[m2 + 1] = -a[m2 + 1];
 1220              		.loc 2 885 21 is_stmt 0 view .LVU496
 1221 01a6 93ED007B 		vldr.64	d7, [r3]
 1222 01aa B1EE477B 		vneg.f64	d7, d7
 885:open303/Source/DSPCode/fft4g.c ****         a[m2 + 1] = -a[m2 + 1];
 1223              		.loc 2 885 19 view .LVU497
 1224 01ae 83ED007B 		vstr.64	d7, [r3]
 1225              		.loc 2 886 9 is_stmt 1 view .LVU498
 1226              	.LVL143:
 1227              	.L41:
ARM GAS  /var/folders/7j/7n_15nxd0bx4q178nq7r8qsr0000gn/T//cc8hDKNO.s 			page 45


 1228              		.loc 2 886 23 discriminator 1 view .LVU499
 1229 01b2 AC45     		cmp	ip, r5
 1230 01b4 02DB     		blt	.L43
 1231              	.LVL144:
 1232              	.L31:
 887:open303/Source/DSPCode/fft4g.c ****             for (j = 0; j < k; j++) {
 888:open303/Source/DSPCode/fft4g.c ****                 j1 = 2 * j + ip[k];
 889:open303/Source/DSPCode/fft4g.c ****                 k1 = 2 * k + ip[j];
 890:open303/Source/DSPCode/fft4g.c ****                 xr = a[j1];
 891:open303/Source/DSPCode/fft4g.c ****                 xi = -a[j1 + 1];
 892:open303/Source/DSPCode/fft4g.c ****                 yr = a[k1];
 893:open303/Source/DSPCode/fft4g.c ****                 yi = -a[k1 + 1];
 894:open303/Source/DSPCode/fft4g.c ****                 a[j1] = yr;
 895:open303/Source/DSPCode/fft4g.c ****                 a[j1 + 1] = yi;
 896:open303/Source/DSPCode/fft4g.c ****                 a[k1] = xr;
 897:open303/Source/DSPCode/fft4g.c ****                 a[k1 + 1] = xi;
 898:open303/Source/DSPCode/fft4g.c ****                 j1 += m2;
 899:open303/Source/DSPCode/fft4g.c ****                 k1 += m2;
 900:open303/Source/DSPCode/fft4g.c ****                 xr = a[j1];
 901:open303/Source/DSPCode/fft4g.c ****                 xi = -a[j1 + 1];
 902:open303/Source/DSPCode/fft4g.c ****                 yr = a[k1];
 903:open303/Source/DSPCode/fft4g.c ****                 yi = -a[k1 + 1];
 904:open303/Source/DSPCode/fft4g.c ****                 a[j1] = yr;
 905:open303/Source/DSPCode/fft4g.c ****                 a[j1 + 1] = yi;
 906:open303/Source/DSPCode/fft4g.c ****                 a[k1] = xr;
 907:open303/Source/DSPCode/fft4g.c ****                 a[k1 + 1] = xi;
 908:open303/Source/DSPCode/fft4g.c ****             }
 909:open303/Source/DSPCode/fft4g.c ****             k1 = 2 * k + ip[k];
 910:open303/Source/DSPCode/fft4g.c ****             a[k1 + 1] = -a[k1 + 1];
 911:open303/Source/DSPCode/fft4g.c ****             a[k1 + m2 + 1] = -a[k1 + m2 + 1];
 912:open303/Source/DSPCode/fft4g.c ****         }
 913:open303/Source/DSPCode/fft4g.c ****     }
 914:open303/Source/DSPCode/fft4g.c **** }
 1233              		.loc 2 914 1 is_stmt 0 view .LVU500
 1234 01b6 03B0     		add	sp, sp, #12
 1235              		.cfi_remember_state
 1236              		.cfi_def_cfa_offset 36
 1237              		@ sp needed
 1238 01b8 BDE8F08F 		pop	{r4, r5, r6, r7, r8, r9, r10, fp, pc}
 1239              	.LVL145:
 1240              	.L43:
 1241              		.cfi_restore_state
 888:open303/Source/DSPCode/fft4g.c ****                 k1 = 2 * k + ip[j];
 1242              		.loc 2 888 34 view .LVU501
 1243 01bc 0EF10403 		add	r3, lr, #4
 889:open303/Source/DSPCode/fft4g.c ****                 xr = a[j1];
 1244              		.loc 2 889 24 view .LVU502
 1245 01c0 4FEA4C09 		lsl	r9, ip, #1
 1246 01c4 8846     		mov	r8, r1
 888:open303/Source/DSPCode/fft4g.c ****                 k1 = 2 * k + ip[j];
 1247              		.loc 2 888 34 view .LVU503
 1248 01c6 0193     		str	r3, [sp, #4]
 1249 01c8 DEF80430 		ldr	r3, [lr, #4]
 1250 01cc C618     		adds	r6, r0, r3
 1251 01ce 02EBC307 		add	r7, r2, r3, lsl #3
 1252 01d2 02EBC606 		add	r6, r2, r6, lsl #3
 1253              	.L42:
ARM GAS  /var/folders/7j/7n_15nxd0bx4q178nq7r8qsr0000gn/T//cc8hDKNO.s 			page 46


 888:open303/Source/DSPCode/fft4g.c ****                 k1 = 2 * k + ip[j];
 1254              		.loc 2 888 17 is_stmt 1 view .LVU504
 1255              	.LVL146:
 889:open303/Source/DSPCode/fft4g.c ****                 xr = a[j1];
 1256              		.loc 2 889 17 view .LVU505
 889:open303/Source/DSPCode/fft4g.c ****                 xr = a[j1];
 1257              		.loc 2 889 34 is_stmt 0 view .LVU506
 1258 01d6 58F8044B 		ldr	r4, [r8], #4
 887:open303/Source/DSPCode/fft4g.c ****             for (j = 0; j < k; j++) {
 1259              		.loc 2 887 27 discriminator 1 view .LVU507
 1260 01da 1037     		adds	r7, r7, #16
 1261 01dc 1036     		adds	r6, r6, #16
 889:open303/Source/DSPCode/fft4g.c ****                 xr = a[j1];
 1262              		.loc 2 889 20 view .LVU508
 1263 01de 4C44     		add	r4, r4, r9
 1264              	.LVL147:
 890:open303/Source/DSPCode/fft4g.c ****                 xi = -a[j1 + 1];
 1265              		.loc 2 890 17 is_stmt 1 view .LVU509
 892:open303/Source/DSPCode/fft4g.c ****                 yi = -a[k1 + 1];
 1266              		.loc 2 892 26 is_stmt 0 view .LVU510
 1267 01e0 02EBC40B 		add	fp, r2, r4, lsl #3
 899:open303/Source/DSPCode/fft4g.c ****                 xr = a[j1];
 1268              		.loc 2 899 20 view .LVU511
 1269 01e4 0444     		add	r4, r4, r0
 1270              	.LVL148:
 891:open303/Source/DSPCode/fft4g.c ****                 yr = a[k1];
 1271              		.loc 2 891 20 view .LVU512
 1272 01e6 17ED027B 		vldr.64	d7, [r7, #-8]
 893:open303/Source/DSPCode/fft4g.c ****                 a[j1] = yr;
 1273              		.loc 2 893 20 view .LVU513
 1274 01ea 9BED026B 		vldr.64	d6, [fp, #8]
 890:open303/Source/DSPCode/fft4g.c ****                 xi = -a[j1 + 1];
 1275              		.loc 2 890 20 view .LVU514
 1276 01ee 17ED045B 		vldr.64	d5, [r7, #-16]
 1277              	.LVL149:
 891:open303/Source/DSPCode/fft4g.c ****                 yr = a[k1];
 1278              		.loc 2 891 17 is_stmt 1 view .LVU515
 892:open303/Source/DSPCode/fft4g.c ****                 yi = -a[k1 + 1];
 1279              		.loc 2 892 20 is_stmt 0 view .LVU516
 1280 01f2 9BED004B 		vldr.64	d4, [fp]
 891:open303/Source/DSPCode/fft4g.c ****                 yr = a[k1];
 1281              		.loc 2 891 20 view .LVU517
 1282 01f6 B1EE477B 		vneg.f64	d7, d7
 1283              	.LVL150:
 892:open303/Source/DSPCode/fft4g.c ****                 yi = -a[k1 + 1];
 1284              		.loc 2 892 17 is_stmt 1 view .LVU518
 893:open303/Source/DSPCode/fft4g.c ****                 a[j1] = yr;
 1285              		.loc 2 893 17 view .LVU519
 902:open303/Source/DSPCode/fft4g.c ****                 yi = -a[k1 + 1];
 1286              		.loc 2 902 26 is_stmt 0 view .LVU520
 1287 01fa 02EBC40A 		add	r10, r2, r4, lsl #3
 893:open303/Source/DSPCode/fft4g.c ****                 a[j1] = yr;
 1288              		.loc 2 893 20 view .LVU521
 1289 01fe B1EE466B 		vneg.f64	d6, d6
 1290              	.LVL151:
 894:open303/Source/DSPCode/fft4g.c ****                 a[j1 + 1] = yi;
 1291              		.loc 2 894 17 is_stmt 1 view .LVU522
ARM GAS  /var/folders/7j/7n_15nxd0bx4q178nq7r8qsr0000gn/T//cc8hDKNO.s 			page 47


 887:open303/Source/DSPCode/fft4g.c ****                 j1 = 2 * j + ip[k];
 1292              		.loc 2 887 27 is_stmt 0 discriminator 1 view .LVU523
 1293 0202 0EF10404 		add	r4, lr, #4
 894:open303/Source/DSPCode/fft4g.c ****                 a[j1 + 1] = yi;
 1294              		.loc 2 894 23 view .LVU524
 1295 0206 07ED044B 		vstr.64	d4, [r7, #-16]
 895:open303/Source/DSPCode/fft4g.c ****                 a[k1] = xr;
 1296              		.loc 2 895 17 is_stmt 1 view .LVU525
 895:open303/Source/DSPCode/fft4g.c ****                 a[k1] = xr;
 1297              		.loc 2 895 27 is_stmt 0 view .LVU526
 1298 020a 07ED026B 		vstr.64	d6, [r7, #-8]
 896:open303/Source/DSPCode/fft4g.c ****                 a[k1 + 1] = xi;
 1299              		.loc 2 896 17 is_stmt 1 view .LVU527
 896:open303/Source/DSPCode/fft4g.c ****                 a[k1 + 1] = xi;
 1300              		.loc 2 896 23 is_stmt 0 view .LVU528
 1301 020e 8BED005B 		vstr.64	d5, [fp]
 897:open303/Source/DSPCode/fft4g.c ****                 j1 += m2;
 1302              		.loc 2 897 17 is_stmt 1 view .LVU529
 897:open303/Source/DSPCode/fft4g.c ****                 j1 += m2;
 1303              		.loc 2 897 27 is_stmt 0 view .LVU530
 1304 0212 8BED027B 		vstr.64	d7, [fp, #8]
 898:open303/Source/DSPCode/fft4g.c ****                 k1 += m2;
 1305              		.loc 2 898 17 is_stmt 1 view .LVU531
 899:open303/Source/DSPCode/fft4g.c ****                 xr = a[j1];
 1306              		.loc 2 899 17 view .LVU532
 1307              	.LVL152:
 900:open303/Source/DSPCode/fft4g.c ****                 xi = -a[j1 + 1];
 1308              		.loc 2 900 17 view .LVU533
 901:open303/Source/DSPCode/fft4g.c ****                 yr = a[k1];
 1309              		.loc 2 901 20 is_stmt 0 view .LVU534
 1310 0216 16ED027B 		vldr.64	d7, [r6, #-8]
 1311              	.LVL153:
 903:open303/Source/DSPCode/fft4g.c ****                 a[j1] = yr;
 1312              		.loc 2 903 20 view .LVU535
 1313 021a 9AED026B 		vldr.64	d6, [r10, #8]
 1314              	.LVL154:
 900:open303/Source/DSPCode/fft4g.c ****                 xi = -a[j1 + 1];
 1315              		.loc 2 900 20 view .LVU536
 1316 021e 16ED045B 		vldr.64	d5, [r6, #-16]
 1317              	.LVL155:
 901:open303/Source/DSPCode/fft4g.c ****                 yr = a[k1];
 1318              		.loc 2 901 17 is_stmt 1 view .LVU537
 902:open303/Source/DSPCode/fft4g.c ****                 yi = -a[k1 + 1];
 1319              		.loc 2 902 20 is_stmt 0 view .LVU538
 1320 0222 9AED004B 		vldr.64	d4, [r10]
 1321              	.LVL156:
 901:open303/Source/DSPCode/fft4g.c ****                 yr = a[k1];
 1322              		.loc 2 901 20 view .LVU539
 1323 0226 B1EE477B 		vneg.f64	d7, d7
 1324              	.LVL157:
 902:open303/Source/DSPCode/fft4g.c ****                 yi = -a[k1 + 1];
 1325              		.loc 2 902 17 is_stmt 1 view .LVU540
 903:open303/Source/DSPCode/fft4g.c ****                 a[j1] = yr;
 1326              		.loc 2 903 17 view .LVU541
 887:open303/Source/DSPCode/fft4g.c ****                 j1 = 2 * j + ip[k];
 1327              		.loc 2 887 27 is_stmt 0 discriminator 1 view .LVU542
 1328 022a 4445     		cmp	r4, r8
ARM GAS  /var/folders/7j/7n_15nxd0bx4q178nq7r8qsr0000gn/T//cc8hDKNO.s 			page 48


 903:open303/Source/DSPCode/fft4g.c ****                 a[j1] = yr;
 1329              		.loc 2 903 20 view .LVU543
 1330 022c B1EE466B 		vneg.f64	d6, d6
 1331              	.LVL158:
 904:open303/Source/DSPCode/fft4g.c ****                 a[j1 + 1] = yi;
 1332              		.loc 2 904 17 is_stmt 1 view .LVU544
 904:open303/Source/DSPCode/fft4g.c ****                 a[j1 + 1] = yi;
 1333              		.loc 2 904 23 is_stmt 0 view .LVU545
 1334 0230 06ED044B 		vstr.64	d4, [r6, #-16]
 905:open303/Source/DSPCode/fft4g.c ****                 a[k1] = xr;
 1335              		.loc 2 905 17 is_stmt 1 view .LVU546
 905:open303/Source/DSPCode/fft4g.c ****                 a[k1] = xr;
 1336              		.loc 2 905 27 is_stmt 0 view .LVU547
 1337 0234 06ED026B 		vstr.64	d6, [r6, #-8]
 906:open303/Source/DSPCode/fft4g.c ****                 a[k1 + 1] = xi;
 1338              		.loc 2 906 17 is_stmt 1 view .LVU548
 906:open303/Source/DSPCode/fft4g.c ****                 a[k1 + 1] = xi;
 1339              		.loc 2 906 23 is_stmt 0 view .LVU549
 1340 0238 8AED005B 		vstr.64	d5, [r10]
 907:open303/Source/DSPCode/fft4g.c ****             }
 1341              		.loc 2 907 17 is_stmt 1 view .LVU550
 907:open303/Source/DSPCode/fft4g.c ****             }
 1342              		.loc 2 907 27 is_stmt 0 view .LVU551
 1343 023c 8AED027B 		vstr.64	d7, [r10, #8]
 887:open303/Source/DSPCode/fft4g.c ****                 j1 = 2 * j + ip[k];
 1344              		.loc 2 887 13 is_stmt 1 discriminator 3 view .LVU552
 887:open303/Source/DSPCode/fft4g.c ****                 j1 = 2 * j + ip[k];
 1345              		.loc 2 887 27 discriminator 1 view .LVU553
 1346 0240 C9D1     		bne	.L42
 909:open303/Source/DSPCode/fft4g.c ****             a[k1 + 1] = -a[k1 + 1];
 1347              		.loc 2 909 13 view .LVU554
 909:open303/Source/DSPCode/fft4g.c ****             a[k1 + 1] = -a[k1 + 1];
 1348              		.loc 2 909 16 is_stmt 0 view .LVU555
 1349 0242 4B44     		add	r3, r3, r9
 1350              	.LVL159:
 910:open303/Source/DSPCode/fft4g.c ****             a[k1 + m2 + 1] = -a[k1 + m2 + 1];
 1351              		.loc 2 910 13 is_stmt 1 view .LVU556
 886:open303/Source/DSPCode/fft4g.c ****             for (j = 0; j < k; j++) {
 1352              		.loc 2 886 9 is_stmt 0 discriminator 2 view .LVU557
 1353 0244 0CF1010C 		add	ip, ip, #1
 1354              	.LVL160:
 886:open303/Source/DSPCode/fft4g.c ****             for (j = 0; j < k; j++) {
 1355              		.loc 2 886 9 discriminator 2 view .LVU558
 1356 0248 DDF804E0 		ldr	lr, [sp, #4]
 910:open303/Source/DSPCode/fft4g.c ****             a[k1 + m2 + 1] = -a[k1 + m2 + 1];
 1357              		.loc 2 910 31 view .LVU559
 1358 024c 5C1C     		adds	r4, r3, #1
 911:open303/Source/DSPCode/fft4g.c ****         }
 1359              		.loc 2 911 36 view .LVU560
 1360 024e 0344     		add	r3, r3, r0
 1361              	.LVL161:
 910:open303/Source/DSPCode/fft4g.c ****             a[k1 + m2 + 1] = -a[k1 + m2 + 1];
 1362              		.loc 2 910 34 view .LVU561
 1363 0250 02EBC404 		add	r4, r2, r4, lsl #3
 1364              	.LVL162:
 911:open303/Source/DSPCode/fft4g.c ****         }
 1365              		.loc 2 911 41 view .LVU562
ARM GAS  /var/folders/7j/7n_15nxd0bx4q178nq7r8qsr0000gn/T//cc8hDKNO.s 			page 49


 1366 0254 0133     		adds	r3, r3, #1
 910:open303/Source/DSPCode/fft4g.c ****             a[k1 + m2 + 1] = -a[k1 + m2 + 1];
 1367              		.loc 2 910 25 view .LVU563
 1368 0256 94ED007B 		vldr.64	d7, [r4]
 1369              	.LVL163:
 911:open303/Source/DSPCode/fft4g.c ****         }
 1370              		.loc 2 911 44 view .LVU564
 1371 025a 02EBC303 		add	r3, r2, r3, lsl #3
 910:open303/Source/DSPCode/fft4g.c ****             a[k1 + m2 + 1] = -a[k1 + m2 + 1];
 1372              		.loc 2 910 25 view .LVU565
 1373 025e B1EE477B 		vneg.f64	d7, d7
 910:open303/Source/DSPCode/fft4g.c ****             a[k1 + m2 + 1] = -a[k1 + m2 + 1];
 1374              		.loc 2 910 23 view .LVU566
 1375 0262 84ED007B 		vstr.64	d7, [r4]
 1376              	.LVL164:
 911:open303/Source/DSPCode/fft4g.c ****         }
 1377              		.loc 2 911 13 is_stmt 1 view .LVU567
 911:open303/Source/DSPCode/fft4g.c ****         }
 1378              		.loc 2 911 30 is_stmt 0 view .LVU568
 1379 0266 93ED007B 		vldr.64	d7, [r3]
 1380 026a B1EE477B 		vneg.f64	d7, d7
 911:open303/Source/DSPCode/fft4g.c ****         }
 1381              		.loc 2 911 28 view .LVU569
 1382 026e 83ED007B 		vstr.64	d7, [r3]
 886:open303/Source/DSPCode/fft4g.c ****             for (j = 0; j < k; j++) {
 1383              		.loc 2 886 9 is_stmt 1 discriminator 2 view .LVU570
 1384              	.LVL165:
 886:open303/Source/DSPCode/fft4g.c ****             for (j = 0; j < k; j++) {
 1385              		.loc 2 886 9 is_stmt 0 discriminator 2 view .LVU571
 1386 0272 9EE7     		b	.L41
 1387              		.cfi_endproc
 1388              	.LFE650:
 1390              		.section	.text._Z6cft1stiPdS_,"ax",%progbits
 1391              		.align	1
 1392              		.global	_Z6cft1stiPdS_
 1393              		.syntax unified
 1394              		.thumb
 1395              		.thumb_func
 1397              	_Z6cft1stiPdS_:
 1398              	.LVL166:
 1399              	.LFB653:
 915:open303/Source/DSPCode/fft4g.c **** 
 916:open303/Source/DSPCode/fft4g.c **** 
 917:open303/Source/DSPCode/fft4g.c **** void cftfsub(int n, double *a, double *w)
 918:open303/Source/DSPCode/fft4g.c **** {
 919:open303/Source/DSPCode/fft4g.c ****     void cft1st(int n, double *a, double *w);
 920:open303/Source/DSPCode/fft4g.c ****     void cftmdl(int n, int l, double *a, double *w);
 921:open303/Source/DSPCode/fft4g.c ****     int j, j1, j2, j3, l;
 922:open303/Source/DSPCode/fft4g.c ****     double x0r, x0i, x1r, x1i, x2r, x2i, x3r, x3i;
 923:open303/Source/DSPCode/fft4g.c ****     
 924:open303/Source/DSPCode/fft4g.c ****     l = 2;
 925:open303/Source/DSPCode/fft4g.c ****     if (n > 8) {
 926:open303/Source/DSPCode/fft4g.c ****         cft1st(n, a, w);
 927:open303/Source/DSPCode/fft4g.c ****         l = 8;
 928:open303/Source/DSPCode/fft4g.c ****         while ((l << 2) < n) {
 929:open303/Source/DSPCode/fft4g.c ****             cftmdl(n, l, a, w);
 930:open303/Source/DSPCode/fft4g.c ****             l <<= 2;
ARM GAS  /var/folders/7j/7n_15nxd0bx4q178nq7r8qsr0000gn/T//cc8hDKNO.s 			page 50


 931:open303/Source/DSPCode/fft4g.c ****         }
 932:open303/Source/DSPCode/fft4g.c ****     }
 933:open303/Source/DSPCode/fft4g.c ****     if ((l << 2) == n) {
 934:open303/Source/DSPCode/fft4g.c ****         for (j = 0; j < l; j += 2) {
 935:open303/Source/DSPCode/fft4g.c ****             j1 = j + l;
 936:open303/Source/DSPCode/fft4g.c ****             j2 = j1 + l;
 937:open303/Source/DSPCode/fft4g.c ****             j3 = j2 + l;
 938:open303/Source/DSPCode/fft4g.c ****             x0r = a[j] + a[j1];
 939:open303/Source/DSPCode/fft4g.c ****             x0i = a[j + 1] + a[j1 + 1];
 940:open303/Source/DSPCode/fft4g.c ****             x1r = a[j] - a[j1];
 941:open303/Source/DSPCode/fft4g.c ****             x1i = a[j + 1] - a[j1 + 1];
 942:open303/Source/DSPCode/fft4g.c ****             x2r = a[j2] + a[j3];
 943:open303/Source/DSPCode/fft4g.c ****             x2i = a[j2 + 1] + a[j3 + 1];
 944:open303/Source/DSPCode/fft4g.c ****             x3r = a[j2] - a[j3];
 945:open303/Source/DSPCode/fft4g.c ****             x3i = a[j2 + 1] - a[j3 + 1];
 946:open303/Source/DSPCode/fft4g.c ****             a[j] = x0r + x2r;
 947:open303/Source/DSPCode/fft4g.c ****             a[j + 1] = x0i + x2i;
 948:open303/Source/DSPCode/fft4g.c ****             a[j2] = x0r - x2r;
 949:open303/Source/DSPCode/fft4g.c ****             a[j2 + 1] = x0i - x2i;
 950:open303/Source/DSPCode/fft4g.c ****             a[j1] = x1r - x3i;
 951:open303/Source/DSPCode/fft4g.c ****             a[j1 + 1] = x1i + x3r;
 952:open303/Source/DSPCode/fft4g.c ****             a[j3] = x1r + x3i;
 953:open303/Source/DSPCode/fft4g.c ****             a[j3 + 1] = x1i - x3r;
 954:open303/Source/DSPCode/fft4g.c ****         }
 955:open303/Source/DSPCode/fft4g.c ****     } else {
 956:open303/Source/DSPCode/fft4g.c ****         for (j = 0; j < l; j += 2) {
 957:open303/Source/DSPCode/fft4g.c ****             j1 = j + l;
 958:open303/Source/DSPCode/fft4g.c ****             x0r = a[j] - a[j1];
 959:open303/Source/DSPCode/fft4g.c ****             x0i = a[j + 1] - a[j1 + 1];
 960:open303/Source/DSPCode/fft4g.c ****             a[j] += a[j1];
 961:open303/Source/DSPCode/fft4g.c ****             a[j + 1] += a[j1 + 1];
 962:open303/Source/DSPCode/fft4g.c ****             a[j1] = x0r;
 963:open303/Source/DSPCode/fft4g.c ****             a[j1 + 1] = x0i;
 964:open303/Source/DSPCode/fft4g.c ****         }
 965:open303/Source/DSPCode/fft4g.c ****     }
 966:open303/Source/DSPCode/fft4g.c **** }
 967:open303/Source/DSPCode/fft4g.c **** 
 968:open303/Source/DSPCode/fft4g.c **** 
 969:open303/Source/DSPCode/fft4g.c **** void cftbsub(int n, double *a, double *w)
 970:open303/Source/DSPCode/fft4g.c **** {
 971:open303/Source/DSPCode/fft4g.c ****     void cft1st(int n, double *a, double *w);
 972:open303/Source/DSPCode/fft4g.c ****     void cftmdl(int n, int l, double *a, double *w);
 973:open303/Source/DSPCode/fft4g.c ****     int j, j1, j2, j3, l;
 974:open303/Source/DSPCode/fft4g.c ****     double x0r, x0i, x1r, x1i, x2r, x2i, x3r, x3i;
 975:open303/Source/DSPCode/fft4g.c ****     
 976:open303/Source/DSPCode/fft4g.c ****     l = 2;
 977:open303/Source/DSPCode/fft4g.c ****     if (n > 8) {
 978:open303/Source/DSPCode/fft4g.c ****         cft1st(n, a, w);
 979:open303/Source/DSPCode/fft4g.c ****         l = 8;
 980:open303/Source/DSPCode/fft4g.c ****         while ((l << 2) < n) {
 981:open303/Source/DSPCode/fft4g.c ****             cftmdl(n, l, a, w);
 982:open303/Source/DSPCode/fft4g.c ****             l <<= 2;
 983:open303/Source/DSPCode/fft4g.c ****         }
 984:open303/Source/DSPCode/fft4g.c ****     }
 985:open303/Source/DSPCode/fft4g.c ****     if ((l << 2) == n) {
 986:open303/Source/DSPCode/fft4g.c ****         for (j = 0; j < l; j += 2) {
 987:open303/Source/DSPCode/fft4g.c ****             j1 = j + l;
ARM GAS  /var/folders/7j/7n_15nxd0bx4q178nq7r8qsr0000gn/T//cc8hDKNO.s 			page 51


 988:open303/Source/DSPCode/fft4g.c ****             j2 = j1 + l;
 989:open303/Source/DSPCode/fft4g.c ****             j3 = j2 + l;
 990:open303/Source/DSPCode/fft4g.c ****             x0r = a[j] + a[j1];
 991:open303/Source/DSPCode/fft4g.c ****             x0i = -a[j + 1] - a[j1 + 1];
 992:open303/Source/DSPCode/fft4g.c ****             x1r = a[j] - a[j1];
 993:open303/Source/DSPCode/fft4g.c ****             x1i = -a[j + 1] + a[j1 + 1];
 994:open303/Source/DSPCode/fft4g.c ****             x2r = a[j2] + a[j3];
 995:open303/Source/DSPCode/fft4g.c ****             x2i = a[j2 + 1] + a[j3 + 1];
 996:open303/Source/DSPCode/fft4g.c ****             x3r = a[j2] - a[j3];
 997:open303/Source/DSPCode/fft4g.c ****             x3i = a[j2 + 1] - a[j3 + 1];
 998:open303/Source/DSPCode/fft4g.c ****             a[j] = x0r + x2r;
 999:open303/Source/DSPCode/fft4g.c ****             a[j + 1] = x0i - x2i;
1000:open303/Source/DSPCode/fft4g.c ****             a[j2] = x0r - x2r;
1001:open303/Source/DSPCode/fft4g.c ****             a[j2 + 1] = x0i + x2i;
1002:open303/Source/DSPCode/fft4g.c ****             a[j1] = x1r - x3i;
1003:open303/Source/DSPCode/fft4g.c ****             a[j1 + 1] = x1i - x3r;
1004:open303/Source/DSPCode/fft4g.c ****             a[j3] = x1r + x3i;
1005:open303/Source/DSPCode/fft4g.c ****             a[j3 + 1] = x1i + x3r;
1006:open303/Source/DSPCode/fft4g.c ****         }
1007:open303/Source/DSPCode/fft4g.c ****     } else {
1008:open303/Source/DSPCode/fft4g.c ****         for (j = 0; j < l; j += 2) {
1009:open303/Source/DSPCode/fft4g.c ****             j1 = j + l;
1010:open303/Source/DSPCode/fft4g.c ****             x0r = a[j] - a[j1];
1011:open303/Source/DSPCode/fft4g.c ****             x0i = -a[j + 1] + a[j1 + 1];
1012:open303/Source/DSPCode/fft4g.c ****             a[j] += a[j1];
1013:open303/Source/DSPCode/fft4g.c ****             a[j + 1] = -a[j + 1] - a[j1 + 1];
1014:open303/Source/DSPCode/fft4g.c ****             a[j1] = x0r;
1015:open303/Source/DSPCode/fft4g.c ****             a[j1 + 1] = x0i;
1016:open303/Source/DSPCode/fft4g.c ****         }
1017:open303/Source/DSPCode/fft4g.c ****     }
1018:open303/Source/DSPCode/fft4g.c **** }
1019:open303/Source/DSPCode/fft4g.c **** 
1020:open303/Source/DSPCode/fft4g.c **** 
1021:open303/Source/DSPCode/fft4g.c **** void cft1st(int n, double *a, double *w)
1022:open303/Source/DSPCode/fft4g.c **** {
 1400              		.loc 2 1022 1 is_stmt 1 view -0
 1401              		.cfi_startproc
 1402              		@ args = 0, pretend = 0, frame = 0
 1403              		@ frame_needed = 0, uses_anonymous_args = 0
1023:open303/Source/DSPCode/fft4g.c ****     int j, k1, k2;
 1404              		.loc 2 1023 5 view .LVU573
1024:open303/Source/DSPCode/fft4g.c ****     double wk1r, wk1i, wk2r, wk2i, wk3r, wk3i;
 1405              		.loc 2 1024 5 view .LVU574
1025:open303/Source/DSPCode/fft4g.c ****     double x0r, x0i, x1r, x1i, x2r, x2i, x3r, x3i;
 1406              		.loc 2 1025 5 view .LVU575
1026:open303/Source/DSPCode/fft4g.c ****     
1027:open303/Source/DSPCode/fft4g.c ****     x0r = a[0] + a[2];
 1407              		.loc 2 1027 5 view .LVU576
 1408              		.loc 2 1027 21 is_stmt 0 view .LVU577
 1409 0000 91ED044B 		vldr.64	d4, [r1, #16]
 1410              		.loc 2 1027 14 view .LVU578
 1411 0004 91ED006B 		vldr.64	d6, [r1]
1022:open303/Source/DSPCode/fft4g.c ****     int j, k1, k2;
 1412              		.loc 2 1022 1 view .LVU579
 1413 0008 30B5     		push	{r4, r5, lr}
 1414              		.cfi_def_cfa_offset 12
 1415              		.cfi_offset 4, -12
ARM GAS  /var/folders/7j/7n_15nxd0bx4q178nq7r8qsr0000gn/T//cc8hDKNO.s 			page 52


 1416              		.cfi_offset 5, -8
 1417              		.cfi_offset 14, -4
1028:open303/Source/DSPCode/fft4g.c ****     x0i = a[1] + a[3];
 1418              		.loc 2 1028 21 view .LVU580
 1419 000a 91ED065B 		vldr.64	d5, [r1, #24]
1022:open303/Source/DSPCode/fft4g.c ****     int j, k1, k2;
 1420              		.loc 2 1022 1 view .LVU581
 1421 000e 2DED108B 		vpush.64	{d8, d9, d10, d11, d12, d13, d14, d15}
 1422              		.cfi_def_cfa_offset 76
 1423              		.cfi_offset 80, -76
 1424              		.cfi_offset 81, -72
 1425              		.cfi_offset 82, -68
 1426              		.cfi_offset 83, -64
 1427              		.cfi_offset 84, -60
 1428              		.cfi_offset 85, -56
 1429              		.cfi_offset 86, -52
 1430              		.cfi_offset 87, -48
 1431              		.cfi_offset 88, -44
 1432              		.cfi_offset 89, -40
 1433              		.cfi_offset 90, -36
 1434              		.cfi_offset 91, -32
 1435              		.cfi_offset 92, -28
 1436              		.cfi_offset 93, -24
 1437              		.cfi_offset 94, -20
 1438              		.cfi_offset 95, -16
 1439              		.loc 2 1028 14 view .LVU582
 1440 0012 91ED027B 		vldr.64	d7, [r1, #8]
1029:open303/Source/DSPCode/fft4g.c ****     x1r = a[0] - a[2];
1030:open303/Source/DSPCode/fft4g.c ****     x1i = a[1] - a[3];
1031:open303/Source/DSPCode/fft4g.c ****     x2r = a[4] + a[6];
 1441              		.loc 2 1031 21 view .LVU583
 1442 0016 91ED0C9B 		vldr.64	d9, [r1, #48]
1027:open303/Source/DSPCode/fft4g.c ****     x0i = a[1] + a[3];
 1443              		.loc 2 1027 9 view .LVU584
 1444 001a 36EE042B 		vadd.f64	d2, d6, d4
 1445              	.LVL167:
1028:open303/Source/DSPCode/fft4g.c ****     x0i = a[1] + a[3];
 1446              		.loc 2 1028 5 is_stmt 1 view .LVU585
1032:open303/Source/DSPCode/fft4g.c ****     x2i = a[5] + a[7];
1033:open303/Source/DSPCode/fft4g.c ****     x3r = a[4] - a[6];
1034:open303/Source/DSPCode/fft4g.c ****     x3i = a[5] - a[7];
1035:open303/Source/DSPCode/fft4g.c ****     a[0] = x0r + x2r;
1036:open303/Source/DSPCode/fft4g.c ****     a[1] = x0i + x2i;
1037:open303/Source/DSPCode/fft4g.c ****     a[4] = x0r - x2r;
1038:open303/Source/DSPCode/fft4g.c ****     a[5] = x0i - x2i;
1039:open303/Source/DSPCode/fft4g.c ****     a[2] = x1r - x3i;
1040:open303/Source/DSPCode/fft4g.c ****     a[3] = x1i + x3r;
1041:open303/Source/DSPCode/fft4g.c ****     a[6] = x1r + x3i;
1042:open303/Source/DSPCode/fft4g.c ****     a[7] = x1i - x3r;
1043:open303/Source/DSPCode/fft4g.c ****     wk1r = w[2];
 1447              		.loc 2 1043 10 is_stmt 0 view .LVU586
 1448 001e 02F11003 		add	r3, r2, #16
1029:open303/Source/DSPCode/fft4g.c ****     x1i = a[1] - a[3];
 1449              		.loc 2 1029 9 view .LVU587
 1450 0022 36EE446B 		vsub.f64	d6, d6, d4
 1451 0026 02F12004 		add	r4, r2, #32
1028:open303/Source/DSPCode/fft4g.c ****     x1r = a[0] - a[2];
ARM GAS  /var/folders/7j/7n_15nxd0bx4q178nq7r8qsr0000gn/T//cc8hDKNO.s 			page 53


 1452              		.loc 2 1028 9 view .LVU588
 1453 002a 37EE053B 		vadd.f64	d3, d7, d5
 1454              	.LVL168:
1029:open303/Source/DSPCode/fft4g.c ****     x1i = a[1] - a[3];
 1455              		.loc 2 1029 5 is_stmt 1 view .LVU589
1030:open303/Source/DSPCode/fft4g.c ****     x2r = a[4] + a[6];
 1456              		.loc 2 1030 5 view .LVU590
 1457 002e 8031     		adds	r1, r1, #128
 1458              	.LVL169:
1030:open303/Source/DSPCode/fft4g.c ****     x2r = a[4] + a[6];
 1459              		.loc 2 1030 9 is_stmt 0 view .LVU591
 1460 0030 37EE457B 		vsub.f64	d7, d7, d5
 1461              	.LVL170:
1031:open303/Source/DSPCode/fft4g.c ****     x2i = a[5] + a[7];
 1462              		.loc 2 1031 5 is_stmt 1 view .LVU592
1031:open303/Source/DSPCode/fft4g.c ****     x2i = a[5] + a[7];
 1463              		.loc 2 1031 14 is_stmt 0 view .LVU593
 1464 0034 11ED184B 		vldr.64	d4, [r1, #-96]
1032:open303/Source/DSPCode/fft4g.c ****     x3r = a[4] - a[6];
 1465              		.loc 2 1032 21 view .LVU594
 1466 0038 11ED121B 		vldr.64	d1, [r1, #-72]
1032:open303/Source/DSPCode/fft4g.c ****     x3r = a[4] - a[6];
 1467              		.loc 2 1032 14 view .LVU595
 1468 003c 11ED165B 		vldr.64	d5, [r1, #-88]
1031:open303/Source/DSPCode/fft4g.c ****     x2i = a[5] + a[7];
 1469              		.loc 2 1031 9 view .LVU596
 1470 0040 34EE098B 		vadd.f64	d8, d4, d9
 1471              	.LVL171:
1032:open303/Source/DSPCode/fft4g.c ****     x3r = a[4] - a[6];
 1472              		.loc 2 1032 5 is_stmt 1 view .LVU597
1033:open303/Source/DSPCode/fft4g.c ****     x3i = a[5] - a[7];
 1473              		.loc 2 1033 9 is_stmt 0 view .LVU598
 1474 0044 34EE494B 		vsub.f64	d4, d4, d9
1032:open303/Source/DSPCode/fft4g.c ****     x3r = a[4] - a[6];
 1475              		.loc 2 1032 9 view .LVU599
 1476 0048 35EE010B 		vadd.f64	d0, d5, d1
 1477              	.LVL172:
1033:open303/Source/DSPCode/fft4g.c ****     x3i = a[5] - a[7];
 1478              		.loc 2 1033 5 is_stmt 1 view .LVU600
1034:open303/Source/DSPCode/fft4g.c ****     a[0] = x0r + x2r;
 1479              		.loc 2 1034 5 view .LVU601
1034:open303/Source/DSPCode/fft4g.c ****     a[0] = x0r + x2r;
 1480              		.loc 2 1034 9 is_stmt 0 view .LVU602
 1481 004c 35EE415B 		vsub.f64	d5, d5, d1
 1482              	.LVL173:
1035:open303/Source/DSPCode/fft4g.c ****     a[1] = x0i + x2i;
 1483              		.loc 2 1035 5 is_stmt 1 view .LVU603
1035:open303/Source/DSPCode/fft4g.c ****     a[1] = x0i + x2i;
 1484              		.loc 2 1035 16 is_stmt 0 view .LVU604
 1485 0050 32EE081B 		vadd.f64	d1, d2, d8
1037:open303/Source/DSPCode/fft4g.c ****     a[5] = x0i - x2i;
 1486              		.loc 2 1037 16 view .LVU605
 1487 0054 32EE482B 		vsub.f64	d2, d2, d8
 1488              	.LVL174:
1035:open303/Source/DSPCode/fft4g.c ****     a[1] = x0i + x2i;
 1489              		.loc 2 1035 10 view .LVU606
 1490 0058 01ED201B 		vstr.64	d1, [r1, #-128]
ARM GAS  /var/folders/7j/7n_15nxd0bx4q178nq7r8qsr0000gn/T//cc8hDKNO.s 			page 54


 1491              	.LVL175:
1036:open303/Source/DSPCode/fft4g.c ****     a[4] = x0r - x2r;
 1492              		.loc 2 1036 5 is_stmt 1 view .LVU607
1036:open303/Source/DSPCode/fft4g.c ****     a[4] = x0r - x2r;
 1493              		.loc 2 1036 16 is_stmt 0 view .LVU608
 1494 005c 33EE001B 		vadd.f64	d1, d3, d0
1038:open303/Source/DSPCode/fft4g.c ****     a[2] = x1r - x3i;
 1495              		.loc 2 1038 16 view .LVU609
 1496 0060 33EE403B 		vsub.f64	d3, d3, d0
 1497              	.LVL176:
1037:open303/Source/DSPCode/fft4g.c ****     a[5] = x0i - x2i;
 1498              		.loc 2 1037 10 view .LVU610
 1499 0064 01ED182B 		vstr.64	d2, [r1, #-96]
1038:open303/Source/DSPCode/fft4g.c ****     a[2] = x1r - x3i;
 1500              		.loc 2 1038 10 view .LVU611
 1501 0068 01ED163B 		vstr.64	d3, [r1, #-88]
1039:open303/Source/DSPCode/fft4g.c ****     a[3] = x1i + x3r;
 1502              		.loc 2 1039 16 view .LVU612
 1503 006c 36EE453B 		vsub.f64	d3, d6, d5
1041:open303/Source/DSPCode/fft4g.c ****     a[7] = x1i - x3r;
 1504              		.loc 2 1041 16 view .LVU613
 1505 0070 36EE056B 		vadd.f64	d6, d6, d5
 1506              	.LVL177:
1044:open303/Source/DSPCode/fft4g.c ****     x0r = a[8] + a[10];
1045:open303/Source/DSPCode/fft4g.c ****     x0i = a[9] + a[11];
 1507              		.loc 2 1045 14 view .LVU614
 1508 0074 11ED0E2B 		vldr.64	d2, [r1, #-56]
1039:open303/Source/DSPCode/fft4g.c ****     a[3] = x1i + x3r;
 1509              		.loc 2 1039 10 view .LVU615
 1510 0078 01ED1C3B 		vstr.64	d3, [r1, #-112]
1041:open303/Source/DSPCode/fft4g.c ****     a[7] = x1i - x3r;
 1511              		.loc 2 1041 10 view .LVU616
 1512 007c 01ED146B 		vstr.64	d6, [r1, #-80]
1040:open303/Source/DSPCode/fft4g.c ****     a[6] = x1r + x3i;
 1513              		.loc 2 1040 16 view .LVU617
 1514 0080 37EE043B 		vadd.f64	d3, d7, d4
1042:open303/Source/DSPCode/fft4g.c ****     wk1r = w[2];
 1515              		.loc 2 1042 16 view .LVU618
 1516 0084 37EE447B 		vsub.f64	d7, d7, d4
 1517              	.LVL178:
 1518              		.loc 2 1045 22 view .LVU619
 1519 0088 11ED0A6B 		vldr.64	d6, [r1, #-40]
1044:open303/Source/DSPCode/fft4g.c ****     x0i = a[9] + a[11];
 1520              		.loc 2 1044 22 view .LVU620
 1521 008c 11ED0C5B 		vldr.64	d5, [r1, #-48]
 1522              	.LVL179:
1042:open303/Source/DSPCode/fft4g.c ****     wk1r = w[2];
 1523              		.loc 2 1042 10 view .LVU621
 1524 0090 01ED127B 		vstr.64	d7, [r1, #-72]
 1525              		.loc 2 1045 9 view .LVU622
 1526 0094 32EE069B 		vadd.f64	d9, d2, d6
1046:open303/Source/DSPCode/fft4g.c ****     x1r = a[8] - a[10];
1047:open303/Source/DSPCode/fft4g.c ****     x1i = a[9] - a[11];
 1527              		.loc 2 1047 9 view .LVU623
 1528 0098 32EE462B 		vsub.f64	d2, d2, d6
1044:open303/Source/DSPCode/fft4g.c ****     x0i = a[9] + a[11];
 1529              		.loc 2 1044 14 view .LVU624
ARM GAS  /var/folders/7j/7n_15nxd0bx4q178nq7r8qsr0000gn/T//cc8hDKNO.s 			page 55


 1530 009c 11ED107B 		vldr.64	d7, [r1, #-64]
1048:open303/Source/DSPCode/fft4g.c ****     x2r = a[12] + a[14];
 1531              		.loc 2 1048 15 view .LVU625
 1532 00a0 11ED086B 		vldr.64	d6, [r1, #-32]
 1533              		.loc 2 1048 23 view .LVU626
 1534 00a4 11ED04BB 		vldr.64	d11, [r1, #-16]
1044:open303/Source/DSPCode/fft4g.c ****     x0i = a[9] + a[11];
 1535              		.loc 2 1044 9 view .LVU627
 1536 00a8 37EE050B 		vadd.f64	d0, d7, d5
 1537              	.LVL180:
1046:open303/Source/DSPCode/fft4g.c ****     x1r = a[8] - a[10];
 1538              		.loc 2 1046 9 view .LVU628
 1539 00ac 37EE457B 		vsub.f64	d7, d7, d5
 1540              		.loc 2 1048 9 view .LVU629
 1541 00b0 36EE0B8B 		vadd.f64	d8, d6, d11
 1542              	.LVL181:
1049:open303/Source/DSPCode/fft4g.c ****     x2i = a[13] + a[15];
1050:open303/Source/DSPCode/fft4g.c ****     x3r = a[12] - a[14];
 1543              		.loc 2 1050 9 view .LVU630
 1544 00b4 36EE4BBB 		vsub.f64	d11, d6, d11
1036:open303/Source/DSPCode/fft4g.c ****     a[4] = x0r - x2r;
 1545              		.loc 2 1036 10 view .LVU631
 1546 00b8 01ED1E1B 		vstr.64	d1, [r1, #-120]
 1547              	.LVL182:
1037:open303/Source/DSPCode/fft4g.c ****     a[5] = x0i - x2i;
 1548              		.loc 2 1037 5 is_stmt 1 view .LVU632
1038:open303/Source/DSPCode/fft4g.c ****     a[2] = x1r - x3i;
 1549              		.loc 2 1038 5 view .LVU633
1039:open303/Source/DSPCode/fft4g.c ****     a[3] = x1i + x3r;
 1550              		.loc 2 1039 5 view .LVU634
1040:open303/Source/DSPCode/fft4g.c ****     a[6] = x1r + x3i;
 1551              		.loc 2 1040 5 view .LVU635
1049:open303/Source/DSPCode/fft4g.c ****     x3r = a[12] - a[14];
 1552              		.loc 2 1049 23 is_stmt 0 view .LVU636
 1553 00bc 11ED02AB 		vldr.64	d10, [r1, #-8]
1049:open303/Source/DSPCode/fft4g.c ****     x3r = a[12] - a[14];
 1554              		.loc 2 1049 15 view .LVU637
 1555 00c0 11ED061B 		vldr.64	d1, [r1, #-24]
1051:open303/Source/DSPCode/fft4g.c ****     x3i = a[13] - a[15];
1052:open303/Source/DSPCode/fft4g.c ****     a[8] = x0r + x2r;
 1556              		.loc 2 1052 16 view .LVU638
 1557 00c4 30EE086B 		vadd.f64	d6, d0, d8
1053:open303/Source/DSPCode/fft4g.c ****     a[9] = x0i + x2i;
1054:open303/Source/DSPCode/fft4g.c ****     a[12] = x2i - x0i;
1055:open303/Source/DSPCode/fft4g.c ****     a[13] = x0r - x2r;
 1558              		.loc 2 1055 17 view .LVU639
 1559 00c8 30EE480B 		vsub.f64	d0, d0, d8
1049:open303/Source/DSPCode/fft4g.c ****     x3r = a[12] - a[14];
 1560              		.loc 2 1049 9 view .LVU640
 1561 00cc 31EE0A4B 		vadd.f64	d4, d1, d10
 1562              	.LVL183:
1051:open303/Source/DSPCode/fft4g.c ****     x3i = a[13] - a[15];
 1563              		.loc 2 1051 9 view .LVU641
 1564 00d0 31EE4A1B 		vsub.f64	d1, d1, d10
1040:open303/Source/DSPCode/fft4g.c ****     a[6] = x1r + x3i;
 1565              		.loc 2 1040 10 view .LVU642
 1566 00d4 01ED1A3B 		vstr.64	d3, [r1, #-104]
ARM GAS  /var/folders/7j/7n_15nxd0bx4q178nq7r8qsr0000gn/T//cc8hDKNO.s 			page 56


1041:open303/Source/DSPCode/fft4g.c ****     a[7] = x1i - x3r;
 1567              		.loc 2 1041 5 is_stmt 1 view .LVU643
1042:open303/Source/DSPCode/fft4g.c ****     wk1r = w[2];
 1568              		.loc 2 1042 5 view .LVU644
1043:open303/Source/DSPCode/fft4g.c ****     x0r = a[8] + a[10];
 1569              		.loc 2 1043 5 view .LVU645
1043:open303/Source/DSPCode/fft4g.c ****     x0r = a[8] + a[10];
 1570              		.loc 2 1043 10 is_stmt 0 view .LVU646
 1571 00d8 93ED003B 		vldr.64	d3, [r3]
 1572              	.LVL184:
1044:open303/Source/DSPCode/fft4g.c ****     x0i = a[9] + a[11];
 1573              		.loc 2 1044 5 is_stmt 1 view .LVU647
1045:open303/Source/DSPCode/fft4g.c ****     x1r = a[8] - a[10];
 1574              		.loc 2 1045 5 view .LVU648
1046:open303/Source/DSPCode/fft4g.c ****     x1i = a[9] - a[11];
 1575              		.loc 2 1046 5 view .LVU649
1047:open303/Source/DSPCode/fft4g.c ****     x2r = a[12] + a[14];
 1576              		.loc 2 1047 5 view .LVU650
1048:open303/Source/DSPCode/fft4g.c ****     x2i = a[13] + a[15];
 1577              		.loc 2 1048 5 view .LVU651
1049:open303/Source/DSPCode/fft4g.c ****     x3r = a[12] - a[14];
 1578              		.loc 2 1049 5 view .LVU652
1050:open303/Source/DSPCode/fft4g.c ****     x3i = a[13] - a[15];
 1579              		.loc 2 1050 5 view .LVU653
1051:open303/Source/DSPCode/fft4g.c ****     a[8] = x0r + x2r;
 1580              		.loc 2 1051 5 view .LVU654
1052:open303/Source/DSPCode/fft4g.c ****     a[9] = x0i + x2i;
 1581              		.loc 2 1052 5 view .LVU655
1052:open303/Source/DSPCode/fft4g.c ****     a[9] = x0i + x2i;
 1582              		.loc 2 1052 10 is_stmt 0 view .LVU656
 1583 00dc 01ED106B 		vstr.64	d6, [r1, #-64]
1053:open303/Source/DSPCode/fft4g.c ****     a[12] = x2i - x0i;
 1584              		.loc 2 1053 5 is_stmt 1 view .LVU657
1053:open303/Source/DSPCode/fft4g.c ****     a[12] = x2i - x0i;
 1585              		.loc 2 1053 16 is_stmt 0 view .LVU658
 1586 00e0 39EE046B 		vadd.f64	d6, d9, d4
1054:open303/Source/DSPCode/fft4g.c ****     a[13] = x0r - x2r;
 1587              		.loc 2 1054 17 view .LVU659
 1588 00e4 34EE494B 		vsub.f64	d4, d4, d9
 1589              	.LVL185:
1053:open303/Source/DSPCode/fft4g.c ****     a[12] = x2i - x0i;
 1590              		.loc 2 1053 10 view .LVU660
 1591 00e8 01ED0E6B 		vstr.64	d6, [r1, #-56]
1054:open303/Source/DSPCode/fft4g.c ****     a[13] = x0r - x2r;
 1592              		.loc 2 1054 5 is_stmt 1 view .LVU661
1054:open303/Source/DSPCode/fft4g.c ****     a[13] = x0r - x2r;
 1593              		.loc 2 1054 11 is_stmt 0 view .LVU662
 1594 00ec 01ED084B 		vstr.64	d4, [r1, #-32]
 1595              		.loc 2 1055 5 is_stmt 1 view .LVU663
1056:open303/Source/DSPCode/fft4g.c ****     x0r = x1r - x3i;
 1596              		.loc 2 1056 9 is_stmt 0 view .LVU664
 1597 00f0 37EE416B 		vsub.f64	d6, d7, d1
1057:open303/Source/DSPCode/fft4g.c ****     x0i = x1i + x3r;
1058:open303/Source/DSPCode/fft4g.c ****     a[10] = wk1r * (x0r - x0i);
1059:open303/Source/DSPCode/fft4g.c ****     a[11] = wk1r * (x0r + x0i);
1060:open303/Source/DSPCode/fft4g.c ****     x0r = x3i + x1r;
 1598              		.loc 2 1060 9 view .LVU665
ARM GAS  /var/folders/7j/7n_15nxd0bx4q178nq7r8qsr0000gn/T//cc8hDKNO.s 			page 57


 1599 00f4 37EE017B 		vadd.f64	d7, d7, d1
 1600              	.LVL186:
1055:open303/Source/DSPCode/fft4g.c ****     x0r = x1r - x3i;
 1601              		.loc 2 1055 11 view .LVU666
 1602 00f8 01ED060B 		vstr.64	d0, [r1, #-24]
 1603              	.LVL187:
1056:open303/Source/DSPCode/fft4g.c ****     x0r = x1r - x3i;
 1604              		.loc 2 1056 5 is_stmt 1 view .LVU667
1057:open303/Source/DSPCode/fft4g.c ****     x0i = x1i + x3r;
 1605              		.loc 2 1057 5 view .LVU668
1057:open303/Source/DSPCode/fft4g.c ****     x0i = x1i + x3r;
 1606              		.loc 2 1057 9 is_stmt 0 view .LVU669
 1607 00fc 32EE0B0B 		vadd.f64	d0, d2, d11
 1608              	.LVL188:
1058:open303/Source/DSPCode/fft4g.c ****     a[11] = wk1r * (x0r + x0i);
 1609              		.loc 2 1058 5 is_stmt 1 view .LVU670
1061:open303/Source/DSPCode/fft4g.c ****     x0i = x3r - x1i;
 1610              		.loc 2 1061 9 is_stmt 0 view .LVU671
 1611 0100 3BEE422B 		vsub.f64	d2, d11, d2
 1612              	.LVL189:
1058:open303/Source/DSPCode/fft4g.c ****     a[11] = wk1r * (x0r + x0i);
 1613              		.loc 2 1058 25 view .LVU672
 1614 0104 36EE404B 		vsub.f64	d4, d6, d0
1062:open303/Source/DSPCode/fft4g.c ****     a[14] = wk1r * (x0i - x0r);
 1615              		.loc 2 1062 25 view .LVU673
 1616 0108 32EE475B 		vsub.f64	d5, d2, d7
1059:open303/Source/DSPCode/fft4g.c ****     x0r = x3i + x1r;
 1617              		.loc 2 1059 25 view .LVU674
 1618 010c 36EE006B 		vadd.f64	d6, d6, d0
 1619              	.LVL190:
1063:open303/Source/DSPCode/fft4g.c ****     a[15] = wk1r * (x0i + x0r);
 1620              		.loc 2 1063 25 view .LVU675
 1621 0110 37EE027B 		vadd.f64	d7, d7, d2
1058:open303/Source/DSPCode/fft4g.c ****     a[11] = wk1r * (x0r + x0i);
 1622              		.loc 2 1058 18 view .LVU676
 1623 0114 24EE034B 		vmul.f64	d4, d4, d3
1059:open303/Source/DSPCode/fft4g.c ****     x0r = x3i + x1r;
 1624              		.loc 2 1059 18 view .LVU677
 1625 0118 26EE036B 		vmul.f64	d6, d6, d3
1062:open303/Source/DSPCode/fft4g.c ****     a[15] = wk1r * (x0i + x0r);
 1626              		.loc 2 1062 18 view .LVU678
 1627 011c 25EE035B 		vmul.f64	d5, d5, d3
 1628              		.loc 2 1063 18 view .LVU679
 1629 0120 27EE037B 		vmul.f64	d7, d7, d3
1058:open303/Source/DSPCode/fft4g.c ****     a[11] = wk1r * (x0r + x0i);
 1630              		.loc 2 1058 11 view .LVU680
 1631 0124 01ED0C4B 		vstr.64	d4, [r1, #-48]
1059:open303/Source/DSPCode/fft4g.c ****     x0r = x3i + x1r;
 1632              		.loc 2 1059 5 is_stmt 1 view .LVU681
1059:open303/Source/DSPCode/fft4g.c ****     x0r = x3i + x1r;
 1633              		.loc 2 1059 11 is_stmt 0 view .LVU682
 1634 0128 01ED0A6B 		vstr.64	d6, [r1, #-40]
1060:open303/Source/DSPCode/fft4g.c ****     x0i = x3r - x1i;
 1635              		.loc 2 1060 5 is_stmt 1 view .LVU683
 1636              	.LVL191:
1061:open303/Source/DSPCode/fft4g.c ****     a[14] = wk1r * (x0i - x0r);
 1637              		.loc 2 1061 5 view .LVU684
ARM GAS  /var/folders/7j/7n_15nxd0bx4q178nq7r8qsr0000gn/T//cc8hDKNO.s 			page 58


1062:open303/Source/DSPCode/fft4g.c ****     a[15] = wk1r * (x0i + x0r);
 1638              		.loc 2 1062 5 view .LVU685
1062:open303/Source/DSPCode/fft4g.c ****     a[15] = wk1r * (x0i + x0r);
 1639              		.loc 2 1062 11 is_stmt 0 view .LVU686
 1640 012c 01ED045B 		vstr.64	d5, [r1, #-16]
 1641              		.loc 2 1063 5 is_stmt 1 view .LVU687
 1642              		.loc 2 1063 11 is_stmt 0 view .LVU688
 1643 0130 01ED027B 		vstr.64	d7, [r1, #-8]
1064:open303/Source/DSPCode/fft4g.c ****     k1 = 0;
 1644              		.loc 2 1064 5 is_stmt 1 view .LVU689
 1645              	.LVL192:
1065:open303/Source/DSPCode/fft4g.c ****     for (j = 16; j < n; j += 16) {
 1646              		.loc 2 1065 5 view .LVU690
 1647              	.L47:
 1648              		.loc 2 1065 20 discriminator 1 view .LVU691
 1649 0134 9D1A     		subs	r5, r3, r2
 1650 0136 A842     		cmp	r0, r5
 1651 0138 02DC     		bgt	.L48
1066:open303/Source/DSPCode/fft4g.c ****         k1 += 2;
1067:open303/Source/DSPCode/fft4g.c ****         k2 = 2 * k1;
1068:open303/Source/DSPCode/fft4g.c ****         wk2r = w[k1];
1069:open303/Source/DSPCode/fft4g.c ****         wk2i = w[k1 + 1];
1070:open303/Source/DSPCode/fft4g.c ****         wk1r = w[k2];
1071:open303/Source/DSPCode/fft4g.c ****         wk1i = w[k2 + 1];
1072:open303/Source/DSPCode/fft4g.c ****         wk3r = wk1r - 2 * wk2i * wk1i;
1073:open303/Source/DSPCode/fft4g.c ****         wk3i = 2 * wk2i * wk1r - wk1i;
1074:open303/Source/DSPCode/fft4g.c ****         x0r = a[j] + a[j + 2];
1075:open303/Source/DSPCode/fft4g.c ****         x0i = a[j + 1] + a[j + 3];
1076:open303/Source/DSPCode/fft4g.c ****         x1r = a[j] - a[j + 2];
1077:open303/Source/DSPCode/fft4g.c ****         x1i = a[j + 1] - a[j + 3];
1078:open303/Source/DSPCode/fft4g.c ****         x2r = a[j + 4] + a[j + 6];
1079:open303/Source/DSPCode/fft4g.c ****         x2i = a[j + 5] + a[j + 7];
1080:open303/Source/DSPCode/fft4g.c ****         x3r = a[j + 4] - a[j + 6];
1081:open303/Source/DSPCode/fft4g.c ****         x3i = a[j + 5] - a[j + 7];
1082:open303/Source/DSPCode/fft4g.c ****         a[j] = x0r + x2r;
1083:open303/Source/DSPCode/fft4g.c ****         a[j + 1] = x0i + x2i;
1084:open303/Source/DSPCode/fft4g.c ****         x0r -= x2r;
1085:open303/Source/DSPCode/fft4g.c ****         x0i -= x2i;
1086:open303/Source/DSPCode/fft4g.c ****         a[j + 4] = wk2r * x0r - wk2i * x0i;
1087:open303/Source/DSPCode/fft4g.c ****         a[j + 5] = wk2r * x0i + wk2i * x0r;
1088:open303/Source/DSPCode/fft4g.c ****         x0r = x1r - x3i;
1089:open303/Source/DSPCode/fft4g.c ****         x0i = x1i + x3r;
1090:open303/Source/DSPCode/fft4g.c ****         a[j + 2] = wk1r * x0r - wk1i * x0i;
1091:open303/Source/DSPCode/fft4g.c ****         a[j + 3] = wk1r * x0i + wk1i * x0r;
1092:open303/Source/DSPCode/fft4g.c ****         x0r = x1r + x3i;
1093:open303/Source/DSPCode/fft4g.c ****         x0i = x1i - x3r;
1094:open303/Source/DSPCode/fft4g.c ****         a[j + 6] = wk3r * x0r - wk3i * x0i;
1095:open303/Source/DSPCode/fft4g.c ****         a[j + 7] = wk3r * x0i + wk3i * x0r;
1096:open303/Source/DSPCode/fft4g.c ****         wk1r = w[k2 + 2];
1097:open303/Source/DSPCode/fft4g.c ****         wk1i = w[k2 + 3];
1098:open303/Source/DSPCode/fft4g.c ****         wk3r = wk1r - 2 * wk2r * wk1i;
1099:open303/Source/DSPCode/fft4g.c ****         wk3i = 2 * wk2r * wk1r - wk1i;
1100:open303/Source/DSPCode/fft4g.c ****         x0r = a[j + 8] + a[j + 10];
1101:open303/Source/DSPCode/fft4g.c ****         x0i = a[j + 9] + a[j + 11];
1102:open303/Source/DSPCode/fft4g.c ****         x1r = a[j + 8] - a[j + 10];
1103:open303/Source/DSPCode/fft4g.c ****         x1i = a[j + 9] - a[j + 11];
1104:open303/Source/DSPCode/fft4g.c ****         x2r = a[j + 12] + a[j + 14];
ARM GAS  /var/folders/7j/7n_15nxd0bx4q178nq7r8qsr0000gn/T//cc8hDKNO.s 			page 59


1105:open303/Source/DSPCode/fft4g.c ****         x2i = a[j + 13] + a[j + 15];
1106:open303/Source/DSPCode/fft4g.c ****         x3r = a[j + 12] - a[j + 14];
1107:open303/Source/DSPCode/fft4g.c ****         x3i = a[j + 13] - a[j + 15];
1108:open303/Source/DSPCode/fft4g.c ****         a[j + 8] = x0r + x2r;
1109:open303/Source/DSPCode/fft4g.c ****         a[j + 9] = x0i + x2i;
1110:open303/Source/DSPCode/fft4g.c ****         x0r -= x2r;
1111:open303/Source/DSPCode/fft4g.c ****         x0i -= x2i;
1112:open303/Source/DSPCode/fft4g.c ****         a[j + 12] = -wk2i * x0r - wk2r * x0i;
1113:open303/Source/DSPCode/fft4g.c ****         a[j + 13] = -wk2i * x0i + wk2r * x0r;
1114:open303/Source/DSPCode/fft4g.c ****         x0r = x1r - x3i;
1115:open303/Source/DSPCode/fft4g.c ****         x0i = x1i + x3r;
1116:open303/Source/DSPCode/fft4g.c ****         a[j + 10] = wk1r * x0r - wk1i * x0i;
1117:open303/Source/DSPCode/fft4g.c ****         a[j + 11] = wk1r * x0i + wk1i * x0r;
1118:open303/Source/DSPCode/fft4g.c ****         x0r = x1r + x3i;
1119:open303/Source/DSPCode/fft4g.c ****         x0i = x1i - x3r;
1120:open303/Source/DSPCode/fft4g.c ****         a[j + 14] = wk3r * x0r - wk3i * x0i;
1121:open303/Source/DSPCode/fft4g.c ****         a[j + 15] = wk3r * x0i + wk3i * x0r;
1122:open303/Source/DSPCode/fft4g.c ****     }
1123:open303/Source/DSPCode/fft4g.c **** }
 1652              		.loc 2 1123 1 is_stmt 0 view .LVU692
 1653 013a BDEC108B 		vldm	sp!, {d8-d15}
 1654              		.cfi_remember_state
 1655              		.cfi_restore 94
 1656              		.cfi_restore 95
 1657              		.cfi_restore 92
 1658              		.cfi_restore 93
 1659              		.cfi_restore 90
 1660              		.cfi_restore 91
 1661              		.cfi_restore 88
 1662              		.cfi_restore 89
 1663              		.cfi_restore 86
 1664              		.cfi_restore 87
 1665              		.cfi_restore 84
 1666              		.cfi_restore 85
 1667              		.cfi_restore 82
 1668              		.cfi_restore 83
 1669              		.cfi_restore 80
 1670              		.cfi_restore 81
 1671              		.cfi_def_cfa_offset 12
 1672 013e 30BD     		pop	{r4, r5, pc}
 1673              	.L48:
 1674              		.cfi_restore_state
1066:open303/Source/DSPCode/fft4g.c ****         k1 += 2;
 1675              		.loc 2 1066 9 is_stmt 1 view .LVU693
 1676              	.LVL193:
1067:open303/Source/DSPCode/fft4g.c ****         wk2r = w[k1];
 1677              		.loc 2 1067 9 view .LVU694
1068:open303/Source/DSPCode/fft4g.c ****         wk2i = w[k1 + 1];
 1678              		.loc 2 1068 9 view .LVU695
1068:open303/Source/DSPCode/fft4g.c ****         wk2i = w[k1 + 1];
 1679              		.loc 2 1068 14 is_stmt 0 view .LVU696
 1680 0140 1D46     		mov	r5, r3
 1681 0142 1033     		adds	r3, r3, #16
 1682              	.LVL194:
1068:open303/Source/DSPCode/fft4g.c ****         wk2i = w[k1 + 1];
 1683              		.loc 2 1068 14 view .LVU697
 1684 0144 95ED007B 		vldr.64	d7, [r5]
ARM GAS  /var/folders/7j/7n_15nxd0bx4q178nq7r8qsr0000gn/T//cc8hDKNO.s 			page 60


 1685              	.LVL195:
1069:open303/Source/DSPCode/fft4g.c ****         wk1r = w[k2];
 1686              		.loc 2 1069 9 is_stmt 1 view .LVU698
1070:open303/Source/DSPCode/fft4g.c ****         wk1i = w[k2 + 1];
 1687              		.loc 2 1070 14 is_stmt 0 view .LVU699
 1688 0148 2546     		mov	r5, r4
 1689              	.LVL196:
1070:open303/Source/DSPCode/fft4g.c ****         wk1i = w[k2 + 1];
 1690              		.loc 2 1070 14 view .LVU700
 1691 014a 2034     		adds	r4, r4, #32
 1692 014c 95ED001B 		vldr.64	d1, [r5]
1069:open303/Source/DSPCode/fft4g.c ****         wk1r = w[k2];
 1693              		.loc 2 1069 14 view .LVU701
 1694 0150 13ED023B 		vldr.64	d3, [r3, #-8]
 1695              	.LVL197:
1070:open303/Source/DSPCode/fft4g.c ****         wk1i = w[k2 + 1];
 1696              		.loc 2 1070 9 is_stmt 1 view .LVU702
1071:open303/Source/DSPCode/fft4g.c ****         wk3r = wk1r - 2 * wk2i * wk1i;
 1697              		.loc 2 1071 9 view .LVU703
1071:open303/Source/DSPCode/fft4g.c ****         wk3r = wk1r - 2 * wk2i * wk1i;
 1698              		.loc 2 1071 14 is_stmt 0 view .LVU704
 1699 0154 14ED064B 		vldr.64	d4, [r4, #-24]
 1700              	.LVL198:
1072:open303/Source/DSPCode/fft4g.c ****         wk3i = 2 * wk2i * wk1r - wk1i;
 1701              		.loc 2 1072 9 is_stmt 1 view .LVU705
1072:open303/Source/DSPCode/fft4g.c ****         wk3i = 2 * wk2i * wk1r - wk1i;
 1702              		.loc 2 1072 14 is_stmt 0 view .LVU706
 1703 0158 B0EE41EB 		vmov.f64	d14, d1
1074:open303/Source/DSPCode/fft4g.c ****         x0i = a[j + 1] + a[j + 3];
 1704              		.loc 2 1074 18 view .LVU707
 1705 015c 0D46     		mov	r5, r1
1072:open303/Source/DSPCode/fft4g.c ****         wk3i = 2 * wk2i * wk1r - wk1i;
 1706              		.loc 2 1072 25 view .LVU708
 1707 015e 33EE036B 		vadd.f64	d6, d3, d3
1074:open303/Source/DSPCode/fft4g.c ****         x0i = a[j + 1] + a[j + 3];
 1708              		.loc 2 1074 18 view .LVU709
 1709 0162 8031     		adds	r1, r1, #128
1073:open303/Source/DSPCode/fft4g.c ****         x0r = a[j] + a[j + 2];
 1710              		.loc 2 1073 14 view .LVU710
 1711 0164 B0EE44DB 		vmov.f64	d13, d4
1074:open303/Source/DSPCode/fft4g.c ****         x0i = a[j + 1] + a[j + 3];
 1712              		.loc 2 1074 18 view .LVU711
 1713 0168 95ED005B 		vldr.64	d5, [r5]
1072:open303/Source/DSPCode/fft4g.c ****         wk3i = 2 * wk2i * wk1r - wk1i;
 1714              		.loc 2 1072 14 view .LVU712
 1715 016c A6EE44EB 		vfms.f64	d14, d6, d4
 1716              	.LVL199:
1073:open303/Source/DSPCode/fft4g.c ****         x0r = a[j] + a[j + 2];
 1717              		.loc 2 1073 9 is_stmt 1 view .LVU713
1073:open303/Source/DSPCode/fft4g.c ****         x0r = a[j] + a[j + 2];
 1718              		.loc 2 1073 14 is_stmt 0 view .LVU714
 1719 0170 96EE01DB 		vfnms.f64	d13, d6, d1
 1720              	.LVL200:
1074:open303/Source/DSPCode/fft4g.c ****         x0i = a[j + 1] + a[j + 3];
 1721              		.loc 2 1074 9 is_stmt 1 view .LVU715
1074:open303/Source/DSPCode/fft4g.c ****         x0i = a[j + 1] + a[j + 3];
 1722              		.loc 2 1074 29 is_stmt 0 view .LVU716
ARM GAS  /var/folders/7j/7n_15nxd0bx4q178nq7r8qsr0000gn/T//cc8hDKNO.s 			page 61


 1723 0174 11ED1C2B 		vldr.64	d2, [r1, #-112]
1075:open303/Source/DSPCode/fft4g.c ****         x1r = a[j] - a[j + 2];
 1724              		.loc 2 1075 22 view .LVU717
 1725 0178 11ED1E6B 		vldr.64	d6, [r1, #-120]
1078:open303/Source/DSPCode/fft4g.c ****         x2i = a[j + 5] + a[j + 7];
 1726              		.loc 2 1078 22 view .LVU718
 1727 017c 11ED18AB 		vldr.64	d10, [r1, #-96]
1075:open303/Source/DSPCode/fft4g.c ****         x1r = a[j] - a[j + 2];
 1728              		.loc 2 1075 33 view .LVU719
 1729 0180 11ED1ABB 		vldr.64	d11, [r1, #-104]
1078:open303/Source/DSPCode/fft4g.c ****         x2i = a[j + 5] + a[j + 7];
 1730              		.loc 2 1078 33 view .LVU720
 1731 0184 11ED14CB 		vldr.64	d12, [r1, #-80]
1074:open303/Source/DSPCode/fft4g.c ****         x0i = a[j + 1] + a[j + 3];
 1732              		.loc 2 1074 13 view .LVU721
 1733 0188 35EE029B 		vadd.f64	d9, d5, d2
 1734              	.LVL201:
1075:open303/Source/DSPCode/fft4g.c ****         x1r = a[j] - a[j + 2];
 1735              		.loc 2 1075 9 is_stmt 1 view .LVU722
1075:open303/Source/DSPCode/fft4g.c ****         x1r = a[j] - a[j + 2];
 1736              		.loc 2 1075 13 is_stmt 0 view .LVU723
 1737 018c 36EE0B8B 		vadd.f64	d8, d6, d11
 1738              	.LVL202:
1076:open303/Source/DSPCode/fft4g.c ****         x1i = a[j + 1] - a[j + 3];
 1739              		.loc 2 1076 9 is_stmt 1 view .LVU724
1076:open303/Source/DSPCode/fft4g.c ****         x1i = a[j + 1] - a[j + 3];
 1740              		.loc 2 1076 13 is_stmt 0 view .LVU725
 1741 0190 35EE425B 		vsub.f64	d5, d5, d2
 1742              	.LVL203:
1077:open303/Source/DSPCode/fft4g.c ****         x2r = a[j + 4] + a[j + 6];
 1743              		.loc 2 1077 9 is_stmt 1 view .LVU726
1077:open303/Source/DSPCode/fft4g.c ****         x2r = a[j + 4] + a[j + 6];
 1744              		.loc 2 1077 13 is_stmt 0 view .LVU727
 1745 0194 36EE4BBB 		vsub.f64	d11, d6, d11
 1746              	.LVL204:
1078:open303/Source/DSPCode/fft4g.c ****         x2i = a[j + 5] + a[j + 7];
 1747              		.loc 2 1078 9 is_stmt 1 view .LVU728
1078:open303/Source/DSPCode/fft4g.c ****         x2i = a[j + 5] + a[j + 7];
 1748              		.loc 2 1078 13 is_stmt 0 view .LVU729
 1749 0198 3AEE0C6B 		vadd.f64	d6, d10, d12
 1750              	.LVL205:
1079:open303/Source/DSPCode/fft4g.c ****         x3r = a[j + 4] - a[j + 6];
 1751              		.loc 2 1079 9 is_stmt 1 view .LVU730
1080:open303/Source/DSPCode/fft4g.c ****         x3i = a[j + 5] - a[j + 7];
 1752              		.loc 2 1080 13 is_stmt 0 view .LVU731
 1753 019c 3AEE4CCB 		vsub.f64	d12, d10, d12
1079:open303/Source/DSPCode/fft4g.c ****         x3r = a[j + 4] - a[j + 6];
 1754              		.loc 2 1079 22 view .LVU732
 1755 01a0 11ED16FB 		vldr.64	d15, [r1, #-88]
1079:open303/Source/DSPCode/fft4g.c ****         x3r = a[j + 4] - a[j + 6];
 1756              		.loc 2 1079 13 view .LVU733
 1757 01a4 11ED122B 		vldr.64	d2, [r1, #-72]
1082:open303/Source/DSPCode/fft4g.c ****         a[j + 1] = x0i + x2i;
 1758              		.loc 2 1082 20 view .LVU734
 1759 01a8 39EE06AB 		vadd.f64	d10, d9, d6
1084:open303/Source/DSPCode/fft4g.c ****         x0i -= x2i;
 1760              		.loc 2 1084 13 view .LVU735
ARM GAS  /var/folders/7j/7n_15nxd0bx4q178nq7r8qsr0000gn/T//cc8hDKNO.s 			page 62


 1761 01ac 39EE466B 		vsub.f64	d6, d9, d6
 1762              	.LVL206:
1079:open303/Source/DSPCode/fft4g.c ****         x3r = a[j + 4] - a[j + 6];
 1763              		.loc 2 1079 13 view .LVU736
 1764 01b0 3FEE022B 		vadd.f64	d2, d15, d2
 1765              	.LVL207:
1080:open303/Source/DSPCode/fft4g.c ****         x3i = a[j + 5] - a[j + 7];
 1766              		.loc 2 1080 9 is_stmt 1 view .LVU737
1081:open303/Source/DSPCode/fft4g.c ****         a[j] = x0r + x2r;
 1767              		.loc 2 1081 9 view .LVU738
1082:open303/Source/DSPCode/fft4g.c ****         a[j + 1] = x0i + x2i;
 1768              		.loc 2 1082 14 is_stmt 0 view .LVU739
 1769 01b4 01ED20AB 		vstr.64	d10, [r1, #-128]
1083:open303/Source/DSPCode/fft4g.c ****         x0r -= x2r;
 1770              		.loc 2 1083 24 view .LVU740
 1771 01b8 38EE02AB 		vadd.f64	d10, d8, d2
1085:open303/Source/DSPCode/fft4g.c ****         a[j + 4] = wk2r * x0r - wk2i * x0i;
 1772              		.loc 2 1085 13 view .LVU741
 1773 01bc 38EE422B 		vsub.f64	d2, d8, d2
 1774              	.LVL208:
1081:open303/Source/DSPCode/fft4g.c ****         a[j] = x0r + x2r;
 1775              		.loc 2 1081 13 view .LVU742
 1776 01c0 11ED120B 		vldr.64	d0, [r1, #-72]
1086:open303/Source/DSPCode/fft4g.c ****         a[j + 5] = wk2r * x0i + wk2i * x0r;
 1777              		.loc 2 1086 18 view .LVU743
 1778 01c4 22EE438B 		vnmul.f64	d8, d2, d3
 1779              	.LVL209:
1081:open303/Source/DSPCode/fft4g.c ****         a[j] = x0r + x2r;
 1780              		.loc 2 1081 13 view .LVU744
 1781 01c8 3FEE40FB 		vsub.f64	d15, d15, d0
 1782              	.LVL210:
1082:open303/Source/DSPCode/fft4g.c ****         a[j + 1] = x0i + x2i;
 1783              		.loc 2 1082 9 is_stmt 1 view .LVU745
1083:open303/Source/DSPCode/fft4g.c ****         x0r -= x2r;
 1784              		.loc 2 1083 9 view .LVU746
1083:open303/Source/DSPCode/fft4g.c ****         x0r -= x2r;
 1785              		.loc 2 1083 18 is_stmt 0 view .LVU747
 1786 01cc 01ED1EAB 		vstr.64	d10, [r1, #-120]
 1787              	.LVL211:
1084:open303/Source/DSPCode/fft4g.c ****         x0i -= x2i;
 1788              		.loc 2 1084 9 is_stmt 1 view .LVU748
1085:open303/Source/DSPCode/fft4g.c ****         a[j + 4] = wk2r * x0r - wk2i * x0i;
 1789              		.loc 2 1085 9 view .LVU749
1086:open303/Source/DSPCode/fft4g.c ****         a[j + 5] = wk2r * x0i + wk2i * x0r;
 1790              		.loc 2 1086 9 view .LVU750
1086:open303/Source/DSPCode/fft4g.c ****         a[j + 5] = wk2r * x0i + wk2i * x0r;
 1791              		.loc 2 1086 18 is_stmt 0 view .LVU751
 1792 01d0 A7EE068B 		vfma.f64	d8, d7, d6
1087:open303/Source/DSPCode/fft4g.c ****         x0r = x1r - x3i;
 1793              		.loc 2 1087 38 view .LVU752
 1794 01d4 23EE066B 		vmul.f64	d6, d3, d6
 1795              	.LVL212:
1104:open303/Source/DSPCode/fft4g.c ****         x2i = a[j + 13] + a[j + 15];
 1796              		.loc 2 1104 23 view .LVU753
 1797 01d8 11ED08AB 		vldr.64	d10, [r1, #-32]
1107:open303/Source/DSPCode/fft4g.c ****         a[j + 8] = x0r + x2r;
 1798              		.loc 2 1107 13 view .LVU754
ARM GAS  /var/folders/7j/7n_15nxd0bx4q178nq7r8qsr0000gn/T//cc8hDKNO.s 			page 63


 1799 01dc 11ED020B 		vldr.64	d0, [r1, #-8]
1087:open303/Source/DSPCode/fft4g.c ****         x0r = x1r - x3i;
 1800              		.loc 2 1087 18 view .LVU755
 1801 01e0 A7EE026B 		vfma.f64	d6, d7, d2
1089:open303/Source/DSPCode/fft4g.c ****         a[j + 2] = wk1r * x0r - wk1i * x0i;
 1802              		.loc 2 1089 13 view .LVU756
 1803 01e4 3BEE0C2B 		vadd.f64	d2, d11, d12
 1804              	.LVL213:
1093:open303/Source/DSPCode/fft4g.c ****         a[j + 6] = wk3r * x0r - wk3i * x0i;
 1805              		.loc 2 1093 13 view .LVU757
 1806 01e8 3BEE4CBB 		vsub.f64	d11, d11, d12
 1807              	.LVL214:
1086:open303/Source/DSPCode/fft4g.c ****         a[j + 5] = wk2r * x0i + wk2i * x0r;
 1808              		.loc 2 1086 18 view .LVU758
 1809 01ec 01ED188B 		vstr.64	d8, [r1, #-96]
 1810              	.LVL215:
1087:open303/Source/DSPCode/fft4g.c ****         x0r = x1r - x3i;
 1811              		.loc 2 1087 9 is_stmt 1 view .LVU759
1088:open303/Source/DSPCode/fft4g.c ****         x0i = x1i + x3r;
 1812              		.loc 2 1088 13 is_stmt 0 view .LVU760
 1813 01f0 35EE4F8B 		vsub.f64	d8, d5, d15
1092:open303/Source/DSPCode/fft4g.c ****         x0i = x1i - x3r;
 1814              		.loc 2 1092 13 view .LVU761
 1815 01f4 35EE0F5B 		vadd.f64	d5, d5, d15
 1816              	.LVL216:
1087:open303/Source/DSPCode/fft4g.c ****         x0r = x1r - x3i;
 1817              		.loc 2 1087 18 view .LVU762
 1818 01f8 01ED166B 		vstr.64	d6, [r1, #-88]
 1819              	.LVL217:
1088:open303/Source/DSPCode/fft4g.c ****         x0i = x1i + x3r;
 1820              		.loc 2 1088 9 is_stmt 1 view .LVU763
1089:open303/Source/DSPCode/fft4g.c ****         a[j + 2] = wk1r * x0r - wk1i * x0i;
 1821              		.loc 2 1089 9 view .LVU764
1090:open303/Source/DSPCode/fft4g.c ****         a[j + 3] = wk1r * x0i + wk1i * x0r;
 1822              		.loc 2 1090 9 view .LVU765
1090:open303/Source/DSPCode/fft4g.c ****         a[j + 3] = wk1r * x0i + wk1i * x0r;
 1823              		.loc 2 1090 18 is_stmt 0 view .LVU766
 1824 01fc 22EE446B 		vnmul.f64	d6, d2, d4
1091:open303/Source/DSPCode/fft4g.c ****         x0r = x1r + x3i;
 1825              		.loc 2 1091 38 view .LVU767
 1826 0200 24EE084B 		vmul.f64	d4, d4, d8
 1827              	.LVL218:
1090:open303/Source/DSPCode/fft4g.c ****         a[j + 3] = wk1r * x0i + wk1i * x0r;
 1828              		.loc 2 1090 18 view .LVU768
 1829 0204 A1EE086B 		vfma.f64	d6, d1, d8
1091:open303/Source/DSPCode/fft4g.c ****         x0r = x1r + x3i;
 1830              		.loc 2 1091 18 view .LVU769
 1831 0208 A1EE024B 		vfma.f64	d4, d1, d2
1104:open303/Source/DSPCode/fft4g.c ****         x2i = a[j + 13] + a[j + 15];
 1832              		.loc 2 1104 35 view .LVU770
 1833 020c 11ED04CB 		vldr.64	d12, [r1, #-16]
 1834              	.LVL219:
1090:open303/Source/DSPCode/fft4g.c ****         a[j + 3] = wk1r * x0i + wk1i * x0r;
 1835              		.loc 2 1090 18 view .LVU771
 1836 0210 01ED1C6B 		vstr.64	d6, [r1, #-112]
1091:open303/Source/DSPCode/fft4g.c ****         x0r = x1r + x3i;
 1837              		.loc 2 1091 9 is_stmt 1 view .LVU772
ARM GAS  /var/folders/7j/7n_15nxd0bx4q178nq7r8qsr0000gn/T//cc8hDKNO.s 			page 64


1094:open303/Source/DSPCode/fft4g.c ****         a[j + 7] = wk3r * x0i + wk3i * x0r;
 1838              		.loc 2 1094 18 is_stmt 0 view .LVU773
 1839 0214 2BEE4D6B 		vnmul.f64	d6, d11, d13
1095:open303/Source/DSPCode/fft4g.c ****         wk1r = w[k2 + 2];
 1840              		.loc 2 1095 38 view .LVU774
 1841 0218 2DEE05DB 		vmul.f64	d13, d13, d5
 1842              	.LVL220:
1094:open303/Source/DSPCode/fft4g.c ****         a[j + 7] = wk3r * x0i + wk3i * x0r;
 1843              		.loc 2 1094 18 view .LVU775
 1844 021c AEEE056B 		vfma.f64	d6, d14, d5
1095:open303/Source/DSPCode/fft4g.c ****         wk1r = w[k2 + 2];
 1845              		.loc 2 1095 18 view .LVU776
 1846 0220 AEEE0BDB 		vfma.f64	d13, d14, d11
1091:open303/Source/DSPCode/fft4g.c ****         x0r = x1r + x3i;
 1847              		.loc 2 1091 18 view .LVU777
 1848 0224 01ED1A4B 		vstr.64	d4, [r1, #-104]
1092:open303/Source/DSPCode/fft4g.c ****         x0i = x1i - x3r;
 1849              		.loc 2 1092 9 is_stmt 1 view .LVU778
 1850              	.LVL221:
1093:open303/Source/DSPCode/fft4g.c ****         a[j + 6] = wk3r * x0r - wk3i * x0i;
 1851              		.loc 2 1093 9 view .LVU779
1094:open303/Source/DSPCode/fft4g.c ****         a[j + 7] = wk3r * x0i + wk3i * x0r;
 1852              		.loc 2 1094 9 view .LVU780
1094:open303/Source/DSPCode/fft4g.c ****         a[j + 7] = wk3r * x0i + wk3i * x0r;
 1853              		.loc 2 1094 18 is_stmt 0 view .LVU781
 1854 0228 01ED146B 		vstr.64	d6, [r1, #-80]
1095:open303/Source/DSPCode/fft4g.c ****         wk1r = w[k2 + 2];
 1855              		.loc 2 1095 9 is_stmt 1 view .LVU782
1098:open303/Source/DSPCode/fft4g.c ****         wk3i = 2 * wk2r * wk1r - wk1i;
 1856              		.loc 2 1098 25 is_stmt 0 view .LVU783
 1857 022c 37EE076B 		vadd.f64	d6, d7, d7
1100:open303/Source/DSPCode/fft4g.c ****         x0i = a[j + 9] + a[j + 11];
 1858              		.loc 2 1100 34 view .LVU784
 1859 0230 11ED0C2B 		vldr.64	d2, [r1, #-48]
1095:open303/Source/DSPCode/fft4g.c ****         wk1r = w[k2 + 2];
 1860              		.loc 2 1095 18 view .LVU785
 1861 0234 01ED12DB 		vstr.64	d13, [r1, #-72]
1096:open303/Source/DSPCode/fft4g.c ****         wk1i = w[k2 + 3];
 1862              		.loc 2 1096 9 is_stmt 1 view .LVU786
1096:open303/Source/DSPCode/fft4g.c ****         wk1i = w[k2 + 3];
 1863              		.loc 2 1096 14 is_stmt 0 view .LVU787
 1864 0238 14ED041B 		vldr.64	d1, [r4, #-16]
 1865              	.LVL222:
1097:open303/Source/DSPCode/fft4g.c ****         wk3r = wk1r - 2 * wk2r * wk1i;
 1866              		.loc 2 1097 9 is_stmt 1 view .LVU788
1097:open303/Source/DSPCode/fft4g.c ****         wk3r = wk1r - 2 * wk2r * wk1i;
 1867              		.loc 2 1097 14 is_stmt 0 view .LVU789
 1868 023c 14ED025B 		vldr.64	d5, [r4, #-8]
 1869              	.LVL223:
1098:open303/Source/DSPCode/fft4g.c ****         wk3i = 2 * wk2r * wk1r - wk1i;
 1870              		.loc 2 1098 9 is_stmt 1 view .LVU790
1101:open303/Source/DSPCode/fft4g.c ****         x1r = a[j + 8] - a[j + 10];
 1871              		.loc 2 1101 22 is_stmt 0 view .LVU791
 1872 0240 11ED0E4B 		vldr.64	d4, [r1, #-56]
1098:open303/Source/DSPCode/fft4g.c ****         wk3i = 2 * wk2r * wk1r - wk1i;
 1873              		.loc 2 1098 14 view .LVU792
 1874 0244 B0EE41EB 		vmov.f64	d14, d1
ARM GAS  /var/folders/7j/7n_15nxd0bx4q178nq7r8qsr0000gn/T//cc8hDKNO.s 			page 65


 1875              	.LVL224:
1099:open303/Source/DSPCode/fft4g.c ****         x0r = a[j + 8] + a[j + 10];
 1876              		.loc 2 1099 14 view .LVU793
 1877 0248 B0EE45DB 		vmov.f64	d13, d5
1098:open303/Source/DSPCode/fft4g.c ****         wk3i = 2 * wk2r * wk1r - wk1i;
 1878              		.loc 2 1098 14 view .LVU794
 1879 024c A6EE45EB 		vfms.f64	d14, d6, d5
 1880              	.LVL225:
1099:open303/Source/DSPCode/fft4g.c ****         x0r = a[j + 8] + a[j + 10];
 1881              		.loc 2 1099 9 is_stmt 1 view .LVU795
1099:open303/Source/DSPCode/fft4g.c ****         x0r = a[j + 8] + a[j + 10];
 1882              		.loc 2 1099 14 is_stmt 0 view .LVU796
 1883 0250 96EE01DB 		vfnms.f64	d13, d6, d1
 1884              	.LVL226:
1100:open303/Source/DSPCode/fft4g.c ****         x0i = a[j + 9] + a[j + 11];
 1885              		.loc 2 1100 9 is_stmt 1 view .LVU797
1101:open303/Source/DSPCode/fft4g.c ****         x1r = a[j + 8] - a[j + 10];
 1886              		.loc 2 1101 34 is_stmt 0 view .LVU798
 1887 0254 11ED0ABB 		vldr.64	d11, [r1, #-40]
 1888              	.LVL227:
1100:open303/Source/DSPCode/fft4g.c ****         x0i = a[j + 9] + a[j + 11];
 1889              		.loc 2 1100 22 view .LVU799
 1890 0258 11ED106B 		vldr.64	d6, [r1, #-64]
1105:open303/Source/DSPCode/fft4g.c ****         x3r = a[j + 12] - a[j + 14];
 1891              		.loc 2 1105 23 view .LVU800
 1892 025c 11ED06FB 		vldr.64	d15, [r1, #-24]
 1893              	.LVL228:
1101:open303/Source/DSPCode/fft4g.c ****         x1r = a[j + 8] - a[j + 10];
 1894              		.loc 2 1101 13 view .LVU801
 1895 0260 34EE0B8B 		vadd.f64	d8, d4, d11
1100:open303/Source/DSPCode/fft4g.c ****         x0i = a[j + 9] + a[j + 11];
 1896              		.loc 2 1100 13 view .LVU802
 1897 0264 36EE029B 		vadd.f64	d9, d6, d2
 1898              	.LVL229:
1101:open303/Source/DSPCode/fft4g.c ****         x1r = a[j + 8] - a[j + 10];
 1899              		.loc 2 1101 9 is_stmt 1 view .LVU803
1102:open303/Source/DSPCode/fft4g.c ****         x1i = a[j + 9] - a[j + 11];
 1900              		.loc 2 1102 9 view .LVU804
1103:open303/Source/DSPCode/fft4g.c ****         x2r = a[j + 12] + a[j + 14];
 1901              		.loc 2 1103 13 is_stmt 0 view .LVU805
 1902 0268 34EE4BBB 		vsub.f64	d11, d4, d11
1102:open303/Source/DSPCode/fft4g.c ****         x1i = a[j + 9] - a[j + 11];
 1903              		.loc 2 1102 13 view .LVU806
 1904 026c 36EE426B 		vsub.f64	d6, d6, d2
 1905              	.LVL230:
1103:open303/Source/DSPCode/fft4g.c ****         x2r = a[j + 12] + a[j + 14];
 1906              		.loc 2 1103 9 is_stmt 1 view .LVU807
1104:open303/Source/DSPCode/fft4g.c ****         x2i = a[j + 13] + a[j + 15];
 1907              		.loc 2 1104 9 view .LVU808
1104:open303/Source/DSPCode/fft4g.c ****         x2i = a[j + 13] + a[j + 15];
 1908              		.loc 2 1104 13 is_stmt 0 view .LVU809
 1909 0270 3AEE0C2B 		vadd.f64	d2, d10, d12
 1910              	.LVL231:
1105:open303/Source/DSPCode/fft4g.c ****         x3r = a[j + 12] - a[j + 14];
 1911              		.loc 2 1105 9 is_stmt 1 view .LVU810
1106:open303/Source/DSPCode/fft4g.c ****         x3i = a[j + 13] - a[j + 15];
 1912              		.loc 2 1106 13 is_stmt 0 view .LVU811
ARM GAS  /var/folders/7j/7n_15nxd0bx4q178nq7r8qsr0000gn/T//cc8hDKNO.s 			page 66


 1913 0274 3AEE4CCB 		vsub.f64	d12, d10, d12
1105:open303/Source/DSPCode/fft4g.c ****         x3r = a[j + 12] - a[j + 14];
 1914              		.loc 2 1105 13 view .LVU812
 1915 0278 11ED024B 		vldr.64	d4, [r1, #-8]
1108:open303/Source/DSPCode/fft4g.c ****         a[j + 9] = x0i + x2i;
 1916              		.loc 2 1108 24 view .LVU813
 1917 027c 39EE02AB 		vadd.f64	d10, d9, d2
1110:open303/Source/DSPCode/fft4g.c ****         x0i -= x2i;
 1918              		.loc 2 1110 13 view .LVU814
 1919 0280 39EE422B 		vsub.f64	d2, d9, d2
 1920              	.LVL232:
1105:open303/Source/DSPCode/fft4g.c ****         x3r = a[j + 12] - a[j + 14];
 1921              		.loc 2 1105 13 view .LVU815
 1922 0284 3FEE044B 		vadd.f64	d4, d15, d4
 1923              	.LVL233:
1106:open303/Source/DSPCode/fft4g.c ****         x3i = a[j + 13] - a[j + 15];
 1924              		.loc 2 1106 9 is_stmt 1 view .LVU816
1107:open303/Source/DSPCode/fft4g.c ****         a[j + 8] = x0r + x2r;
 1925              		.loc 2 1107 9 view .LVU817
1107:open303/Source/DSPCode/fft4g.c ****         a[j + 8] = x0r + x2r;
 1926              		.loc 2 1107 13 is_stmt 0 view .LVU818
 1927 0288 3FEE40FB 		vsub.f64	d15, d15, d0
 1928              	.LVL234:
1108:open303/Source/DSPCode/fft4g.c ****         a[j + 9] = x0i + x2i;
 1929              		.loc 2 1108 9 is_stmt 1 view .LVU819
1108:open303/Source/DSPCode/fft4g.c ****         a[j + 9] = x0i + x2i;
 1930              		.loc 2 1108 18 is_stmt 0 view .LVU820
 1931 028c 01ED10AB 		vstr.64	d10, [r1, #-64]
1109:open303/Source/DSPCode/fft4g.c ****         x0r -= x2r;
 1932              		.loc 2 1109 9 is_stmt 1 view .LVU821
1109:open303/Source/DSPCode/fft4g.c ****         x0r -= x2r;
 1933              		.loc 2 1109 24 is_stmt 0 view .LVU822
 1934 0290 38EE04AB 		vadd.f64	d10, d8, d4
1111:open303/Source/DSPCode/fft4g.c ****         a[j + 12] = -wk2i * x0r - wk2r * x0i;
 1935              		.loc 2 1111 13 view .LVU823
 1936 0294 38EE444B 		vsub.f64	d4, d8, d4
 1937              	.LVL235:
1109:open303/Source/DSPCode/fft4g.c ****         x0r -= x2r;
 1938              		.loc 2 1109 18 view .LVU824
 1939 0298 01ED0EAB 		vstr.64	d10, [r1, #-56]
1110:open303/Source/DSPCode/fft4g.c ****         x0i -= x2i;
 1940              		.loc 2 1110 9 is_stmt 1 view .LVU825
 1941              	.LVL236:
1111:open303/Source/DSPCode/fft4g.c ****         a[j + 12] = -wk2i * x0r - wk2r * x0i;
 1942              		.loc 2 1111 9 view .LVU826
1112:open303/Source/DSPCode/fft4g.c ****         a[j + 13] = -wk2i * x0i + wk2r * x0r;
 1943              		.loc 2 1112 9 view .LVU827
1112:open303/Source/DSPCode/fft4g.c ****         a[j + 13] = -wk2i * x0i + wk2r * x0r;
 1944              		.loc 2 1112 19 is_stmt 0 view .LVU828
 1945 029c 24EE478B 		vnmul.f64	d8, d4, d7
1113:open303/Source/DSPCode/fft4g.c ****         x0r = x1r - x3i;
 1946              		.loc 2 1113 40 view .LVU829
 1947 02a0 27EE027B 		vmul.f64	d7, d7, d2
 1948              	.LVL237:
1112:open303/Source/DSPCode/fft4g.c ****         a[j + 13] = -wk2i * x0i + wk2r * x0r;
 1949              		.loc 2 1112 19 view .LVU830
 1950 02a4 A3EE428B 		vfms.f64	d8, d3, d2
ARM GAS  /var/folders/7j/7n_15nxd0bx4q178nq7r8qsr0000gn/T//cc8hDKNO.s 			page 67


1113:open303/Source/DSPCode/fft4g.c ****         x0r = x1r - x3i;
 1951              		.loc 2 1113 19 view .LVU831
 1952 02a8 A3EE447B 		vfms.f64	d7, d3, d4
1114:open303/Source/DSPCode/fft4g.c ****         x0i = x1i + x3r;
 1953              		.loc 2 1114 13 view .LVU832
 1954 02ac 36EE4F3B 		vsub.f64	d3, d6, d15
 1955              	.LVL238:
1118:open303/Source/DSPCode/fft4g.c ****         x0i = x1i - x3r;
 1956              		.loc 2 1118 13 view .LVU833
 1957 02b0 36EE0F6B 		vadd.f64	d6, d6, d15
 1958              	.LVL239:
1112:open303/Source/DSPCode/fft4g.c ****         a[j + 13] = -wk2i * x0i + wk2r * x0r;
 1959              		.loc 2 1112 19 view .LVU834
 1960 02b4 01ED088B 		vstr.64	d8, [r1, #-32]
 1961              	.LVL240:
1113:open303/Source/DSPCode/fft4g.c ****         x0r = x1r - x3i;
 1962              		.loc 2 1113 9 is_stmt 1 view .LVU835
1113:open303/Source/DSPCode/fft4g.c ****         x0r = x1r - x3i;
 1963              		.loc 2 1113 19 is_stmt 0 view .LVU836
 1964 02b8 01ED067B 		vstr.64	d7, [r1, #-24]
 1965              	.LVL241:
1114:open303/Source/DSPCode/fft4g.c ****         x0i = x1i + x3r;
 1966              		.loc 2 1114 9 is_stmt 1 view .LVU837
1115:open303/Source/DSPCode/fft4g.c ****         a[j + 10] = wk1r * x0r - wk1i * x0i;
 1967              		.loc 2 1115 9 view .LVU838
1115:open303/Source/DSPCode/fft4g.c ****         a[j + 10] = wk1r * x0r - wk1i * x0i;
 1968              		.loc 2 1115 13 is_stmt 0 view .LVU839
 1969 02bc 3BEE0C7B 		vadd.f64	d7, d11, d12
 1970              	.LVL242:
1116:open303/Source/DSPCode/fft4g.c ****         a[j + 11] = wk1r * x0i + wk1i * x0r;
 1971              		.loc 2 1116 9 is_stmt 1 view .LVU840
1119:open303/Source/DSPCode/fft4g.c ****         a[j + 14] = wk3r * x0r - wk3i * x0i;
 1972              		.loc 2 1119 13 is_stmt 0 view .LVU841
 1973 02c0 3BEE4CBB 		vsub.f64	d11, d11, d12
 1974              	.LVL243:
1116:open303/Source/DSPCode/fft4g.c ****         a[j + 11] = wk1r * x0i + wk1i * x0r;
 1975              		.loc 2 1116 19 view .LVU842
 1976 02c4 27EE454B 		vnmul.f64	d4, d7, d5
1117:open303/Source/DSPCode/fft4g.c ****         x0r = x1r + x3i;
 1977              		.loc 2 1117 39 view .LVU843
 1978 02c8 25EE035B 		vmul.f64	d5, d5, d3
 1979              	.LVL244:
1116:open303/Source/DSPCode/fft4g.c ****         a[j + 11] = wk1r * x0i + wk1i * x0r;
 1980              		.loc 2 1116 19 view .LVU844
 1981 02cc A1EE034B 		vfma.f64	d4, d1, d3
1117:open303/Source/DSPCode/fft4g.c ****         x0r = x1r + x3i;
 1982              		.loc 2 1117 19 view .LVU845
 1983 02d0 A1EE075B 		vfma.f64	d5, d1, d7
1120:open303/Source/DSPCode/fft4g.c ****         a[j + 15] = wk3r * x0i + wk3i * x0r;
 1984              		.loc 2 1120 19 view .LVU846
 1985 02d4 2BEE4D7B 		vnmul.f64	d7, d11, d13
 1986              	.LVL245:
1121:open303/Source/DSPCode/fft4g.c ****     }
 1987              		.loc 2 1121 39 view .LVU847
 1988 02d8 2DEE06DB 		vmul.f64	d13, d13, d6
 1989              	.LVL246:
1120:open303/Source/DSPCode/fft4g.c ****         a[j + 15] = wk3r * x0i + wk3i * x0r;
ARM GAS  /var/folders/7j/7n_15nxd0bx4q178nq7r8qsr0000gn/T//cc8hDKNO.s 			page 68


 1990              		.loc 2 1120 19 view .LVU848
 1991 02dc AEEE067B 		vfma.f64	d7, d14, d6
1121:open303/Source/DSPCode/fft4g.c ****     }
 1992              		.loc 2 1121 19 view .LVU849
 1993 02e0 AEEE0BDB 		vfma.f64	d13, d14, d11
1116:open303/Source/DSPCode/fft4g.c ****         a[j + 11] = wk1r * x0i + wk1i * x0r;
 1994              		.loc 2 1116 19 view .LVU850
 1995 02e4 01ED0C4B 		vstr.64	d4, [r1, #-48]
1117:open303/Source/DSPCode/fft4g.c ****         x0r = x1r + x3i;
 1996              		.loc 2 1117 9 is_stmt 1 view .LVU851
1117:open303/Source/DSPCode/fft4g.c ****         x0r = x1r + x3i;
 1997              		.loc 2 1117 19 is_stmt 0 view .LVU852
 1998 02e8 01ED0A5B 		vstr.64	d5, [r1, #-40]
1118:open303/Source/DSPCode/fft4g.c ****         x0i = x1i - x3r;
 1999              		.loc 2 1118 9 is_stmt 1 view .LVU853
 2000              	.LVL247:
1119:open303/Source/DSPCode/fft4g.c ****         a[j + 14] = wk3r * x0r - wk3i * x0i;
 2001              		.loc 2 1119 9 view .LVU854
1120:open303/Source/DSPCode/fft4g.c ****         a[j + 15] = wk3r * x0i + wk3i * x0r;
 2002              		.loc 2 1120 9 view .LVU855
1120:open303/Source/DSPCode/fft4g.c ****         a[j + 15] = wk3r * x0i + wk3i * x0r;
 2003              		.loc 2 1120 19 is_stmt 0 view .LVU856
 2004 02ec 01ED047B 		vstr.64	d7, [r1, #-16]
1121:open303/Source/DSPCode/fft4g.c ****     }
 2005              		.loc 2 1121 9 is_stmt 1 view .LVU857
1121:open303/Source/DSPCode/fft4g.c ****     }
 2006              		.loc 2 1121 19 is_stmt 0 view .LVU858
 2007 02f0 01ED02DB 		vstr.64	d13, [r1, #-8]
1065:open303/Source/DSPCode/fft4g.c ****         k1 += 2;
 2008              		.loc 2 1065 5 is_stmt 1 discriminator 3 view .LVU859
 2009 02f4 1EE7     		b	.L47
 2010              		.cfi_endproc
 2011              	.LFE653:
 2013              		.section	.text._Z6cftmdliiPdS_,"ax",%progbits
 2014              		.align	1
 2015              		.global	_Z6cftmdliiPdS_
 2016              		.syntax unified
 2017              		.thumb
 2018              		.thumb_func
 2020              	_Z6cftmdliiPdS_:
 2021              	.LVL248:
 2022              	.LFB654:
1124:open303/Source/DSPCode/fft4g.c **** 
1125:open303/Source/DSPCode/fft4g.c **** 
1126:open303/Source/DSPCode/fft4g.c **** void cftmdl(int n, int l, double *a, double *w)
1127:open303/Source/DSPCode/fft4g.c **** {
 2023              		.loc 2 1127 1 view -0
 2024              		.cfi_startproc
 2025              		@ args = 0, pretend = 0, frame = 16
 2026              		@ frame_needed = 0, uses_anonymous_args = 0
 2027              		.loc 2 1127 1 is_stmt 0 view .LVU861
 2028 0000 2DE9F04F 		push	{r4, r5, r6, r7, r8, r9, r10, fp, lr}
 2029              		.cfi_def_cfa_offset 36
 2030              		.cfi_offset 4, -36
 2031              		.cfi_offset 5, -32
 2032              		.cfi_offset 6, -28
 2033              		.cfi_offset 7, -24
ARM GAS  /var/folders/7j/7n_15nxd0bx4q178nq7r8qsr0000gn/T//cc8hDKNO.s 			page 69


 2034              		.cfi_offset 8, -20
 2035              		.cfi_offset 9, -16
 2036              		.cfi_offset 10, -12
 2037              		.cfi_offset 11, -8
 2038              		.cfi_offset 14, -4
 2039 0004 02EBC104 		add	r4, r2, r1, lsl #3
 2040 0008 1826     		movs	r6, #24
1128:open303/Source/DSPCode/fft4g.c ****     int j, j1, j2, j3, k, k1, k2, m, m2;
1129:open303/Source/DSPCode/fft4g.c ****     double wk1r, wk1i, wk2r, wk2i, wk3r, wk3i;
1130:open303/Source/DSPCode/fft4g.c ****     double x0r, x0i, x1r, x1i, x2r, x2i, x3r, x3i;
1131:open303/Source/DSPCode/fft4g.c ****     
1132:open303/Source/DSPCode/fft4g.c ****     m = l << 2;
1133:open303/Source/DSPCode/fft4g.c ****     for (j = 0; j < l; j += 2) {
 2041              		.loc 2 1133 5 view .LVU862
 2042 000a 02EB0117 		add	r7, r2, r1, lsl #4
 2043              		.loc 2 1133 12 view .LVU863
 2044 000e 4FF0000E 		mov	lr, #0
 2045              		.loc 2 1133 5 view .LVU864
 2046 0012 02EBC105 		add	r5, r2, r1, lsl #3
1127:open303/Source/DSPCode/fft4g.c ****     int j, j1, j2, j3, k, k1, k2, m, m2;
 2047              		.loc 2 1127 1 view .LVU865
 2048 0016 2DED108B 		vpush.64	{d8, d9, d10, d11, d12, d13, d14, d15}
 2049              		.cfi_def_cfa_offset 100
 2050              		.cfi_offset 80, -100
 2051              		.cfi_offset 81, -96
 2052              		.cfi_offset 82, -92
 2053              		.cfi_offset 83, -88
 2054              		.cfi_offset 84, -84
 2055              		.cfi_offset 85, -80
 2056              		.cfi_offset 86, -76
 2057              		.cfi_offset 87, -72
 2058              		.cfi_offset 88, -68
 2059              		.cfi_offset 89, -64
 2060              		.cfi_offset 90, -60
 2061              		.cfi_offset 91, -56
 2062              		.cfi_offset 92, -52
 2063              		.cfi_offset 93, -48
 2064              		.cfi_offset 94, -44
 2065              		.cfi_offset 95, -40
 2066 001a 85B0     		sub	sp, sp, #20
 2067              		.cfi_def_cfa_offset 120
 2068 001c 0194     		str	r4, [sp, #4]
 2069 001e 02EB0114 		add	r4, r2, r1, lsl #4
1127:open303/Source/DSPCode/fft4g.c ****     int j, j1, j2, j3, k, k1, k2, m, m2;
 2070              		.loc 2 1127 1 view .LVU866
 2071 0022 0390     		str	r0, [sp, #12]
1128:open303/Source/DSPCode/fft4g.c ****     int j, j1, j2, j3, k, k1, k2, m, m2;
 2072              		.loc 2 1128 5 is_stmt 1 view .LVU867
1129:open303/Source/DSPCode/fft4g.c ****     double x0r, x0i, x1r, x1i, x2r, x2i, x3r, x3i;
 2073              		.loc 2 1129 5 view .LVU868
1130:open303/Source/DSPCode/fft4g.c ****     
 2074              		.loc 2 1130 5 view .LVU869
1132:open303/Source/DSPCode/fft4g.c ****     for (j = 0; j < l; j += 2) {
 2075              		.loc 2 1132 5 view .LVU870
1132:open303/Source/DSPCode/fft4g.c ****     for (j = 0; j < l; j += 2) {
 2076              		.loc 2 1132 7 is_stmt 0 view .LVU871
 2077 0024 8800     		lsls	r0, r1, #2
ARM GAS  /var/folders/7j/7n_15nxd0bx4q178nq7r8qsr0000gn/T//cc8hDKNO.s 			page 70


 2078              	.LVL249:
 2079              		.loc 2 1133 5 is_stmt 1 view .LVU872
 2080              		.loc 2 1133 5 is_stmt 0 view .LVU873
 2081 0026 0294     		str	r4, [sp, #8]
 2082 0028 06FB0124 		mla	r4, r6, r1, r2
 2083 002c A446     		mov	ip, r4
 2084 002e 0094     		str	r4, [sp]
 2085 0030 1446     		mov	r4, r2
 2086              	.LVL250:
 2087              	.L50:
 2088              		.loc 2 1133 19 is_stmt 1 discriminator 1 view .LVU874
 2089 0032 8E45     		cmp	lr, r1
 2090 0034 20DB     		blt	.L51
1134:open303/Source/DSPCode/fft4g.c ****         j1 = j + l;
1135:open303/Source/DSPCode/fft4g.c ****         j2 = j1 + l;
1136:open303/Source/DSPCode/fft4g.c ****         j3 = j2 + l;
1137:open303/Source/DSPCode/fft4g.c ****         x0r = a[j] + a[j1];
1138:open303/Source/DSPCode/fft4g.c ****         x0i = a[j + 1] + a[j1 + 1];
1139:open303/Source/DSPCode/fft4g.c ****         x1r = a[j] - a[j1];
1140:open303/Source/DSPCode/fft4g.c ****         x1i = a[j + 1] - a[j1 + 1];
1141:open303/Source/DSPCode/fft4g.c ****         x2r = a[j2] + a[j3];
1142:open303/Source/DSPCode/fft4g.c ****         x2i = a[j2 + 1] + a[j3 + 1];
1143:open303/Source/DSPCode/fft4g.c ****         x3r = a[j2] - a[j3];
1144:open303/Source/DSPCode/fft4g.c ****         x3i = a[j2 + 1] - a[j3 + 1];
1145:open303/Source/DSPCode/fft4g.c ****         a[j] = x0r + x2r;
1146:open303/Source/DSPCode/fft4g.c ****         a[j + 1] = x0i + x2i;
1147:open303/Source/DSPCode/fft4g.c ****         a[j2] = x0r - x2r;
1148:open303/Source/DSPCode/fft4g.c ****         a[j2 + 1] = x0i - x2i;
1149:open303/Source/DSPCode/fft4g.c ****         a[j1] = x1r - x3i;
1150:open303/Source/DSPCode/fft4g.c ****         a[j1 + 1] = x1i + x3r;
1151:open303/Source/DSPCode/fft4g.c ****         a[j3] = x1r + x3i;
1152:open303/Source/DSPCode/fft4g.c ****         a[j3 + 1] = x1i - x3r;
1153:open303/Source/DSPCode/fft4g.c ****     }
1154:open303/Source/DSPCode/fft4g.c ****     wk1r = w[2];
 2091              		.loc 2 1154 5 view .LVU875
 2092 0036 01EB4104 		add	r4, r1, r1, lsl #1
 2093 003a 00EB010E 		add	lr, r0, r1
 2094              	.LVL251:
 2095              		.loc 2 1154 5 is_stmt 0 view .LVU876
 2096 003e 00EB4105 		add	r5, r0, r1, lsl #1
1155:open303/Source/DSPCode/fft4g.c ****     for (j = m; j < l + m; j += 2) {
 2097              		.loc 2 1155 12 view .LVU877
 2098 0042 8046     		mov	r8, r0
 2099 0044 0444     		add	r4, r4, r0
 2100 0046 02EBC007 		add	r7, r2, r0, lsl #3
 2101 004a 02EBCE0C 		add	ip, r2, lr, lsl #3
 2102 004e 02EBC505 		add	r5, r2, r5, lsl #3
 2103 0052 02EBC404 		add	r4, r2, r4, lsl #3
1154:open303/Source/DSPCode/fft4g.c ****     for (j = m; j < l + m; j += 2) {
 2104              		.loc 2 1154 10 view .LVU878
 2105 0056 93ED044B 		vldr.64	d4, [r3, #16]
 2106              	.LVL252:
 2107              		.loc 2 1155 5 is_stmt 1 view .LVU879
 2108              	.L52:
 2109              		.loc 2 1155 19 discriminator 1 view .LVU880
 2110 005a C645     		cmp	lr, r8
 2111 005c 58DC     		bgt	.L53
ARM GAS  /var/folders/7j/7n_15nxd0bx4q178nq7r8qsr0000gn/T//cc8hDKNO.s 			page 71


1156:open303/Source/DSPCode/fft4g.c ****         j1 = j + l;
1157:open303/Source/DSPCode/fft4g.c ****         j2 = j1 + l;
1158:open303/Source/DSPCode/fft4g.c ****         j3 = j2 + l;
1159:open303/Source/DSPCode/fft4g.c ****         x0r = a[j] + a[j1];
1160:open303/Source/DSPCode/fft4g.c ****         x0i = a[j + 1] + a[j1 + 1];
1161:open303/Source/DSPCode/fft4g.c ****         x1r = a[j] - a[j1];
1162:open303/Source/DSPCode/fft4g.c ****         x1i = a[j + 1] - a[j1 + 1];
1163:open303/Source/DSPCode/fft4g.c ****         x2r = a[j2] + a[j3];
1164:open303/Source/DSPCode/fft4g.c ****         x2i = a[j2 + 1] + a[j3 + 1];
1165:open303/Source/DSPCode/fft4g.c ****         x3r = a[j2] - a[j3];
1166:open303/Source/DSPCode/fft4g.c ****         x3i = a[j2 + 1] - a[j3 + 1];
1167:open303/Source/DSPCode/fft4g.c ****         a[j] = x0r + x2r;
1168:open303/Source/DSPCode/fft4g.c ****         a[j + 1] = x0i + x2i;
1169:open303/Source/DSPCode/fft4g.c ****         a[j2] = x2i - x0i;
1170:open303/Source/DSPCode/fft4g.c ****         a[j2 + 1] = x0r - x2r;
1171:open303/Source/DSPCode/fft4g.c ****         x0r = x1r - x3i;
1172:open303/Source/DSPCode/fft4g.c ****         x0i = x1i + x3r;
1173:open303/Source/DSPCode/fft4g.c ****         a[j1] = wk1r * (x0r - x0i);
1174:open303/Source/DSPCode/fft4g.c ****         a[j1 + 1] = wk1r * (x0r + x0i);
1175:open303/Source/DSPCode/fft4g.c ****         x0r = x3i + x1r;
1176:open303/Source/DSPCode/fft4g.c ****         x0i = x3r - x1i;
1177:open303/Source/DSPCode/fft4g.c ****         a[j3] = wk1r * (x0i - x0r);
1178:open303/Source/DSPCode/fft4g.c ****         a[j3 + 1] = wk1r * (x0i + x0r);
1179:open303/Source/DSPCode/fft4g.c ****     }
1180:open303/Source/DSPCode/fft4g.c ****     k1 = 0;
 2112              		.loc 2 1180 5 view .LVU881
 2113              	.LVL253:
1181:open303/Source/DSPCode/fft4g.c ****     m2 = 2 * m;
 2114              		.loc 2 1181 5 view .LVU882
1182:open303/Source/DSPCode/fft4g.c ****     for (k = m2; k < n; k += m2) {
 2115              		.loc 2 1182 5 view .LVU883
 2116              		.loc 2 1182 5 is_stmt 0 view .LVU884
 2117 005e 00EB4005 		add	r5, r0, r0, lsl #1
 2118 0062 9946     		mov	r9, r3
 2119              		.loc 2 1182 12 view .LVU885
 2120 0064 4400     		lsls	r4, r0, #1
 2121              	.LVL254:
 2122              	.L54:
 2123              		.loc 2 1182 20 is_stmt 1 discriminator 1 view .LVU886
 2124 0066 039E     		ldr	r6, [sp, #12]
 2125 0068 B442     		cmp	r4, r6
 2126 006a C0F2AD80 		blt	.L59
1183:open303/Source/DSPCode/fft4g.c ****         k1 += 2;
1184:open303/Source/DSPCode/fft4g.c ****         k2 = 2 * k1;
1185:open303/Source/DSPCode/fft4g.c ****         wk2r = w[k1];
1186:open303/Source/DSPCode/fft4g.c ****         wk2i = w[k1 + 1];
1187:open303/Source/DSPCode/fft4g.c ****         wk1r = w[k2];
1188:open303/Source/DSPCode/fft4g.c ****         wk1i = w[k2 + 1];
1189:open303/Source/DSPCode/fft4g.c ****         wk3r = wk1r - 2 * wk2i * wk1i;
1190:open303/Source/DSPCode/fft4g.c ****         wk3i = 2 * wk2i * wk1r - wk1i;
1191:open303/Source/DSPCode/fft4g.c ****         for (j = k; j < l + k; j += 2) {
1192:open303/Source/DSPCode/fft4g.c ****             j1 = j + l;
1193:open303/Source/DSPCode/fft4g.c ****             j2 = j1 + l;
1194:open303/Source/DSPCode/fft4g.c ****             j3 = j2 + l;
1195:open303/Source/DSPCode/fft4g.c ****             x0r = a[j] + a[j1];
1196:open303/Source/DSPCode/fft4g.c ****             x0i = a[j + 1] + a[j1 + 1];
1197:open303/Source/DSPCode/fft4g.c ****             x1r = a[j] - a[j1];
ARM GAS  /var/folders/7j/7n_15nxd0bx4q178nq7r8qsr0000gn/T//cc8hDKNO.s 			page 72


1198:open303/Source/DSPCode/fft4g.c ****             x1i = a[j + 1] - a[j1 + 1];
1199:open303/Source/DSPCode/fft4g.c ****             x2r = a[j2] + a[j3];
1200:open303/Source/DSPCode/fft4g.c ****             x2i = a[j2 + 1] + a[j3 + 1];
1201:open303/Source/DSPCode/fft4g.c ****             x3r = a[j2] - a[j3];
1202:open303/Source/DSPCode/fft4g.c ****             x3i = a[j2 + 1] - a[j3 + 1];
1203:open303/Source/DSPCode/fft4g.c ****             a[j] = x0r + x2r;
1204:open303/Source/DSPCode/fft4g.c ****             a[j + 1] = x0i + x2i;
1205:open303/Source/DSPCode/fft4g.c ****             x0r -= x2r;
1206:open303/Source/DSPCode/fft4g.c ****             x0i -= x2i;
1207:open303/Source/DSPCode/fft4g.c ****             a[j2] = wk2r * x0r - wk2i * x0i;
1208:open303/Source/DSPCode/fft4g.c ****             a[j2 + 1] = wk2r * x0i + wk2i * x0r;
1209:open303/Source/DSPCode/fft4g.c ****             x0r = x1r - x3i;
1210:open303/Source/DSPCode/fft4g.c ****             x0i = x1i + x3r;
1211:open303/Source/DSPCode/fft4g.c ****             a[j1] = wk1r * x0r - wk1i * x0i;
1212:open303/Source/DSPCode/fft4g.c ****             a[j1 + 1] = wk1r * x0i + wk1i * x0r;
1213:open303/Source/DSPCode/fft4g.c ****             x0r = x1r + x3i;
1214:open303/Source/DSPCode/fft4g.c ****             x0i = x1i - x3r;
1215:open303/Source/DSPCode/fft4g.c ****             a[j3] = wk3r * x0r - wk3i * x0i;
1216:open303/Source/DSPCode/fft4g.c ****             a[j3 + 1] = wk3r * x0i + wk3i * x0r;
1217:open303/Source/DSPCode/fft4g.c ****         }
1218:open303/Source/DSPCode/fft4g.c ****         wk1r = w[k2 + 2];
1219:open303/Source/DSPCode/fft4g.c ****         wk1i = w[k2 + 3];
1220:open303/Source/DSPCode/fft4g.c ****         wk3r = wk1r - 2 * wk2r * wk1i;
1221:open303/Source/DSPCode/fft4g.c ****         wk3i = 2 * wk2r * wk1r - wk1i;
1222:open303/Source/DSPCode/fft4g.c ****         for (j = k + m; j < l + (k + m); j += 2) {
1223:open303/Source/DSPCode/fft4g.c ****             j1 = j + l;
1224:open303/Source/DSPCode/fft4g.c ****             j2 = j1 + l;
1225:open303/Source/DSPCode/fft4g.c ****             j3 = j2 + l;
1226:open303/Source/DSPCode/fft4g.c ****             x0r = a[j] + a[j1];
1227:open303/Source/DSPCode/fft4g.c ****             x0i = a[j + 1] + a[j1 + 1];
1228:open303/Source/DSPCode/fft4g.c ****             x1r = a[j] - a[j1];
1229:open303/Source/DSPCode/fft4g.c ****             x1i = a[j + 1] - a[j1 + 1];
1230:open303/Source/DSPCode/fft4g.c ****             x2r = a[j2] + a[j3];
1231:open303/Source/DSPCode/fft4g.c ****             x2i = a[j2 + 1] + a[j3 + 1];
1232:open303/Source/DSPCode/fft4g.c ****             x3r = a[j2] - a[j3];
1233:open303/Source/DSPCode/fft4g.c ****             x3i = a[j2 + 1] - a[j3 + 1];
1234:open303/Source/DSPCode/fft4g.c ****             a[j] = x0r + x2r;
1235:open303/Source/DSPCode/fft4g.c ****             a[j + 1] = x0i + x2i;
1236:open303/Source/DSPCode/fft4g.c ****             x0r -= x2r;
1237:open303/Source/DSPCode/fft4g.c ****             x0i -= x2i;
1238:open303/Source/DSPCode/fft4g.c ****             a[j2] = -wk2i * x0r - wk2r * x0i;
1239:open303/Source/DSPCode/fft4g.c ****             a[j2 + 1] = -wk2i * x0i + wk2r * x0r;
1240:open303/Source/DSPCode/fft4g.c ****             x0r = x1r - x3i;
1241:open303/Source/DSPCode/fft4g.c ****             x0i = x1i + x3r;
1242:open303/Source/DSPCode/fft4g.c ****             a[j1] = wk1r * x0r - wk1i * x0i;
1243:open303/Source/DSPCode/fft4g.c ****             a[j1 + 1] = wk1r * x0i + wk1i * x0r;
1244:open303/Source/DSPCode/fft4g.c ****             x0r = x1r + x3i;
1245:open303/Source/DSPCode/fft4g.c ****             x0i = x1i - x3r;
1246:open303/Source/DSPCode/fft4g.c ****             a[j3] = wk3r * x0r - wk3i * x0i;
1247:open303/Source/DSPCode/fft4g.c ****             a[j3 + 1] = wk3r * x0i + wk3i * x0r;
1248:open303/Source/DSPCode/fft4g.c ****         }
1249:open303/Source/DSPCode/fft4g.c ****     }
1250:open303/Source/DSPCode/fft4g.c **** }
 2127              		.loc 2 1250 1 is_stmt 0 view .LVU887
 2128 006e 05B0     		add	sp, sp, #20
 2129              		.cfi_remember_state
 2130              		.cfi_def_cfa_offset 100
ARM GAS  /var/folders/7j/7n_15nxd0bx4q178nq7r8qsr0000gn/T//cc8hDKNO.s 			page 73


 2131              		@ sp needed
 2132 0070 BDEC108B 		vldm	sp!, {d8-d15}
 2133              		.cfi_restore 94
 2134              		.cfi_restore 95
 2135              		.cfi_restore 92
 2136              		.cfi_restore 93
 2137              		.cfi_restore 90
 2138              		.cfi_restore 91
 2139              		.cfi_restore 88
 2140              		.cfi_restore 89
 2141              		.cfi_restore 86
 2142              		.cfi_restore 87
 2143              		.cfi_restore 84
 2144              		.cfi_restore 85
 2145              		.cfi_restore 82
 2146              		.cfi_restore 83
 2147              		.cfi_restore 80
 2148              		.cfi_restore 81
 2149              		.cfi_def_cfa_offset 36
 2150 0074 BDE8F08F 		pop	{r4, r5, r6, r7, r8, r9, r10, fp, pc}
 2151              	.LVL255:
 2152              	.L51:
 2153              		.cfi_restore_state
1134:open303/Source/DSPCode/fft4g.c ****         j2 = j1 + l;
 2154              		.loc 2 1134 9 is_stmt 1 view .LVU888
1135:open303/Source/DSPCode/fft4g.c ****         j3 = j2 + l;
 2155              		.loc 2 1135 9 view .LVU889
1136:open303/Source/DSPCode/fft4g.c ****         x0r = a[j] + a[j1];
 2156              		.loc 2 1136 9 view .LVU890
1137:open303/Source/DSPCode/fft4g.c ****         x0i = a[j + 1] + a[j1 + 1];
 2157              		.loc 2 1137 9 view .LVU891
1137:open303/Source/DSPCode/fft4g.c ****         x0i = a[j + 1] + a[j1 + 1];
 2158              		.loc 2 1137 18 is_stmt 0 view .LVU892
 2159 0078 2646     		mov	r6, r4
1133:open303/Source/DSPCode/fft4g.c ****         j1 = j + l;
 2160              		.loc 2 1133 26 discriminator 3 view .LVU893
 2161 007a 0EF1020E 		add	lr, lr, #2
 2162              	.LVL256:
1137:open303/Source/DSPCode/fft4g.c ****         x0i = a[j + 1] + a[j1 + 1];
 2163              		.loc 2 1137 18 view .LVU894
 2164 007e 1034     		adds	r4, r4, #16
 2165 0080 96ED006B 		vldr.64	d6, [r6]
1137:open303/Source/DSPCode/fft4g.c ****         x0i = a[j + 1] + a[j1 + 1];
 2166              		.loc 2 1137 26 view .LVU895
 2167 0084 2E46     		mov	r6, r5
 2168 0086 1035     		adds	r5, r5, #16
 2169 0088 96ED004B 		vldr.64	d4, [r6]
1141:open303/Source/DSPCode/fft4g.c ****         x2i = a[j2 + 1] + a[j3 + 1];
 2170              		.loc 2 1141 19 view .LVU896
 2171 008c 3E46     		mov	r6, r7
 2172 008e 1037     		adds	r7, r7, #16
1137:open303/Source/DSPCode/fft4g.c ****         x0i = a[j + 1] + a[j1 + 1];
 2173              		.loc 2 1137 13 view .LVU897
 2174 0090 36EE042B 		vadd.f64	d2, d6, d4
 2175              	.LVL257:
1138:open303/Source/DSPCode/fft4g.c ****         x1r = a[j] - a[j1];
 2176              		.loc 2 1138 9 is_stmt 1 view .LVU898
ARM GAS  /var/folders/7j/7n_15nxd0bx4q178nq7r8qsr0000gn/T//cc8hDKNO.s 			page 74


1139:open303/Source/DSPCode/fft4g.c ****         x1i = a[j + 1] - a[j1 + 1];
 2177              		.loc 2 1139 13 is_stmt 0 view .LVU899
 2178 0094 36EE446B 		vsub.f64	d6, d6, d4
1141:open303/Source/DSPCode/fft4g.c ****         x2i = a[j2 + 1] + a[j3 + 1];
 2179              		.loc 2 1141 19 view .LVU900
 2180 0098 96ED004B 		vldr.64	d4, [r6]
1141:open303/Source/DSPCode/fft4g.c ****         x2i = a[j2 + 1] + a[j3 + 1];
 2181              		.loc 2 1141 27 view .LVU901
 2182 009c 6646     		mov	r6, ip
 2183 009e 0CF1100C 		add	ip, ip, #16
 2184 00a2 96ED009B 		vldr.64	d9, [r6]
1138:open303/Source/DSPCode/fft4g.c ****         x1r = a[j] - a[j1];
 2185              		.loc 2 1138 34 view .LVU902
 2186 00a6 15ED025B 		vldr.64	d5, [r5, #-8]
1138:open303/Source/DSPCode/fft4g.c ****         x1r = a[j] - a[j1];
 2187              		.loc 2 1138 22 view .LVU903
 2188 00aa 14ED027B 		vldr.64	d7, [r4, #-8]
1142:open303/Source/DSPCode/fft4g.c ****         x3r = a[j2] - a[j3];
 2189              		.loc 2 1142 35 view .LVU904
 2190 00ae 1CED021B 		vldr.64	d1, [ip, #-8]
1141:open303/Source/DSPCode/fft4g.c ****         x2i = a[j2 + 1] + a[j3 + 1];
 2191              		.loc 2 1141 13 view .LVU905
 2192 00b2 34EE098B 		vadd.f64	d8, d4, d9
1138:open303/Source/DSPCode/fft4g.c ****         x1r = a[j] - a[j1];
 2193              		.loc 2 1138 13 view .LVU906
 2194 00b6 37EE053B 		vadd.f64	d3, d7, d5
 2195              	.LVL258:
1139:open303/Source/DSPCode/fft4g.c ****         x1i = a[j + 1] - a[j1 + 1];
 2196              		.loc 2 1139 9 is_stmt 1 view .LVU907
1140:open303/Source/DSPCode/fft4g.c ****         x2r = a[j2] + a[j3];
 2197              		.loc 2 1140 9 view .LVU908
1140:open303/Source/DSPCode/fft4g.c ****         x2r = a[j2] + a[j3];
 2198              		.loc 2 1140 13 is_stmt 0 view .LVU909
 2199 00ba 37EE457B 		vsub.f64	d7, d7, d5
 2200              	.LVL259:
1141:open303/Source/DSPCode/fft4g.c ****         x2i = a[j2 + 1] + a[j3 + 1];
 2201              		.loc 2 1141 9 is_stmt 1 view .LVU910
1142:open303/Source/DSPCode/fft4g.c ****         x3r = a[j2] - a[j3];
 2202              		.loc 2 1142 9 view .LVU911
1143:open303/Source/DSPCode/fft4g.c ****         x3i = a[j2 + 1] - a[j3 + 1];
 2203              		.loc 2 1143 13 is_stmt 0 view .LVU912
 2204 00be 34EE494B 		vsub.f64	d4, d4, d9
1142:open303/Source/DSPCode/fft4g.c ****         x3r = a[j2] - a[j3];
 2205              		.loc 2 1142 23 view .LVU913
 2206 00c2 17ED025B 		vldr.64	d5, [r7, #-8]
1142:open303/Source/DSPCode/fft4g.c ****         x3r = a[j2] - a[j3];
 2207              		.loc 2 1142 13 view .LVU914
 2208 00c6 35EE010B 		vadd.f64	d0, d5, d1
 2209              	.LVL260:
1143:open303/Source/DSPCode/fft4g.c ****         x3i = a[j2 + 1] - a[j3 + 1];
 2210              		.loc 2 1143 9 is_stmt 1 view .LVU915
1144:open303/Source/DSPCode/fft4g.c ****         a[j] = x0r + x2r;
 2211              		.loc 2 1144 9 view .LVU916
1144:open303/Source/DSPCode/fft4g.c ****         a[j] = x0r + x2r;
 2212              		.loc 2 1144 13 is_stmt 0 view .LVU917
 2213 00ca 35EE415B 		vsub.f64	d5, d5, d1
 2214              	.LVL261:
ARM GAS  /var/folders/7j/7n_15nxd0bx4q178nq7r8qsr0000gn/T//cc8hDKNO.s 			page 75


1145:open303/Source/DSPCode/fft4g.c ****         a[j + 1] = x0i + x2i;
 2215              		.loc 2 1145 9 is_stmt 1 view .LVU918
1145:open303/Source/DSPCode/fft4g.c ****         a[j + 1] = x0i + x2i;
 2216              		.loc 2 1145 20 is_stmt 0 view .LVU919
 2217 00ce 32EE081B 		vadd.f64	d1, d2, d8
1147:open303/Source/DSPCode/fft4g.c ****         a[j2 + 1] = x0i - x2i;
 2218              		.loc 2 1147 21 view .LVU920
 2219 00d2 32EE482B 		vsub.f64	d2, d2, d8
 2220              	.LVL262:
1145:open303/Source/DSPCode/fft4g.c ****         a[j + 1] = x0i + x2i;
 2221              		.loc 2 1145 14 view .LVU921
 2222 00d6 04ED041B 		vstr.64	d1, [r4, #-16]
 2223              	.LVL263:
1146:open303/Source/DSPCode/fft4g.c ****         a[j2] = x0r - x2r;
 2224              		.loc 2 1146 9 is_stmt 1 view .LVU922
1146:open303/Source/DSPCode/fft4g.c ****         a[j2] = x0r - x2r;
 2225              		.loc 2 1146 24 is_stmt 0 view .LVU923
 2226 00da 33EE001B 		vadd.f64	d1, d3, d0
1148:open303/Source/DSPCode/fft4g.c ****         a[j1] = x1r - x3i;
 2227              		.loc 2 1148 25 view .LVU924
 2228 00de 33EE403B 		vsub.f64	d3, d3, d0
 2229              	.LVL264:
1146:open303/Source/DSPCode/fft4g.c ****         a[j2] = x0r - x2r;
 2230              		.loc 2 1146 18 view .LVU925
 2231 00e2 04ED021B 		vstr.64	d1, [r4, #-8]
1147:open303/Source/DSPCode/fft4g.c ****         a[j2 + 1] = x0i - x2i;
 2232              		.loc 2 1147 9 is_stmt 1 view .LVU926
1148:open303/Source/DSPCode/fft4g.c ****         a[j1] = x1r - x3i;
 2233              		.loc 2 1148 19 is_stmt 0 view .LVU927
 2234 00e6 07ED023B 		vstr.64	d3, [r7, #-8]
1149:open303/Source/DSPCode/fft4g.c ****         a[j1 + 1] = x1i + x3r;
 2235              		.loc 2 1149 21 view .LVU928
 2236 00ea 36EE453B 		vsub.f64	d3, d6, d5
1151:open303/Source/DSPCode/fft4g.c ****         a[j3 + 1] = x1i - x3r;
 2237              		.loc 2 1151 21 view .LVU929
 2238 00ee 36EE056B 		vadd.f64	d6, d6, d5
 2239              	.LVL265:
1147:open303/Source/DSPCode/fft4g.c ****         a[j2 + 1] = x0i - x2i;
 2240              		.loc 2 1147 15 view .LVU930
 2241 00f2 07ED042B 		vstr.64	d2, [r7, #-16]
1148:open303/Source/DSPCode/fft4g.c ****         a[j1] = x1r - x3i;
 2242              		.loc 2 1148 9 is_stmt 1 view .LVU931
1149:open303/Source/DSPCode/fft4g.c ****         a[j1 + 1] = x1i + x3r;
 2243              		.loc 2 1149 9 view .LVU932
1149:open303/Source/DSPCode/fft4g.c ****         a[j1 + 1] = x1i + x3r;
 2244              		.loc 2 1149 15 is_stmt 0 view .LVU933
 2245 00f6 05ED043B 		vstr.64	d3, [r5, #-16]
1150:open303/Source/DSPCode/fft4g.c ****         a[j3] = x1r + x3i;
 2246              		.loc 2 1150 9 is_stmt 1 view .LVU934
1150:open303/Source/DSPCode/fft4g.c ****         a[j3] = x1r + x3i;
 2247              		.loc 2 1150 25 is_stmt 0 view .LVU935
 2248 00fa 37EE043B 		vadd.f64	d3, d7, d4
1152:open303/Source/DSPCode/fft4g.c ****     }
 2249              		.loc 2 1152 25 view .LVU936
 2250 00fe 37EE447B 		vsub.f64	d7, d7, d4
 2251              	.LVL266:
1150:open303/Source/DSPCode/fft4g.c ****         a[j3] = x1r + x3i;
ARM GAS  /var/folders/7j/7n_15nxd0bx4q178nq7r8qsr0000gn/T//cc8hDKNO.s 			page 76


 2252              		.loc 2 1150 19 view .LVU937
 2253 0102 05ED023B 		vstr.64	d3, [r5, #-8]
1151:open303/Source/DSPCode/fft4g.c ****         a[j3 + 1] = x1i - x3r;
 2254              		.loc 2 1151 9 is_stmt 1 view .LVU938
1151:open303/Source/DSPCode/fft4g.c ****         a[j3 + 1] = x1i - x3r;
 2255              		.loc 2 1151 15 is_stmt 0 view .LVU939
 2256 0106 0CED046B 		vstr.64	d6, [ip, #-16]
1152:open303/Source/DSPCode/fft4g.c ****     }
 2257              		.loc 2 1152 9 is_stmt 1 view .LVU940
1152:open303/Source/DSPCode/fft4g.c ****     }
 2258              		.loc 2 1152 19 is_stmt 0 view .LVU941
 2259 010a 0CED027B 		vstr.64	d7, [ip, #-8]
1133:open303/Source/DSPCode/fft4g.c ****         j1 = j + l;
 2260              		.loc 2 1133 5 is_stmt 1 discriminator 3 view .LVU942
 2261 010e 90E7     		b	.L50
 2262              	.LVL267:
 2263              	.L53:
1156:open303/Source/DSPCode/fft4g.c ****         j2 = j1 + l;
 2264              		.loc 2 1156 9 view .LVU943
1157:open303/Source/DSPCode/fft4g.c ****         j3 = j2 + l;
 2265              		.loc 2 1157 9 view .LVU944
1158:open303/Source/DSPCode/fft4g.c ****         x0r = a[j] + a[j1];
 2266              		.loc 2 1158 9 view .LVU945
1159:open303/Source/DSPCode/fft4g.c ****         x0i = a[j + 1] + a[j1 + 1];
 2267              		.loc 2 1159 9 view .LVU946
1159:open303/Source/DSPCode/fft4g.c ****         x0i = a[j + 1] + a[j1 + 1];
 2268              		.loc 2 1159 18 is_stmt 0 view .LVU947
 2269 0110 3E46     		mov	r6, r7
1155:open303/Source/DSPCode/fft4g.c ****         j1 = j + l;
 2270              		.loc 2 1155 30 discriminator 3 view .LVU948
 2271 0112 08F10208 		add	r8, r8, #2
 2272              	.LVL268:
1159:open303/Source/DSPCode/fft4g.c ****         x0i = a[j + 1] + a[j1 + 1];
 2273              		.loc 2 1159 18 view .LVU949
 2274 0116 1037     		adds	r7, r7, #16
 2275 0118 96ED007B 		vldr.64	d7, [r6]
1159:open303/Source/DSPCode/fft4g.c ****         x0i = a[j + 1] + a[j1 + 1];
 2276              		.loc 2 1159 26 view .LVU950
 2277 011c 6646     		mov	r6, ip
 2278 011e 0CF1100C 		add	ip, ip, #16
1160:open303/Source/DSPCode/fft4g.c ****         x1r = a[j] - a[j1];
 2279              		.loc 2 1160 22 view .LVU951
 2280 0122 17ED022B 		vldr.64	d2, [r7, #-8]
1160:open303/Source/DSPCode/fft4g.c ****         x1r = a[j] - a[j1];
 2281              		.loc 2 1160 34 view .LVU952
 2282 0126 1CED026B 		vldr.64	d6, [ip, #-8]
1159:open303/Source/DSPCode/fft4g.c ****         x0i = a[j + 1] + a[j1 + 1];
 2283              		.loc 2 1159 26 view .LVU953
 2284 012a 96ED005B 		vldr.64	d5, [r6]
1163:open303/Source/DSPCode/fft4g.c ****         x2i = a[j2 + 1] + a[j3 + 1];
 2285              		.loc 2 1163 19 view .LVU954
 2286 012e 2E46     		mov	r6, r5
 2287 0130 1035     		adds	r5, r5, #16
1160:open303/Source/DSPCode/fft4g.c ****         x1r = a[j] - a[j1];
 2288              		.loc 2 1160 13 view .LVU955
 2289 0132 32EE069B 		vadd.f64	d9, d2, d6
1162:open303/Source/DSPCode/fft4g.c ****         x2r = a[j2] + a[j3];
ARM GAS  /var/folders/7j/7n_15nxd0bx4q178nq7r8qsr0000gn/T//cc8hDKNO.s 			page 77


 2290              		.loc 2 1162 13 view .LVU956
 2291 0136 32EE462B 		vsub.f64	d2, d2, d6
1159:open303/Source/DSPCode/fft4g.c ****         x0i = a[j + 1] + a[j1 + 1];
