ARM GAS  /var/folders/7j/7n_15nxd0bx4q178nq7r8qsr0000gn/T//ccXsnuVa.s 			page 1


   1              		.cpu cortex-m7
   2              		.arch armv7e-m
   3              		.fpu fpv5-d16
   4              		.eabi_attribute 28, 1
   5              		.eabi_attribute 20, 1
   6              		.eabi_attribute 21, 1
   7              		.eabi_attribute 23, 3
   8              		.eabi_attribute 24, 1
   9              		.eabi_attribute 25, 1
  10              		.eabi_attribute 26, 1
  11              		.eabi_attribute 30, 4
  12              		.eabi_attribute 34, 1
  13              		.eabi_attribute 18, 4
  14              		.file	"rosic_MipMappedWaveTable.cpp"
  15              		.text
  16              	.Ltext0:
  17              		.cfi_sections	.debug_frame
  18              		.file 1 "open303/Source/DSPCode/rosic_MipMappedWaveTable.cpp"
  19              		.section	.text._ZN5rosic10roundToIntEd,"axG",%progbits,_ZN5rosic10roundToIntEd,comdat
  20              		.align	1
  21              		.weak	_ZN5rosic10roundToIntEd
  22              		.syntax unified
  23              		.thumb
  24              		.thumb_func
  26              	_ZN5rosic10roundToIntEd:
  27              	.LVL0:
  28              	.LFB601:
  29              		.file 2 "open303/Source/DSPCode/rosic_NumberManipulations.h"
   1:open303/Source/DSPCode/rosic_NumberManipulations.h **** #ifndef rosic_NumberManipulations_h
   2:open303/Source/DSPCode/rosic_NumberManipulations.h **** #define rosic_NumberManipulations_h
   3:open303/Source/DSPCode/rosic_NumberManipulations.h **** 
   4:open303/Source/DSPCode/rosic_NumberManipulations.h **** // rosic includes:
   5:open303/Source/DSPCode/rosic_NumberManipulations.h **** #include "GlobalDefinitions.h"
   6:open303/Source/DSPCode/rosic_NumberManipulations.h **** #include <math.h>
   7:open303/Source/DSPCode/rosic_NumberManipulations.h **** 
   8:open303/Source/DSPCode/rosic_NumberManipulations.h **** namespace rosic
   9:open303/Source/DSPCode/rosic_NumberManipulations.h **** {
  10:open303/Source/DSPCode/rosic_NumberManipulations.h **** 
  11:open303/Source/DSPCode/rosic_NumberManipulations.h ****   /** \todo: check the linux versions....they have been inserted here sloppily in order to make it 
  12:open303/Source/DSPCode/rosic_NumberManipulations.h ****   porting. */
  13:open303/Source/DSPCode/rosic_NumberManipulations.h **** 
  14:open303/Source/DSPCode/rosic_NumberManipulations.h **** 
  15:open303/Source/DSPCode/rosic_NumberManipulations.h **** 
  16:open303/Source/DSPCode/rosic_NumberManipulations.h ****   /** Assuming, that the FPU is in 'to nearest even integer' rounding mode (which is the default),
  17:open303/Source/DSPCode/rosic_NumberManipulations.h ****   this function rounds to the nearest integer using upward rounding when the argument is exactly
  18:open303/Source/DSPCode/rosic_NumberManipulations.h ****   halfway between two integers (instead of returning the nearest even integer in this case).
  19:open303/Source/DSPCode/rosic_NumberManipulations.h ****   Argument x must satify (INT_MIN/2)ñ1.0 < x < (INT_MAX/2)+1.0.  */
  20:open303/Source/DSPCode/rosic_NumberManipulations.h ****   INLINE int roundToInt(double x)
  21:open303/Source/DSPCode/rosic_NumberManipulations.h ****   {
  30              		.loc 2 21 3 view -0
  31              		.cfi_startproc
  32              		@ args = 0, pretend = 0, frame = 0
  33              		@ frame_needed = 0, uses_anonymous_args = 0
  34              		@ link register save eliminated.
  22:open303/Source/DSPCode/rosic_NumberManipulations.h **** #  if defined _MSC_VER
  23:open303/Source/DSPCode/rosic_NumberManipulations.h ****     const float round_to_nearest = 0.5f;
  24:open303/Source/DSPCode/rosic_NumberManipulations.h ****     int i;
ARM GAS  /var/folders/7j/7n_15nxd0bx4q178nq7r8qsr0000gn/T//ccXsnuVa.s 			page 2


  25:open303/Source/DSPCode/rosic_NumberManipulations.h ****      __asm
  26:open303/Source/DSPCode/rosic_NumberManipulations.h ****      {
  27:open303/Source/DSPCode/rosic_NumberManipulations.h ****        fld x;
  28:open303/Source/DSPCode/rosic_NumberManipulations.h ****        fadd st, st (0);
  29:open303/Source/DSPCode/rosic_NumberManipulations.h ****        fadd round_to_nearest;
  30:open303/Source/DSPCode/rosic_NumberManipulations.h ****        fistp i;
  31:open303/Source/DSPCode/rosic_NumberManipulations.h ****        sar i, 1;
  32:open303/Source/DSPCode/rosic_NumberManipulations.h ****      }
  33:open303/Source/DSPCode/rosic_NumberManipulations.h ****      return (i);
  34:open303/Source/DSPCode/rosic_NumberManipulations.h ****     /*
  35:open303/Source/DSPCode/rosic_NumberManipulations.h **** #  elif defined __GNUC__  // too many memory references for 'add', too many memory references for '
  36:open303/Source/DSPCode/rosic_NumberManipulations.h ****     const float round_to_nearest = 0.5f;
  37:open303/Source/DSPCode/rosic_NumberManipulations.h ****     int i;
  38:open303/Source/DSPCode/rosic_NumberManipulations.h ****     asm("fld x");
  39:open303/Source/DSPCode/rosic_NumberManipulations.h ****     asm("fadd st, st(0)");
  40:open303/Source/DSPCode/rosic_NumberManipulations.h ****     asm("fadd round_to_nearest");
  41:open303/Source/DSPCode/rosic_NumberManipulations.h ****     asm("fistp i");
  42:open303/Source/DSPCode/rosic_NumberManipulations.h ****     asm("sar i, 1");
  43:open303/Source/DSPCode/rosic_NumberManipulations.h ****     return (i);
  44:open303/Source/DSPCode/rosic_NumberManipulations.h ****      */
  45:open303/Source/DSPCode/rosic_NumberManipulations.h **** #  else
  46:open303/Source/DSPCode/rosic_NumberManipulations.h ****     double xFloor = floor(x);
  35              		.loc 2 46 5 view .LVU1
  36              		.loc 2 46 26 is_stmt 0 view .LVU2
  37 0000 BBFE407B 		vrintm.f64	d7, d0
  38              	.LVL1:
  47:open303/Source/DSPCode/rosic_NumberManipulations.h ****     double xFrac  = x-xFloor;
  39              		.loc 2 47 5 is_stmt 1 view .LVU3
  48:open303/Source/DSPCode/rosic_NumberManipulations.h ****     if( xFrac >= 0.5 )
  40              		.loc 2 48 5 view .LVU4
  49:open303/Source/DSPCode/rosic_NumberManipulations.h ****       return (int) xFloor + 1;
  41              		.loc 2 49 14 is_stmt 0 view .LVU5
  42 0004 FDEEC76B 		vcvt.s32.f64	s13, d7
  47:open303/Source/DSPCode/rosic_NumberManipulations.h ****     double xFrac  = x-xFloor;
  43              		.loc 2 47 12 view .LVU6
  44 0008 30EE470B 		vsub.f64	d0, d0, d7
  45              	.LVL2:
  48:open303/Source/DSPCode/rosic_NumberManipulations.h ****     if( xFrac >= 0.5 )
  46              		.loc 2 48 5 view .LVU7
  47 000c B6EE007B 		vmov.f64	d7, #5.0e-1
  48              	.LVL3:
  49              		.loc 2 49 14 view .LVU8
  50 0010 16EE900A 		vmov	r0, s13	@ int
  48:open303/Source/DSPCode/rosic_NumberManipulations.h ****     if( xFrac >= 0.5 )
  51              		.loc 2 48 5 view .LVU9
  52 0014 B4EEC70B 		vcmpe.f64	d0, d7
  53 0018 F1EE10FA 		vmrs	APSR_nzcv, FPSCR
  54 001c 00DB     		blt	.L1
  55              		.loc 2 49 7 is_stmt 1 view .LVU10
  56              		.loc 2 49 29 is_stmt 0 view .LVU11
  57 001e 0130     		adds	r0, r0, #1
  58              	.L1:
  50:open303/Source/DSPCode/rosic_NumberManipulations.h ****     else
  51:open303/Source/DSPCode/rosic_NumberManipulations.h ****       return (int) xFloor;
  52:open303/Source/DSPCode/rosic_NumberManipulations.h **** #  endif
  53:open303/Source/DSPCode/rosic_NumberManipulations.h ****   }
  59              		.loc 2 53 3 view .LVU12
ARM GAS  /var/folders/7j/7n_15nxd0bx4q178nq7r8qsr0000gn/T//ccXsnuVa.s 			page 3


  60 0020 7047     		bx	lr
  61              		.cfi_endproc
  62              	.LFE601:
  64              		.section	.text._ZN5rosic18MipMappedWaveTableD2Ev,"ax",%progbits
  65              		.align	1
  66              		.global	_ZN5rosic18MipMappedWaveTableD2Ev
  67              		.syntax unified
  68              		.thumb
  69              		.thumb_func
  71              	_ZN5rosic18MipMappedWaveTableD2Ev:
  72              	.LVL4:
  73              	.LFB1304:
   1:open303/Source/DSPCode/rosic_MipMappedWaveTable.cpp **** #include "rosic_MipMappedWaveTable.h"
   2:open303/Source/DSPCode/rosic_MipMappedWaveTable.cpp **** using namespace rosic;
   3:open303/Source/DSPCode/rosic_MipMappedWaveTable.cpp **** 
   4:open303/Source/DSPCode/rosic_MipMappedWaveTable.cpp **** MipMappedWaveTable::MipMappedWaveTable()
   5:open303/Source/DSPCode/rosic_MipMappedWaveTable.cpp **** {
   6:open303/Source/DSPCode/rosic_MipMappedWaveTable.cpp ****   // init member variables:
   7:open303/Source/DSPCode/rosic_MipMappedWaveTable.cpp ****   sampleRate = 44100.0;
   8:open303/Source/DSPCode/rosic_MipMappedWaveTable.cpp ****   waveform   = 0;
   9:open303/Source/DSPCode/rosic_MipMappedWaveTable.cpp ****   symmetry   = 0.5;
  10:open303/Source/DSPCode/rosic_MipMappedWaveTable.cpp **** 
  11:open303/Source/DSPCode/rosic_MipMappedWaveTable.cpp ****   // initialize internal 'back-panel' parameters
  12:open303/Source/DSPCode/rosic_MipMappedWaveTable.cpp ****   tanhShaperFactor = dB2amp(36.9);
  13:open303/Source/DSPCode/rosic_MipMappedWaveTable.cpp ****   tanhShaperOffset = 4.37;
  14:open303/Source/DSPCode/rosic_MipMappedWaveTable.cpp ****   squarePhaseShift = 180.0;
  15:open303/Source/DSPCode/rosic_MipMappedWaveTable.cpp **** 
  16:open303/Source/DSPCode/rosic_MipMappedWaveTable.cpp ****   // set up the fourier-transformer:
  17:open303/Source/DSPCode/rosic_MipMappedWaveTable.cpp ****   fourierTransformer.setBlockSize(tableLength);
  18:open303/Source/DSPCode/rosic_MipMappedWaveTable.cpp **** 
  19:open303/Source/DSPCode/rosic_MipMappedWaveTable.cpp ****   // initialize the buffers:
  20:open303/Source/DSPCode/rosic_MipMappedWaveTable.cpp ****   initPrototypeTable();
  21:open303/Source/DSPCode/rosic_MipMappedWaveTable.cpp ****   initTableSet();
  22:open303/Source/DSPCode/rosic_MipMappedWaveTable.cpp **** }
  23:open303/Source/DSPCode/rosic_MipMappedWaveTable.cpp **** 
  24:open303/Source/DSPCode/rosic_MipMappedWaveTable.cpp **** MipMappedWaveTable::~MipMappedWaveTable()
  74              		.loc 1 24 1 is_stmt 1 view -0
  75              		.cfi_startproc
  76              		@ args = 0, pretend = 0, frame = 0
  77              		@ frame_needed = 0, uses_anonymous_args = 0
  78              		.loc 1 24 1 is_stmt 0 view .LVU14
  79 0000 10B5     		push	{r4, lr}
  80              		.cfi_def_cfa_offset 8
  81              		.cfi_offset 4, -8
  82              		.cfi_offset 14, -4
  83              		.loc 1 24 1 view .LVU15
  84 0002 0446     		mov	r4, r0
  85              	.LBB22:
  25:open303/Source/DSPCode/rosic_MipMappedWaveTable.cpp **** {
  26:open303/Source/DSPCode/rosic_MipMappedWaveTable.cpp **** 
  27:open303/Source/DSPCode/rosic_MipMappedWaveTable.cpp **** }
  86              		.loc 1 27 1 view .LVU16
  87 0004 00F5D030 		add	r0, r0, #106496
  88              	.LVL5:
  89              		.loc 1 27 1 view .LVU17
  90 0008 00F5CC70 		add	r0, r0, #408
  91 000c FFF7FEFF 		bl	_ZN5rosic24FourierTransformerRadix2D1Ev
ARM GAS  /var/folders/7j/7n_15nxd0bx4q178nq7r8qsr0000gn/T//ccXsnuVa.s 			page 4


  92              	.LVL6:
  93              	.LBE22:
  94 0010 2046     		mov	r0, r4
  95 0012 10BD     		pop	{r4, pc}
  96              		.loc 1 27 1 view .LVU18
  97              		.cfi_endproc
  98              	.LFE1304:
 100              		.global	_ZN5rosic18MipMappedWaveTableD1Ev
 101              		.thumb_set _ZN5rosic18MipMappedWaveTableD1Ev,_ZN5rosic18MipMappedWaveTableD2Ev
 102              		.section	.text._ZN5rosic18MipMappedWaveTable18initPrototypeTableEv,"ax",%progbits
 103              		.align	1
 104              		.global	_ZN5rosic18MipMappedWaveTable18initPrototypeTableEv
 105              		.syntax unified
 106              		.thumb
 107              		.thumb_func
 109              	_ZN5rosic18MipMappedWaveTable18initPrototypeTableEv:
 110              	.LVL7:
 111              	.LFB1309:
  28:open303/Source/DSPCode/rosic_MipMappedWaveTable.cpp **** 
  29:open303/Source/DSPCode/rosic_MipMappedWaveTable.cpp **** //-------------------------------------------------------------------------------------------------
  30:open303/Source/DSPCode/rosic_MipMappedWaveTable.cpp **** // parameter settings:
  31:open303/Source/DSPCode/rosic_MipMappedWaveTable.cpp **** 
  32:open303/Source/DSPCode/rosic_MipMappedWaveTable.cpp **** void MipMappedWaveTable::setWaveform(double* newWaveForm, int lengthInSamples)
  33:open303/Source/DSPCode/rosic_MipMappedWaveTable.cpp **** {
  34:open303/Source/DSPCode/rosic_MipMappedWaveTable.cpp ****   int i;
  35:open303/Source/DSPCode/rosic_MipMappedWaveTable.cpp ****   if( lengthInSamples == tableLength )
  36:open303/Source/DSPCode/rosic_MipMappedWaveTable.cpp ****   {
  37:open303/Source/DSPCode/rosic_MipMappedWaveTable.cpp ****     // just copy the values into the internal buffer, when the length of the passed table and the
  38:open303/Source/DSPCode/rosic_MipMappedWaveTable.cpp ****     // internal table match:
  39:open303/Source/DSPCode/rosic_MipMappedWaveTable.cpp ****     for( i=0; i<tableLength; i++ )
  40:open303/Source/DSPCode/rosic_MipMappedWaveTable.cpp ****       prototypeTable[i] = newWaveForm[i];
  41:open303/Source/DSPCode/rosic_MipMappedWaveTable.cpp ****   }
  42:open303/Source/DSPCode/rosic_MipMappedWaveTable.cpp ****   else
  43:open303/Source/DSPCode/rosic_MipMappedWaveTable.cpp ****   {
  44:open303/Source/DSPCode/rosic_MipMappedWaveTable.cpp ****     // implement periodic sinc-interpolation here...
  45:open303/Source/DSPCode/rosic_MipMappedWaveTable.cpp ****   }
  46:open303/Source/DSPCode/rosic_MipMappedWaveTable.cpp ****   generateMipMap();
  47:open303/Source/DSPCode/rosic_MipMappedWaveTable.cpp **** }
  48:open303/Source/DSPCode/rosic_MipMappedWaveTable.cpp **** 
  49:open303/Source/DSPCode/rosic_MipMappedWaveTable.cpp **** void MipMappedWaveTable::setWaveform(int newWaveform)
  50:open303/Source/DSPCode/rosic_MipMappedWaveTable.cpp **** {
  51:open303/Source/DSPCode/rosic_MipMappedWaveTable.cpp ****   if( (newWaveform >= 0) && (newWaveform != waveform) )
  52:open303/Source/DSPCode/rosic_MipMappedWaveTable.cpp ****   {
  53:open303/Source/DSPCode/rosic_MipMappedWaveTable.cpp ****     waveform = newWaveform;
  54:open303/Source/DSPCode/rosic_MipMappedWaveTable.cpp ****     renderWaveform();
  55:open303/Source/DSPCode/rosic_MipMappedWaveTable.cpp ****   }
  56:open303/Source/DSPCode/rosic_MipMappedWaveTable.cpp **** }
  57:open303/Source/DSPCode/rosic_MipMappedWaveTable.cpp **** 
  58:open303/Source/DSPCode/rosic_MipMappedWaveTable.cpp **** void MipMappedWaveTable::setSymmetry(double newSymmetry)
  59:open303/Source/DSPCode/rosic_MipMappedWaveTable.cpp **** {
  60:open303/Source/DSPCode/rosic_MipMappedWaveTable.cpp ****   symmetry = newSymmetry;
  61:open303/Source/DSPCode/rosic_MipMappedWaveTable.cpp ****   renderWaveform();
  62:open303/Source/DSPCode/rosic_MipMappedWaveTable.cpp **** }
  63:open303/Source/DSPCode/rosic_MipMappedWaveTable.cpp **** 
  64:open303/Source/DSPCode/rosic_MipMappedWaveTable.cpp **** //-------------------------------------------------------------------------------------------------
  65:open303/Source/DSPCode/rosic_MipMappedWaveTable.cpp **** // internal functions:
  66:open303/Source/DSPCode/rosic_MipMappedWaveTable.cpp **** 
ARM GAS  /var/folders/7j/7n_15nxd0bx4q178nq7r8qsr0000gn/T//ccXsnuVa.s 			page 5


  67:open303/Source/DSPCode/rosic_MipMappedWaveTable.cpp **** void MipMappedWaveTable::initPrototypeTable()
  68:open303/Source/DSPCode/rosic_MipMappedWaveTable.cpp **** {
 112              		.loc 1 68 1 is_stmt 1 view -0
 113              		.cfi_startproc
 114              		@ args = 0, pretend = 0, frame = 0
 115              		@ frame_needed = 0, uses_anonymous_args = 0
 116              		@ link register save eliminated.
  69:open303/Source/DSPCode/rosic_MipMappedWaveTable.cpp ****   for(int i=0; i<(tableLength+4); i++)
 117              		.loc 1 69 3 view .LVU20
 118              	.LBB23:
 119              		.loc 1 69 17 discriminator 1 view .LVU21
  70:open303/Source/DSPCode/rosic_MipMappedWaveTable.cpp ****     prototypeTable[i] = 0.0;
 120              		.loc 1 70 23 is_stmt 0 view .LVU22
 121 0000 42F22002 		movw	r2, #8224
 122 0004 0021     		movs	r1, #0
 123 0006 1830     		adds	r0, r0, #24
 124              	.LVL8:
 125              		.loc 1 70 23 view .LVU23
 126 0008 FFF7FEBF 		b	memset
 127              	.LVL9:
 128              		.loc 1 70 23 view .LVU24
 129              	.LBE23:
 130              		.cfi_endproc
 131              	.LFE1309:
 133              		.section	.text._ZN5rosic18MipMappedWaveTable12initTableSetEv,"ax",%progbits
 134              		.align	1
 135              		.global	_ZN5rosic18MipMappedWaveTable12initTableSetEv
 136              		.syntax unified
 137              		.thumb
 138              		.thumb_func
 140              	_ZN5rosic18MipMappedWaveTable12initTableSetEv:
 141              	.LVL10:
 142              	.LFB1310:
  71:open303/Source/DSPCode/rosic_MipMappedWaveTable.cpp **** }
  72:open303/Source/DSPCode/rosic_MipMappedWaveTable.cpp **** 
  73:open303/Source/DSPCode/rosic_MipMappedWaveTable.cpp **** void MipMappedWaveTable::initTableSet()
  74:open303/Source/DSPCode/rosic_MipMappedWaveTable.cpp **** {
 143              		.loc 1 74 1 is_stmt 1 view -0
 144              		.cfi_startproc
 145              		@ args = 0, pretend = 0, frame = 0
 146              		@ frame_needed = 0, uses_anonymous_args = 0
 147              		@ link register save eliminated.
  75:open303/Source/DSPCode/rosic_MipMappedWaveTable.cpp ****   int t, i; // indices fo table and position
 148              		.loc 1 75 3 view .LVU26
  76:open303/Source/DSPCode/rosic_MipMappedWaveTable.cpp ****   for(t=0; t<numTables; t++)
 149              		.loc 1 76 3 view .LVU27
 150              		.loc 1 76 13 discriminator 1 view .LVU28
  77:open303/Source/DSPCode/rosic_MipMappedWaveTable.cpp ****     for(i=0; i<tableLength+4; i++)
  78:open303/Source/DSPCode/rosic_MipMappedWaveTable.cpp ****       tableSet[t][i] = 0.0;
 151              		.loc 1 78 22 is_stmt 0 view .LVU29
 152 0000 00F50050 		add	r0, r0, #8192
 153              	.LVL11:
 154              		.loc 1 78 22 view .LVU30
 155 0004 024A     		ldr	r2, .L8
 156 0006 0021     		movs	r1, #0
 157 0008 1830     		adds	r0, r0, #24
 158              	.LVL12:
ARM GAS  /var/folders/7j/7n_15nxd0bx4q178nq7r8qsr0000gn/T//ccXsnuVa.s 			page 6


 159              		.loc 1 78 22 view .LVU31
 160 000a FFF7FEBF 		b	memset
 161              	.LVL13:
 162              	.L9:
 163              		.loc 1 78 22 view .LVU32
 164 000e 00BF     		.align	2
 165              	.L8:
 166 0010 80810100 		.word	98688
 167              		.cfi_endproc
 168              	.LFE1310:
 170              		.section	.text._ZN5rosic18MipMappedWaveTableC2Ev,"ax",%progbits
 171              		.align	1
 172              		.global	_ZN5rosic18MipMappedWaveTableC2Ev
 173              		.syntax unified
 174              		.thumb
 175              		.thumb_func
 177              	_ZN5rosic18MipMappedWaveTableC2Ev:
 178              	.LVL14:
 179              	.LFB1301:
   4:open303/Source/DSPCode/rosic_MipMappedWaveTable.cpp **** {
 180              		.loc 1 4 1 is_stmt 1 view -0
 181              		.cfi_startproc
 182              		@ args = 0, pretend = 0, frame = 0
 183              		@ frame_needed = 0, uses_anonymous_args = 0
   4:open303/Source/DSPCode/rosic_MipMappedWaveTable.cpp **** {
 184              		.loc 1 4 1 is_stmt 0 view .LVU34
 185 0000 70B5     		push	{r4, r5, r6, lr}
 186              		.cfi_def_cfa_offset 16
 187              		.cfi_offset 4, -16
 188              		.cfi_offset 5, -12
 189              		.cfi_offset 6, -8
 190              		.cfi_offset 14, -4
 191              	.LBB24:
   4:open303/Source/DSPCode/rosic_MipMappedWaveTable.cpp **** {
 192              		.loc 1 4 40 view .LVU35
 193 0002 00F5D035 		add	r5, r0, #106496
 194              	.LBE24:
   4:open303/Source/DSPCode/rosic_MipMappedWaveTable.cpp **** {
 195              		.loc 1 4 1 view .LVU36
 196 0006 0446     		mov	r4, r0
 197              	.LBB26:
   4:open303/Source/DSPCode/rosic_MipMappedWaveTable.cpp **** {
 198              		.loc 1 4 40 view .LVU37
 199 0008 05F5CC70 		add	r0, r5, #408
 200              	.LVL15:
   4:open303/Source/DSPCode/rosic_MipMappedWaveTable.cpp **** {
 201              		.loc 1 4 40 view .LVU38
 202 000c FFF7FEFF 		bl	_ZN5rosic24FourierTransformerRadix2C1Ev
 203              	.LVL16:
   7:open303/Source/DSPCode/rosic_MipMappedWaveTable.cpp ****   waveform   = 0;
 204              		.loc 1 7 3 is_stmt 1 view .LVU39
  17:open303/Source/DSPCode/rosic_MipMappedWaveTable.cpp **** 
 205              		.loc 1 17 34 is_stmt 0 view .LVU40
 206 0010 4FF48061 		mov	r1, #1024
 207 0014 05F5CC70 		add	r0, r5, #408
   7:open303/Source/DSPCode/rosic_MipMappedWaveTable.cpp ****   waveform   = 0;
 208              		.loc 1 7 14 view .LVU41
ARM GAS  /var/folders/7j/7n_15nxd0bx4q178nq7r8qsr0000gn/T//ccXsnuVa.s 			page 7


 209 0018 17A3     		adr	r3, .L11+24
 210 001a D3E90023 		ldrd	r2, [r3]
 211 001e C4E90423 		strd	r2, [r4, #16]
   8:open303/Source/DSPCode/rosic_MipMappedWaveTable.cpp ****   symmetry   = 0.5;
 212              		.loc 1 8 3 is_stmt 1 view .LVU42
   8:open303/Source/DSPCode/rosic_MipMappedWaveTable.cpp ****   symmetry   = 0.5;
 213              		.loc 1 8 14 is_stmt 0 view .LVU43
 214 0022 0023     		movs	r3, #0
   9:open303/Source/DSPCode/rosic_MipMappedWaveTable.cpp **** 
 215              		.loc 1 9 14 view .LVU44
 216 0024 0022     		movs	r2, #0
   8:open303/Source/DSPCode/rosic_MipMappedWaveTable.cpp ****   symmetry   = 0.5;
 217              		.loc 1 8 14 view .LVU45
 218 0026 A360     		str	r3, [r4, #8]
   9:open303/Source/DSPCode/rosic_MipMappedWaveTable.cpp **** 
 219              		.loc 1 9 3 is_stmt 1 view .LVU46
   9:open303/Source/DSPCode/rosic_MipMappedWaveTable.cpp **** 
 220              		.loc 1 9 14 is_stmt 0 view .LVU47
 221 0028 114B     		ldr	r3, .L11+16
 222 002a C4E90023 		strd	r2, [r4]
  12:open303/Source/DSPCode/rosic_MipMappedWaveTable.cpp ****   tanhShaperOffset = 4.37;
 223              		.loc 1 12 3 is_stmt 1 view .LVU48
 224              	.LVL17:
 225              	.LBB25:
 226              	.LBI25:
 227              		.file 3 "open303/Source/DSPCode/GlobalFunctions.h"
   1:open303/Source/DSPCode/GlobalFunctions.h **** #ifndef GlobalFunctions_h
   2:open303/Source/DSPCode/GlobalFunctions.h **** #define GlobalFunctions_h
   3:open303/Source/DSPCode/GlobalFunctions.h **** 
   4:open303/Source/DSPCode/GlobalFunctions.h **** #include <math.h>
   5:open303/Source/DSPCode/GlobalFunctions.h **** #include <stdlib.h>
   6:open303/Source/DSPCode/GlobalFunctions.h **** #include "GlobalDefinitions.h"
   7:open303/Source/DSPCode/GlobalFunctions.h **** 
   8:open303/Source/DSPCode/GlobalFunctions.h **** /** This file contains a bunch of useful macros and functions which are not wrapped into the
   9:open303/Source/DSPCode/GlobalFunctions.h **** rosic namespace to facilitate their global use. */
  10:open303/Source/DSPCode/GlobalFunctions.h **** 
  11:open303/Source/DSPCode/GlobalFunctions.h **** /** Converts a raw amplitude value/factor to a value in decibels. */
  12:open303/Source/DSPCode/GlobalFunctions.h **** INLINE double amp2dB(double amp);
  13:open303/Source/DSPCode/GlobalFunctions.h **** 
  14:open303/Source/DSPCode/GlobalFunctions.h **** /** Converts a raw amplitude value/factor to a value in decibels with a check, if the amplitude is
  15:open303/Source/DSPCode/GlobalFunctions.h **** close to zero (to avoid log-of-zero and related errors). */
  16:open303/Source/DSPCode/GlobalFunctions.h **** INLINE double amp2dBWithCheck(double amp, double lowAmplitude = 0.000001);
  17:open303/Source/DSPCode/GlobalFunctions.h **** 
  18:open303/Source/DSPCode/GlobalFunctions.h **** /** Returns the index of the maximum value in an array of doubles where the array should be of
  19:open303/Source/DSPCode/GlobalFunctions.h **** length numValues. */
  20:open303/Source/DSPCode/GlobalFunctions.h **** template <class T>
  21:open303/Source/DSPCode/GlobalFunctions.h **** INLINE int arrayMaxIndex(T* theArray, int numValues);
  22:open303/Source/DSPCode/GlobalFunctions.h **** 
  23:open303/Source/DSPCode/GlobalFunctions.h **** /** Returns the index of the minimum value in an array of doubles where the array should be of
  24:open303/Source/DSPCode/GlobalFunctions.h **** length numValues. */
  25:open303/Source/DSPCode/GlobalFunctions.h **** template <class T>
  26:open303/Source/DSPCode/GlobalFunctions.h **** INLINE int arrayMinIndex(T* theArray, int numValues);
  27:open303/Source/DSPCode/GlobalFunctions.h **** 
  28:open303/Source/DSPCode/GlobalFunctions.h **** /** Converts a time-stamp given in beats into seconds acording to a tempo measured in beats per
  29:open303/Source/DSPCode/GlobalFunctions.h **** minute (bpm). */
  30:open303/Source/DSPCode/GlobalFunctions.h **** INLINE double beatsToSeconds(double beat, double bpm);
  31:open303/Source/DSPCode/GlobalFunctions.h **** 
ARM GAS  /var/folders/7j/7n_15nxd0bx4q178nq7r8qsr0000gn/T//ccXsnuVa.s 			page 8


  32:open303/Source/DSPCode/GlobalFunctions.h **** /** Converts a value in decibels to a raw amplitude value/factor. */
  33:open303/Source/DSPCode/GlobalFunctions.h **** INLINE double dB2amp(double x);
  34:open303/Source/DSPCode/GlobalFunctions.h **** 
  35:open303/Source/DSPCode/GlobalFunctions.h **** /** Converts an angle in degrees into radiant. */
  36:open303/Source/DSPCode/GlobalFunctions.h **** INLINE double degreeToRadiant(double degrees);
  37:open303/Source/DSPCode/GlobalFunctions.h **** 
  38:open303/Source/DSPCode/GlobalFunctions.h **** /** Frees the memory associated with the pointer ans sets the poiter itself to NULL */
  39:open303/Source/DSPCode/GlobalFunctions.h **** //INLINE void deleteAndNullifyPointer(void *pointer);
  40:open303/Source/DSPCode/GlobalFunctions.h **** 
  41:open303/Source/DSPCode/GlobalFunctions.h **** /** Returns the Euclidean distance between points at coordinates (x1,y1), (x2,y2). */
  42:open303/Source/DSPCode/GlobalFunctions.h **** INLINE double euclideanDistance(double x1, double y1, double x2, double y2);
  43:open303/Source/DSPCode/GlobalFunctions.h **** 
  44:open303/Source/DSPCode/GlobalFunctions.h **** /** Calculates the exponential function with base 10. */
  45:open303/Source/DSPCode/GlobalFunctions.h **** INLINE double exp10(double x);
  46:open303/Source/DSPCode/GlobalFunctions.h **** 
  47:open303/Source/DSPCode/GlobalFunctions.h **** /** Calculates the exponential function with base 2. */
  48:open303/Source/DSPCode/GlobalFunctions.h **** INLINE double exp2(double x);
  49:open303/Source/DSPCode/GlobalFunctions.h **** 
  50:open303/Source/DSPCode/GlobalFunctions.h **** /** Calculates the factorial of some integer n >= 0. */
  51:open303/Source/DSPCode/GlobalFunctions.h **** //INLINE int factorial(int n);
  52:open303/Source/DSPCode/GlobalFunctions.h **** 
  53:open303/Source/DSPCode/GlobalFunctions.h **** /** Converts a frequency in Hz into a MIDI-note value assuming A4 = 440 Hz. */
  54:open303/Source/DSPCode/GlobalFunctions.h **** INLINE double freqToPitch(double freq);
  55:open303/Source/DSPCode/GlobalFunctions.h **** 
  56:open303/Source/DSPCode/GlobalFunctions.h **** /** Converts a frequency in Hz into a MIDI-note value for tunings different than the
  57:open303/Source/DSPCode/GlobalFunctions.h **** default 440 Hz. */
  58:open303/Source/DSPCode/GlobalFunctions.h **** INLINE double freqToPitch(double freq, double masterTuneA4);
  59:open303/Source/DSPCode/GlobalFunctions.h **** 
  60:open303/Source/DSPCode/GlobalFunctions.h **** /** Checks a pointer for nullity and if it is not NULL, it calls delete for the associated object
  61:open303/Source/DSPCode/GlobalFunctions.h **** and then sets the pointer to NULL. */
  62:open303/Source/DSPCode/GlobalFunctions.h **** INLINE void ifNotNullDeleteAndSetNull(void* pointer);
  63:open303/Source/DSPCode/GlobalFunctions.h **** 
  64:open303/Source/DSPCode/GlobalFunctions.h **** /** Maps an integer index in the range 0...numIndices-1 into a normalized floating point number in 
  65:open303/Source/DSPCode/GlobalFunctions.h **** the range 0...1. */
  66:open303/Source/DSPCode/GlobalFunctions.h **** INLINE float indexToNormalizedValue(int index, int numIndices);
  67:open303/Source/DSPCode/GlobalFunctions.h **** 
  68:open303/Source/DSPCode/GlobalFunctions.h **** /** Checks, if x is close to some target-value within some tolerance. */
  69:open303/Source/DSPCode/GlobalFunctions.h **** INLINE bool isCloseTo(double x, double targetValue, double tolerance);
  70:open303/Source/DSPCode/GlobalFunctions.h **** 
  71:open303/Source/DSPCode/GlobalFunctions.h **** /** Checks, if x is even. */
  72:open303/Source/DSPCode/GlobalFunctions.h **** INLINE bool isEven(int x);
  73:open303/Source/DSPCode/GlobalFunctions.h **** 
  74:open303/Source/DSPCode/GlobalFunctions.h **** /** Checks, if x is odd. */
  75:open303/Source/DSPCode/GlobalFunctions.h **** INLINE bool isOdd(int x);
  76:open303/Source/DSPCode/GlobalFunctions.h **** 
  77:open303/Source/DSPCode/GlobalFunctions.h **** /** Checks, if x is a power of 2. */
  78:open303/Source/DSPCode/GlobalFunctions.h **** INLINE bool isPowerOfTwo(unsigned int x);
  79:open303/Source/DSPCode/GlobalFunctions.h **** 
  80:open303/Source/DSPCode/GlobalFunctions.h **** /** Calculates the logarithm to base 2. */
  81:open303/Source/DSPCode/GlobalFunctions.h **** INLINE double log2(double x);
  82:open303/Source/DSPCode/GlobalFunctions.h **** 
  83:open303/Source/DSPCode/GlobalFunctions.h **** /** Calculates logarithm to an arbitrary base b. */
  84:open303/Source/DSPCode/GlobalFunctions.h **** INLINE double logB(double x, double b);
  85:open303/Source/DSPCode/GlobalFunctions.h **** 
  86:open303/Source/DSPCode/GlobalFunctions.h **** /** Converts a value between inMin and inMax into a value between outMin and outMax where the
  87:open303/Source/DSPCode/GlobalFunctions.h **** mapping is linear for the input and the output. Example: y = linToLin(x, 0.0, 1.0, -96.0, 24.0)
  88:open303/Source/DSPCode/GlobalFunctions.h **** will map the input x assumed to lie inside 0.0...1.0 to the range between -96.0...24.0. This
ARM GAS  /var/folders/7j/7n_15nxd0bx4q178nq7r8qsr0000gn/T//ccXsnuVa.s 			page 9


  89:open303/Source/DSPCode/GlobalFunctions.h **** function is useful to convert between parameter representations between 0.0...1.0 and the
  90:open303/Source/DSPCode/GlobalFunctions.h **** clear-text parameters. */
  91:open303/Source/DSPCode/GlobalFunctions.h **** INLINE double linToLin(double in, double inMin, double inMax, double outMin, double outMax);
  92:open303/Source/DSPCode/GlobalFunctions.h **** 
  93:open303/Source/DSPCode/GlobalFunctions.h **** /** Converts a value between inMin and inMax into a value between outMin and outMax where the
  94:open303/Source/DSPCode/GlobalFunctions.h **** mapping of the output is exponential. Example: y = linToExp(x, 0.0, 1.0, 20.0, 20000.0) will map
  95:open303/Source/DSPCode/GlobalFunctions.h **** the input x assumed to lie inside 0.0...1.0 to the range between 20.0...20000.0 where equal
  96:open303/Source/DSPCode/GlobalFunctions.h **** differences in the input lead to equal factors in the output. Make sure that the outMin value is
  97:open303/Source/DSPCode/GlobalFunctions.h **** greater than zero! */
  98:open303/Source/DSPCode/GlobalFunctions.h **** INLINE double linToExp(double in, double inMin, double inMax, double outMin, double outMax);
  99:open303/Source/DSPCode/GlobalFunctions.h **** 
 100:open303/Source/DSPCode/GlobalFunctions.h **** /** Same as linToExp but adds an offset afterwards and compensates for that offset by scaling the
 101:open303/Source/DSPCode/GlobalFunctions.h **** offsetted value so as to hit the outMax correctly. */
 102:open303/Source/DSPCode/GlobalFunctions.h **** INLINE double linToExpWithOffset(double in, double inMin, double inMax, double outMin,
 103:open303/Source/DSPCode/GlobalFunctions.h ****                                  double outMax, double offset = 0.0);
 104:open303/Source/DSPCode/GlobalFunctions.h **** 
 105:open303/Source/DSPCode/GlobalFunctions.h **** /** The Inverse of "linToExp" */
 106:open303/Source/DSPCode/GlobalFunctions.h **** INLINE double expToLin(double in, double inMin, double inMax, double outMin, double outMax);
 107:open303/Source/DSPCode/GlobalFunctions.h **** 
 108:open303/Source/DSPCode/GlobalFunctions.h **** /** The Inverse of "linToExpWithOffset" */
 109:open303/Source/DSPCode/GlobalFunctions.h **** INLINE double expToLinWithOffset(double in, double inMin, double inMax, double outMin,
 110:open303/Source/DSPCode/GlobalFunctions.h ****                                  double outMax, double offset = 0.0);
 111:open303/Source/DSPCode/GlobalFunctions.h **** 
 112:open303/Source/DSPCode/GlobalFunctions.h **** /** Returns a power of two which is greater than or equal to the input argument. */
 113:open303/Source/DSPCode/GlobalFunctions.h **** template <class T>
 114:open303/Source/DSPCode/GlobalFunctions.h **** INLINE T nextPowerOfTwo(T x);
 115:open303/Source/DSPCode/GlobalFunctions.h **** 
 116:open303/Source/DSPCode/GlobalFunctions.h **** /** Maps a normalized floating point number in the range 0...1 into an integer index in the range 
 117:open303/Source/DSPCode/GlobalFunctions.h **** 0...numIndices-1. */
 118:open303/Source/DSPCode/GlobalFunctions.h **** INLINE int normalizedValueToIndex(float normalizedValue, int numIndices);
 119:open303/Source/DSPCode/GlobalFunctions.h **** 
 120:open303/Source/DSPCode/GlobalFunctions.h **** /** Converts a picth-offset in semitones value into a frequency multiplication factor. */
 121:open303/Source/DSPCode/GlobalFunctions.h **** INLINE double pitchOffsetToFreqFactor(double pitchOffset);
 122:open303/Source/DSPCode/GlobalFunctions.h **** 
 123:open303/Source/DSPCode/GlobalFunctions.h **** /** Converts a MIDI-note value into a frequency in Hz assuming A4 = 440 Hz. */
 124:open303/Source/DSPCode/GlobalFunctions.h **** INLINE double pitchToFreq(double pitch);
 125:open303/Source/DSPCode/GlobalFunctions.h **** 
 126:open303/Source/DSPCode/GlobalFunctions.h **** /** Converts a MIDI-note value into a frequency in Hz for arbitrary master-tunings of A4. */
 127:open303/Source/DSPCode/GlobalFunctions.h **** INLINE double pitchToFreq(double pitch, double masterTuneA4);
 128:open303/Source/DSPCode/GlobalFunctions.h **** 
 129:open303/Source/DSPCode/GlobalFunctions.h **** /** Converts an angle in radiant into degrees. */
 130:open303/Source/DSPCode/GlobalFunctions.h **** INLINE double radiantToDegree(double radiant);
 131:open303/Source/DSPCode/GlobalFunctions.h **** 
 132:open303/Source/DSPCode/GlobalFunctions.h **** /** Generates a random number that is uniformly distributed between min and max (inclusive). The
 133:open303/Source/DSPCode/GlobalFunctions.h **** underlying integer pseudo random number generator is a linear congruential with period length of 
 134:open303/Source/DSPCode/GlobalFunctions.h **** 2^32. It is based on Numerical Recipies in C (2nd edition), page 284. You may pass a seed to the 
 135:open303/Source/DSPCode/GlobalFunctions.h **** first call to initialize it - otherwise it will use 0 as seed. A negative number (as in the default
 136:open303/Source/DSPCode/GlobalFunctions.h **** argument) will indicate to not initialize the state and just generate a random number based on the 
 137:open303/Source/DSPCode/GlobalFunctions.h **** last state (which is the case for a typical call). */
 138:open303/Source/DSPCode/GlobalFunctions.h **** INLINE double randomUniform(double min = 0.0, double max = 1.0, int seed = -1);
 139:open303/Source/DSPCode/GlobalFunctions.h **** 
 140:open303/Source/DSPCode/GlobalFunctions.h **** /** Returns the nearest integer (as double, without typecast). */
 141:open303/Source/DSPCode/GlobalFunctions.h **** INLINE double round(double x);
 142:open303/Source/DSPCode/GlobalFunctions.h **** 
 143:open303/Source/DSPCode/GlobalFunctions.h **** /** Converts a time value in seconds into a time value measured in beats. */
 144:open303/Source/DSPCode/GlobalFunctions.h **** INLINE double secondsToBeats(double timeInSeconds, double bpm);
 145:open303/Source/DSPCode/GlobalFunctions.h **** 
ARM GAS  /var/folders/7j/7n_15nxd0bx4q178nq7r8qsr0000gn/T//ccXsnuVa.s 			page 10


 146:open303/Source/DSPCode/GlobalFunctions.h **** /** Returns the sign of x as double. */
 147:open303/Source/DSPCode/GlobalFunctions.h **** INLINE double sign(double x);
 148:open303/Source/DSPCode/GlobalFunctions.h **** 
 149:open303/Source/DSPCode/GlobalFunctions.h **** /** Converts a time-stamp given in whole notes into seconds according to a tempo measured in
 150:open303/Source/DSPCode/GlobalFunctions.h **** beats per minute (bpm). */
 151:open303/Source/DSPCode/GlobalFunctions.h **** INLINE double wholeNotesToSeconds(double noteValue, double bpm);
 152:open303/Source/DSPCode/GlobalFunctions.h **** 
 153:open303/Source/DSPCode/GlobalFunctions.h **** //=================================================================================================
 154:open303/Source/DSPCode/GlobalFunctions.h **** //implementation:
 155:open303/Source/DSPCode/GlobalFunctions.h **** 
 156:open303/Source/DSPCode/GlobalFunctions.h **** INLINE double amp2dB(double amp)
 157:open303/Source/DSPCode/GlobalFunctions.h **** {
 158:open303/Source/DSPCode/GlobalFunctions.h ****   return 8.6858896380650365530225783783321 * log(amp);
 159:open303/Source/DSPCode/GlobalFunctions.h ****   //return 20*log10(amp); // naive version
 160:open303/Source/DSPCode/GlobalFunctions.h **** }
 161:open303/Source/DSPCode/GlobalFunctions.h **** 
 162:open303/Source/DSPCode/GlobalFunctions.h **** INLINE double amp2dBWithCheck(double amp, double lowAmplitude)
 163:open303/Source/DSPCode/GlobalFunctions.h **** {
 164:open303/Source/DSPCode/GlobalFunctions.h ****   if( amp >= lowAmplitude )
 165:open303/Source/DSPCode/GlobalFunctions.h ****     return 8.6858896380650365530225783783321 * log(amp);
 166:open303/Source/DSPCode/GlobalFunctions.h ****   else
 167:open303/Source/DSPCode/GlobalFunctions.h ****     return 8.6858896380650365530225783783321 * log(lowAmplitude);
 168:open303/Source/DSPCode/GlobalFunctions.h **** }
 169:open303/Source/DSPCode/GlobalFunctions.h **** 
 170:open303/Source/DSPCode/GlobalFunctions.h **** template <class T>
 171:open303/Source/DSPCode/GlobalFunctions.h **** INLINE int arrayMaxIndex(T* theArray, int numValues)
 172:open303/Source/DSPCode/GlobalFunctions.h **** {
 173:open303/Source/DSPCode/GlobalFunctions.h ****   int    maxIndex = 0;
 174:open303/Source/DSPCode/GlobalFunctions.h ****   double maxValue = theArray[0];
 175:open303/Source/DSPCode/GlobalFunctions.h ****   for(int i=0; i<numValues; i++)
 176:open303/Source/DSPCode/GlobalFunctions.h ****   {
 177:open303/Source/DSPCode/GlobalFunctions.h ****     if( theArray[i] > maxValue )
 178:open303/Source/DSPCode/GlobalFunctions.h ****     {
 179:open303/Source/DSPCode/GlobalFunctions.h ****       maxValue = theArray[i];
 180:open303/Source/DSPCode/GlobalFunctions.h ****       maxIndex = i;
 181:open303/Source/DSPCode/GlobalFunctions.h ****     }
 182:open303/Source/DSPCode/GlobalFunctions.h ****   }
 183:open303/Source/DSPCode/GlobalFunctions.h ****   return maxIndex;
 184:open303/Source/DSPCode/GlobalFunctions.h **** }
 185:open303/Source/DSPCode/GlobalFunctions.h **** 
 186:open303/Source/DSPCode/GlobalFunctions.h **** template <class T>
 187:open303/Source/DSPCode/GlobalFunctions.h **** INLINE int arrayMinIndex(T* theArray, int numValues)
 188:open303/Source/DSPCode/GlobalFunctions.h **** {
 189:open303/Source/DSPCode/GlobalFunctions.h ****   int    minIndex = 0;
 190:open303/Source/DSPCode/GlobalFunctions.h ****   double minValue = theArray[0];
 191:open303/Source/DSPCode/GlobalFunctions.h ****   for(int i=0; i<numValues; i++)
 192:open303/Source/DSPCode/GlobalFunctions.h ****   {
 193:open303/Source/DSPCode/GlobalFunctions.h ****     if( theArray[i] < minValue )
 194:open303/Source/DSPCode/GlobalFunctions.h ****     {
 195:open303/Source/DSPCode/GlobalFunctions.h ****       minValue = theArray[i];
 196:open303/Source/DSPCode/GlobalFunctions.h ****       minIndex = i;
 197:open303/Source/DSPCode/GlobalFunctions.h ****     }
 198:open303/Source/DSPCode/GlobalFunctions.h ****   }
 199:open303/Source/DSPCode/GlobalFunctions.h ****   return minIndex;
 200:open303/Source/DSPCode/GlobalFunctions.h **** }
 201:open303/Source/DSPCode/GlobalFunctions.h **** 
 202:open303/Source/DSPCode/GlobalFunctions.h **** INLINE double beatsToSeconds(double beat, double bpm)
ARM GAS  /var/folders/7j/7n_15nxd0bx4q178nq7r8qsr0000gn/T//ccXsnuVa.s 			page 11


 203:open303/Source/DSPCode/GlobalFunctions.h **** {
 204:open303/Source/DSPCode/GlobalFunctions.h ****   return (60.0/bpm)*beat;
 205:open303/Source/DSPCode/GlobalFunctions.h **** }
 206:open303/Source/DSPCode/GlobalFunctions.h **** 
 207:open303/Source/DSPCode/GlobalFunctions.h **** INLINE double dB2amp(double dB)
 228              		.loc 3 207 15 view .LVU49
 208:open303/Source/DSPCode/GlobalFunctions.h **** {
 209:open303/Source/DSPCode/GlobalFunctions.h ****   return exp(dB * 0.11512925464970228420089957273422);
 229              		.loc 3 209 3 view .LVU50
 230              		.loc 3 209 3 is_stmt 0 view .LVU51
 231              	.LBE25:
  12:open303/Source/DSPCode/rosic_MipMappedWaveTable.cpp ****   tanhShaperOffset = 4.37;
 232              		.loc 1 12 20 discriminator 1 view .LVU52
 233 002e 0CA3     		adr	r3, .L11
 234 0030 D3E90023 		ldrd	r2, [r3]
 235 0034 C5E97023 		strd	r2, [r5, #448]
  13:open303/Source/DSPCode/rosic_MipMappedWaveTable.cpp ****   squarePhaseShift = 180.0;
 236              		.loc 1 13 3 is_stmt 1 view .LVU53
  13:open303/Source/DSPCode/rosic_MipMappedWaveTable.cpp ****   squarePhaseShift = 180.0;
 237              		.loc 1 13 20 is_stmt 0 view .LVU54
 238 0038 0BA3     		adr	r3, .L11+8
 239 003a D3E90023 		ldrd	r2, [r3]
 240 003e C5E97223 		strd	r2, [r5, #456]
  14:open303/Source/DSPCode/rosic_MipMappedWaveTable.cpp **** 
 241              		.loc 1 14 3 is_stmt 1 view .LVU55
  14:open303/Source/DSPCode/rosic_MipMappedWaveTable.cpp **** 
 242              		.loc 1 14 20 is_stmt 0 view .LVU56
 243 0042 0022     		movs	r2, #0
 244 0044 0B4B     		ldr	r3, .L11+20
 245 0046 C5E97423 		strd	r2, [r5, #464]
  17:open303/Source/DSPCode/rosic_MipMappedWaveTable.cpp **** 
 246              		.loc 1 17 3 is_stmt 1 view .LVU57
  17:open303/Source/DSPCode/rosic_MipMappedWaveTable.cpp **** 
 247              		.loc 1 17 34 is_stmt 0 view .LVU58
 248 004a FFF7FEFF 		bl	_ZN5rosic24FourierTransformerRadix212setBlockSizeEi
 249              	.LVL18:
  20:open303/Source/DSPCode/rosic_MipMappedWaveTable.cpp ****   initTableSet();
 250              		.loc 1 20 3 is_stmt 1 view .LVU59
  20:open303/Source/DSPCode/rosic_MipMappedWaveTable.cpp ****   initTableSet();
 251              		.loc 1 20 21 is_stmt 0 view .LVU60
 252 004e 2046     		mov	r0, r4
 253 0050 FFF7FEFF 		bl	_ZN5rosic18MipMappedWaveTable18initPrototypeTableEv
 254              	.LVL19:
  21:open303/Source/DSPCode/rosic_MipMappedWaveTable.cpp **** }
 255              		.loc 1 21 3 is_stmt 1 view .LVU61
  21:open303/Source/DSPCode/rosic_MipMappedWaveTable.cpp **** }
 256              		.loc 1 21 15 is_stmt 0 view .LVU62
 257 0054 2046     		mov	r0, r4
 258 0056 FFF7FEFF 		bl	_ZN5rosic18MipMappedWaveTable12initTableSetEv
 259              	.LVL20:
 260              	.LBE26:
  22:open303/Source/DSPCode/rosic_MipMappedWaveTable.cpp **** 
 261              		.loc 1 22 1 view .LVU63
 262 005a 2046     		mov	r0, r4
 263 005c 70BD     		pop	{r4, r5, r6, pc}
 264              	.LVL21:
 265              	.L12:
ARM GAS  /var/folders/7j/7n_15nxd0bx4q178nq7r8qsr0000gn/T//ccXsnuVa.s 			page 12


  22:open303/Source/DSPCode/rosic_MipMappedWaveTable.cpp **** 
 266              		.loc 1 22 1 view .LVU64
 267 005e 00BF     		.align	3
 268              	.L11:
 269 0060 9AED5120 		.word	542240154
 270 0064 FD7E5140 		.word	1079082749
 271 0068 7B14AE47 		.word	1202590843
 272 006c E17A1140 		.word	1074887393
 273 0070 0000E03F 		.word	1071644672
 274 0074 00806640 		.word	1080459264
 275 0078 00000000 		.word	0
 276 007c 8088E540 		.word	1088784512
 277              		.cfi_endproc
 278              	.LFE1301:
 280              		.global	_ZN5rosic18MipMappedWaveTableC1Ev
 281              		.thumb_set _ZN5rosic18MipMappedWaveTableC1Ev,_ZN5rosic18MipMappedWaveTableC2Ev
 282              		.section	.text._ZN5rosic18MipMappedWaveTable8removeDCEv,"ax",%progbits
 283              		.align	1
 284              		.global	_ZN5rosic18MipMappedWaveTable8removeDCEv
 285              		.syntax unified
 286              		.thumb
 287              		.thumb_func
 289              	_ZN5rosic18MipMappedWaveTable8removeDCEv:
 290              	.LVL22:
 291              	.LFB1311:
  79:open303/Source/DSPCode/rosic_MipMappedWaveTable.cpp **** }
  80:open303/Source/DSPCode/rosic_MipMappedWaveTable.cpp **** 
  81:open303/Source/DSPCode/rosic_MipMappedWaveTable.cpp **** void MipMappedWaveTable::removeDC()
  82:open303/Source/DSPCode/rosic_MipMappedWaveTable.cpp **** {
 292              		.loc 1 82 1 is_stmt 1 view -0
 293              		.cfi_startproc
 294              		@ args = 0, pretend = 0, frame = 0
 295              		@ frame_needed = 0, uses_anonymous_args = 0
 296              		@ link register save eliminated.
  83:open303/Source/DSPCode/rosic_MipMappedWaveTable.cpp ****   // calculate DC-offset (= average value of the table):
  84:open303/Source/DSPCode/rosic_MipMappedWaveTable.cpp ****   double dcOffset = 0.0;
 297              		.loc 1 84 3 view .LVU66
  85:open303/Source/DSPCode/rosic_MipMappedWaveTable.cpp ****   int i;
 298              		.loc 1 85 3 view .LVU67
  86:open303/Source/DSPCode/rosic_MipMappedWaveTable.cpp ****   for(i=0; i<tableLength; i++)
 299              		.loc 1 86 3 view .LVU68
 300              		.loc 1 86 13 discriminator 1 view .LVU69
 301 0000 00F11803 		add	r3, r0, #24
 302 0004 00F50050 		add	r0, r0, #8192
 303              	.LVL23:
  84:open303/Source/DSPCode/rosic_MipMappedWaveTable.cpp ****   int i;
 304              		.loc 1 84 10 is_stmt 0 view .LVU70
 305 0008 9FED0B7B 		vldr.64	d7, .L18
 306 000c 1830     		adds	r0, r0, #24
 307              	.LVL24:
  82:open303/Source/DSPCode/rosic_MipMappedWaveTable.cpp ****   // calculate DC-offset (= average value of the table):
 308              		.loc 1 82 1 view .LVU71
 309 000e 1A46     		mov	r2, r3
 310              	.LVL25:
 311              	.L14:
  87:open303/Source/DSPCode/rosic_MipMappedWaveTable.cpp ****     dcOffset += prototypeTable[i];
 312              		.loc 1 87 5 is_stmt 1 view .LVU72
ARM GAS  /var/folders/7j/7n_15nxd0bx4q178nq7r8qsr0000gn/T//ccXsnuVa.s 			page 13


 313              		.loc 1 87 33 is_stmt 0 view .LVU73
 314 0010 B2EC026B 		vldmia.64	r2!, {d6}
  86:open303/Source/DSPCode/rosic_MipMappedWaveTable.cpp ****     dcOffset += prototypeTable[i];
 315              		.loc 1 86 13 discriminator 1 view .LVU74
 316 0014 8242     		cmp	r2, r0
 317              		.loc 1 87 14 view .LVU75
 318 0016 37EE067B 		vadd.f64	d7, d7, d6
 319              	.LVL26:
  86:open303/Source/DSPCode/rosic_MipMappedWaveTable.cpp ****     dcOffset += prototypeTable[i];
 320              		.loc 1 86 3 is_stmt 1 discriminator 3 view .LVU76
  86:open303/Source/DSPCode/rosic_MipMappedWaveTable.cpp ****     dcOffset += prototypeTable[i];
 321              		.loc 1 86 13 discriminator 1 view .LVU77
 322 001a F9D1     		bne	.L14
  88:open303/Source/DSPCode/rosic_MipMappedWaveTable.cpp ****   dcOffset = dcOffset / tableLength;
 323              		.loc 1 88 3 view .LVU78
 324              		.loc 1 88 12 is_stmt 0 view .LVU79
 325 001c 9FED086B 		vldr.64	d6, .L18+8
 326 0020 27EE067B 		vmul.f64	d7, d7, d6
 327              	.LVL27:
  89:open303/Source/DSPCode/rosic_MipMappedWaveTable.cpp **** 
  90:open303/Source/DSPCode/rosic_MipMappedWaveTable.cpp ****   // remove DC-Offset:
  91:open303/Source/DSPCode/rosic_MipMappedWaveTable.cpp ****   for(i=0; i<tableLength; i++)
 328              		.loc 1 91 3 is_stmt 1 view .LVU80
 329              		.loc 1 91 13 discriminator 1 view .LVU81
 330              	.L15:
  92:open303/Source/DSPCode/rosic_MipMappedWaveTable.cpp ****     prototypeTable[i] -= dcOffset;
 331              		.loc 1 92 5 view .LVU82
 332              		.loc 1 92 21 is_stmt 0 view .LVU83
 333 0024 93ED006B 		vldr.64	d6, [r3]
 334              		.loc 1 92 23 view .LVU84
 335 0028 36EE476B 		vsub.f64	d6, d6, d7
 336 002c A3EC026B 		vstmia.64	r3!, {d6}
  91:open303/Source/DSPCode/rosic_MipMappedWaveTable.cpp ****     prototypeTable[i] -= dcOffset;
 337              		.loc 1 91 3 is_stmt 1 discriminator 3 view .LVU85
  91:open303/Source/DSPCode/rosic_MipMappedWaveTable.cpp ****     prototypeTable[i] -= dcOffset;
 338              		.loc 1 91 13 discriminator 1 view .LVU86
 339 0030 8342     		cmp	r3, r0
 340 0032 F7D1     		bne	.L15
  93:open303/Source/DSPCode/rosic_MipMappedWaveTable.cpp **** }
 341              		.loc 1 93 1 is_stmt 0 view .LVU87
 342 0034 7047     		bx	lr
 343              	.L19:
 344 0036 00BF     		.align	3
 345              	.L18:
 346 0038 00000000 		.word	0
 347 003c 00000000 		.word	0
 348 0040 00000000 		.word	0
 349 0044 0000503F 		.word	1062207488
 350              		.cfi_endproc
 351              	.LFE1311:
 353              		.section	.text._ZN5rosic18MipMappedWaveTable9normalizeEv,"ax",%progbits
 354              		.align	1
 355              		.global	_ZN5rosic18MipMappedWaveTable9normalizeEv
 356              		.syntax unified
 357              		.thumb
 358              		.thumb_func
 360              	_ZN5rosic18MipMappedWaveTable9normalizeEv:
ARM GAS  /var/folders/7j/7n_15nxd0bx4q178nq7r8qsr0000gn/T//ccXsnuVa.s 			page 14


 361              	.LVL28:
 362              	.LFB1312:
  94:open303/Source/DSPCode/rosic_MipMappedWaveTable.cpp **** 
  95:open303/Source/DSPCode/rosic_MipMappedWaveTable.cpp **** void MipMappedWaveTable::normalize()
  96:open303/Source/DSPCode/rosic_MipMappedWaveTable.cpp **** {
 363              		.loc 1 96 1 is_stmt 1 view -0
 364              		.cfi_startproc
 365              		@ args = 0, pretend = 0, frame = 0
 366              		@ frame_needed = 0, uses_anonymous_args = 0
 367              		@ link register save eliminated.
  97:open303/Source/DSPCode/rosic_MipMappedWaveTable.cpp ****   // find maximum:
  98:open303/Source/DSPCode/rosic_MipMappedWaveTable.cpp ****   double max = 0.0;
 368              		.loc 1 98 3 view .LVU89
  99:open303/Source/DSPCode/rosic_MipMappedWaveTable.cpp ****   int    i;
 369              		.loc 1 99 3 view .LVU90
 100:open303/Source/DSPCode/rosic_MipMappedWaveTable.cpp ****   for(i=0; i<tableLength; i++)
 370              		.loc 1 100 3 view .LVU91
 371              		.loc 1 100 13 discriminator 1 view .LVU92
 372 0000 00F11803 		add	r3, r0, #24
 373 0004 00F50050 		add	r0, r0, #8192
 374              	.LVL29:
  98:open303/Source/DSPCode/rosic_MipMappedWaveTable.cpp ****   int    i;
 375              		.loc 1 98 10 is_stmt 0 view .LVU93
 376 0008 9FED0F7B 		vldr.64	d7, .L25
 377 000c 1830     		adds	r0, r0, #24
 378              	.LVL30:
  96:open303/Source/DSPCode/rosic_MipMappedWaveTable.cpp ****   // find maximum:
 379              		.loc 1 96 1 view .LVU94
 380 000e 1A46     		mov	r2, r3
 381              	.LVL31:
 382              	.L21:
 101:open303/Source/DSPCode/rosic_MipMappedWaveTable.cpp ****     if( fabs(prototypeTable[i]) > max)
 383              		.loc 1 101 5 is_stmt 1 view .LVU95
 384              		.loc 1 101 30 is_stmt 0 view .LVU96
 385 0010 B2EC026B 		vldmia.64	r2!, {d6}
 386              		.loc 1 101 13 view .LVU97
 387 0014 B0EEC66B 		vabs.f64	d6, d6
 388 0018 B4EEC76B 		vcmpe.f64	d6, d7
 389 001c F1EE10FA 		vmrs	APSR_nzcv, FPSCR
 390 0020 36FE077B 		vselgt.f64	d7, d6, d7
 391              	.LVL32:
 100:open303/Source/DSPCode/rosic_MipMappedWaveTable.cpp ****     if( fabs(prototypeTable[i]) > max)
 392              		.loc 1 100 3 is_stmt 1 discriminator 2 view .LVU98
 100:open303/Source/DSPCode/rosic_MipMappedWaveTable.cpp ****     if( fabs(prototypeTable[i]) > max)
 393              		.loc 1 100 13 discriminator 1 view .LVU99
 394 0024 8242     		cmp	r2, r0
 395 0026 F3D1     		bne	.L21
 102:open303/Source/DSPCode/rosic_MipMappedWaveTable.cpp ****       max = fabs(prototypeTable[i]);
 103:open303/Source/DSPCode/rosic_MipMappedWaveTable.cpp **** 
 104:open303/Source/DSPCode/rosic_MipMappedWaveTable.cpp ****   // normalize to amplitude 1.0:
 105:open303/Source/DSPCode/rosic_MipMappedWaveTable.cpp ****   double scale = 1.0/max;
 396              		.loc 1 105 3 view .LVU100
 397              		.loc 1 105 10 is_stmt 0 view .LVU101
 398 0028 B7EE005B 		vmov.f64	d5, #1.0e+0
 399 002c 85EE076B 		vdiv.f64	d6, d5, d7
 400              	.LVL33:
 106:open303/Source/DSPCode/rosic_MipMappedWaveTable.cpp ****   for(i=0; i<tableLength; i++)
ARM GAS  /var/folders/7j/7n_15nxd0bx4q178nq7r8qsr0000gn/T//ccXsnuVa.s 			page 15


 401              		.loc 1 106 3 is_stmt 1 view .LVU102
 402              		.loc 1 106 13 discriminator 1 view .LVU103
 403              	.L22:
 107:open303/Source/DSPCode/rosic_MipMappedWaveTable.cpp ****     prototypeTable[i] *= scale;
 404              		.loc 1 107 5 view .LVU104
 405              		.loc 1 107 21 is_stmt 0 view .LVU105
 406 0030 93ED007B 		vldr.64	d7, [r3]
 407              		.loc 1 107 23 view .LVU106
 408 0034 27EE067B 		vmul.f64	d7, d7, d6
 409 0038 A3EC027B 		vstmia.64	r3!, {d7}
 106:open303/Source/DSPCode/rosic_MipMappedWaveTable.cpp ****   for(i=0; i<tableLength; i++)
 410              		.loc 1 106 3 is_stmt 1 discriminator 3 view .LVU107
 106:open303/Source/DSPCode/rosic_MipMappedWaveTable.cpp ****   for(i=0; i<tableLength; i++)
 411              		.loc 1 106 13 discriminator 1 view .LVU108
 412 003c 8342     		cmp	r3, r0
 413 003e F7D1     		bne	.L22
 108:open303/Source/DSPCode/rosic_MipMappedWaveTable.cpp **** }
 414              		.loc 1 108 1 is_stmt 0 view .LVU109
 415 0040 7047     		bx	lr
 416              	.L26:
 417 0042 00BFAFF3 		.align	3
 417      0080
 418              	.L25:
 419 0048 00000000 		.word	0
 420 004c 00000000 		.word	0
 421              		.cfi_endproc
 422              	.LFE1312:
 424              		.section	.text._ZN5rosic18MipMappedWaveTable11reverseTimeEv,"ax",%progbits
 425              		.align	1
 426              		.global	_ZN5rosic18MipMappedWaveTable11reverseTimeEv
 427              		.syntax unified
 428              		.thumb
 429              		.thumb_func
 431              	_ZN5rosic18MipMappedWaveTable11reverseTimeEv:
 432              	.LVL34:
 433              	.LFB1313:
 109:open303/Source/DSPCode/rosic_MipMappedWaveTable.cpp **** 
 110:open303/Source/DSPCode/rosic_MipMappedWaveTable.cpp **** void MipMappedWaveTable::reverseTime()
 111:open303/Source/DSPCode/rosic_MipMappedWaveTable.cpp **** {
 434              		.loc 1 111 1 is_stmt 1 view -0
 435              		.cfi_startproc
 436              		@ args = 0, pretend = 0, frame = 8224
 437              		@ frame_needed = 0, uses_anonymous_args = 0
 112:open303/Source/DSPCode/rosic_MipMappedWaveTable.cpp ****   int    i;
 438              		.loc 1 112 3 view .LVU111
 113:open303/Source/DSPCode/rosic_MipMappedWaveTable.cpp ****   double tmpTable[tableLength+4];
 439              		.loc 1 113 3 view .LVU112
 114:open303/Source/DSPCode/rosic_MipMappedWaveTable.cpp **** 
 115:open303/Source/DSPCode/rosic_MipMappedWaveTable.cpp ****   for(i=0; i<tableLength; i++)
 440              		.loc 1 115 3 view .LVU113
 441              		.loc 1 115 13 discriminator 1 view .LVU114
 111:open303/Source/DSPCode/rosic_MipMappedWaveTable.cpp ****   int    i;
 442              		.loc 1 111 1 is_stmt 0 view .LVU115
 443 0000 30B5     		push	{r4, r5, lr}
 444              		.cfi_def_cfa_offset 12
 445              		.cfi_offset 4, -12
 446              		.cfi_offset 5, -8
ARM GAS  /var/folders/7j/7n_15nxd0bx4q178nq7r8qsr0000gn/T//ccXsnuVa.s 			page 16


 447              		.cfi_offset 14, -4
 448 0002 ADF5005D 		sub	sp, sp, #8192
 449              		.cfi_def_cfa_offset 8204
 450 0006 00F50053 		add	r3, r0, #8192
 451 000a 1830     		adds	r0, r0, #24
 452              	.LVL35:
 111:open303/Source/DSPCode/rosic_MipMappedWaveTable.cpp ****   int    i;
 453              		.loc 1 111 1 view .LVU116
 454 000c 89B0     		sub	sp, sp, #36
 455              		.cfi_def_cfa_offset 8240
 456 000e 1833     		adds	r3, r3, #24
 457 0010 6A46     		mov	r2, sp
 458              	.LVL36:
 459              	.L28:
 116:open303/Source/DSPCode/rosic_MipMappedWaveTable.cpp ****     tmpTable[i] = prototypeTable[tableLength-i-1];
 460              		.loc 1 116 5 is_stmt 1 view .LVU117
 461              		.loc 1 116 17 is_stmt 0 view .LVU118
 462 0012 73E90245 		ldrd	r4, [r3, #-8]!
 115:open303/Source/DSPCode/rosic_MipMappedWaveTable.cpp ****     tmpTable[i] = prototypeTable[tableLength-i-1];
 463              		.loc 1 115 13 discriminator 1 view .LVU119
 464 0016 8342     		cmp	r3, r0
 465              		.loc 1 116 17 view .LVU120
 466 0018 E2E80245 		strd	r4, [r2], #8
 115:open303/Source/DSPCode/rosic_MipMappedWaveTable.cpp ****     tmpTable[i] = prototypeTable[tableLength-i-1];
 467              		.loc 1 115 3 is_stmt 1 discriminator 3 view .LVU121
 115:open303/Source/DSPCode/rosic_MipMappedWaveTable.cpp ****     tmpTable[i] = prototypeTable[tableLength-i-1];
 468              		.loc 1 115 13 discriminator 1 view .LVU122
 469 001c F9D1     		bne	.L28
 117:open303/Source/DSPCode/rosic_MipMappedWaveTable.cpp **** 
 118:open303/Source/DSPCode/rosic_MipMappedWaveTable.cpp ****   for(i=0; i<tableLength; i++)
 119:open303/Source/DSPCode/rosic_MipMappedWaveTable.cpp ****     prototypeTable[i] = tmpTable[i];
 470              		.loc 1 119 23 is_stmt 0 view .LVU123
 471 001e 4FF40052 		mov	r2, #8192
 472 0022 6946     		mov	r1, sp
 473 0024 1846     		mov	r0, r3
 474              	.LVL37:
 475              		.loc 1 119 23 view .LVU124
 476 0026 FFF7FEFF 		bl	memcpy
 477              	.LVL38:
 120:open303/Source/DSPCode/rosic_MipMappedWaveTable.cpp **** }
 478              		.loc 1 120 1 view .LVU125
 479 002a 0DF5005D 		add	sp, sp, #8192
 480 002e 09B0     		add	sp, sp, #36
 481              		.cfi_def_cfa_offset 12
 482              		@ sp needed
 483 0030 30BD     		pop	{r4, r5, pc}
 484              		.cfi_endproc
 485              	.LFE1313:
 487              		.section	.text._ZN5rosic18MipMappedWaveTable14generateMipMapEv,"ax",%progbits
 488              		.align	1
 489              		.global	_ZN5rosic18MipMappedWaveTable14generateMipMapEv
 490              		.syntax unified
 491              		.thumb
 492              		.thumb_func
 494              	_ZN5rosic18MipMappedWaveTable14generateMipMapEv:
 495              	.LVL39:
 496              	.LFB1315:
ARM GAS  /var/folders/7j/7n_15nxd0bx4q178nq7r8qsr0000gn/T//ccXsnuVa.s 			page 17


 121:open303/Source/DSPCode/rosic_MipMappedWaveTable.cpp **** 
 122:open303/Source/DSPCode/rosic_MipMappedWaveTable.cpp **** void MipMappedWaveTable::renderWaveform()
 123:open303/Source/DSPCode/rosic_MipMappedWaveTable.cpp **** {
 124:open303/Source/DSPCode/rosic_MipMappedWaveTable.cpp ****   switch( waveform )
 125:open303/Source/DSPCode/rosic_MipMappedWaveTable.cpp ****   {
 126:open303/Source/DSPCode/rosic_MipMappedWaveTable.cpp ****   case   SINE:      fillWithSine();        break;
 127:open303/Source/DSPCode/rosic_MipMappedWaveTable.cpp ****   case   TRIANGLE:  fillWithTriangle();    break;
 128:open303/Source/DSPCode/rosic_MipMappedWaveTable.cpp ****   case   SQUARE:    fillWithSquare();      break;
 129:open303/Source/DSPCode/rosic_MipMappedWaveTable.cpp ****   case   SAW:       fillWithSaw();         break;
 130:open303/Source/DSPCode/rosic_MipMappedWaveTable.cpp ****   case   SQUARE303: fillWithSquare303();   break;
 131:open303/Source/DSPCode/rosic_MipMappedWaveTable.cpp ****   case   SAW303:    fillWithSaw303();      break;
 132:open303/Source/DSPCode/rosic_MipMappedWaveTable.cpp **** 
 133:open303/Source/DSPCode/rosic_MipMappedWaveTable.cpp ****   default :  fillWithSine();
 134:open303/Source/DSPCode/rosic_MipMappedWaveTable.cpp ****   }
 135:open303/Source/DSPCode/rosic_MipMappedWaveTable.cpp **** }
 136:open303/Source/DSPCode/rosic_MipMappedWaveTable.cpp **** 
 137:open303/Source/DSPCode/rosic_MipMappedWaveTable.cpp **** void MipMappedWaveTable::generateMipMap()
 138:open303/Source/DSPCode/rosic_MipMappedWaveTable.cpp **** {
 497              		.loc 1 138 1 is_stmt 1 view -0
 498              		.cfi_startproc
 499              		@ args = 0, pretend = 0, frame = 0
 500              		@ frame_needed = 0, uses_anonymous_args = 0
 139:open303/Source/DSPCode/rosic_MipMappedWaveTable.cpp ****   static double spectrum[tableLength];
 501              		.loc 1 139 3 view .LVU127
 140:open303/Source/DSPCode/rosic_MipMappedWaveTable.cpp ****   //static int    position, offset;
 141:open303/Source/DSPCode/rosic_MipMappedWaveTable.cpp ****   static int t, i; // indices for the table and position
 502              		.loc 1 141 3 view .LVU128
 142:open303/Source/DSPCode/rosic_MipMappedWaveTable.cpp **** 
 143:open303/Source/DSPCode/rosic_MipMappedWaveTable.cpp ****   //position = 0;             // begin of the 1st table (index 0)
 144:open303/Source/DSPCode/rosic_MipMappedWaveTable.cpp ****   //offset   = tableLength+4; // offset between tow tables, the 4 is the number
 145:open303/Source/DSPCode/rosic_MipMappedWaveTable.cpp ****   // of additional samples used for interpolation
 146:open303/Source/DSPCode/rosic_MipMappedWaveTable.cpp **** 
 147:open303/Source/DSPCode/rosic_MipMappedWaveTable.cpp ****   // copy the prototypeTable into the 1st table of the mipmap (this actually makes the
 148:open303/Source/DSPCode/rosic_MipMappedWaveTable.cpp ****   // prototypeTable redundant - room for optimization here):
 149:open303/Source/DSPCode/rosic_MipMappedWaveTable.cpp ****   t = 0;
 503              		.loc 1 149 3 view .LVU129
 138:open303/Source/DSPCode/rosic_MipMappedWaveTable.cpp ****   static double spectrum[tableLength];
 504              		.loc 1 138 1 is_stmt 0 view .LVU130
 505 0000 2DE9F84F 		push	{r3, r4, r5, r6, r7, r8, r9, r10, fp, lr}
 506              		.cfi_def_cfa_offset 40
 507              		.cfi_offset 3, -40
 508              		.cfi_offset 4, -36
 509              		.cfi_offset 5, -32
 510              		.cfi_offset 6, -28
 511              		.cfi_offset 7, -24
 512              		.cfi_offset 8, -20
 513              		.cfi_offset 9, -16
 514              		.cfi_offset 10, -12
 515              		.cfi_offset 11, -8
 516              		.cfi_offset 14, -4
 517 0004 0546     		mov	r5, r0
 518 0006 1830     		adds	r0, r0, #24
 519              	.LVL40:
 520              		.loc 1 149 5 view .LVU131
 521 0008 0023     		movs	r3, #0
 522 000a DFF87C91 		ldr	r9, .L45+24
 523 000e 05F50052 		add	r2, r5, #8192
ARM GAS  /var/folders/7j/7n_15nxd0bx4q178nq7r8qsr0000gn/T//ccXsnuVa.s 			page 18


 150:open303/Source/DSPCode/rosic_MipMappedWaveTable.cpp ****   for(i=0; i<tableLength; i++)
 524              		.loc 1 150 8 view .LVU132
 525 0012 5B4F     		ldr	r7, .L45+16
 526 0014 0146     		mov	r1, r0
 527 0016 1832     		adds	r2, r2, #24
 528              		.loc 1 150 3 view .LVU133
 529 0018 1446     		mov	r4, r2
 138:open303/Source/DSPCode/rosic_MipMappedWaveTable.cpp ****   static double spectrum[tableLength];
 530              		.loc 1 138 1 view .LVU134
 531 001a 2DED048B 		vpush.64	{d8, d9}
 532              		.cfi_def_cfa_offset 56
 533              		.cfi_offset 80, -56
 534              		.cfi_offset 81, -52
 535              		.cfi_offset 82, -48
 536              		.cfi_offset 83, -44
 149:open303/Source/DSPCode/rosic_MipMappedWaveTable.cpp ****   for(i=0; i<tableLength; i++)
 537              		.loc 1 149 5 view .LVU135
 538 001e C9F80030 		str	r3, [r9]
 539              		.loc 1 150 3 is_stmt 1 view .LVU136
 540              		.loc 1 150 8 is_stmt 0 view .LVU137
 541 0022 3B60     		str	r3, [r7]
 542              	.L31:
 543              		.loc 1 150 13 is_stmt 1 discriminator 1 view .LVU138
 544 0024 9042     		cmp	r0, r2
 545 0026 33D1     		bne	.L32
 546 0028 13B1     		cbz	r3, .L33
 547 002a 4FF48063 		mov	r3, #1024
 548 002e 3B60     		str	r3, [r7]
 549              	.L33:
 151:open303/Source/DSPCode/rosic_MipMappedWaveTable.cpp ****     tableSet[0][i] = prototypeTable[i];
 152:open303/Source/DSPCode/rosic_MipMappedWaveTable.cpp **** 
 153:open303/Source/DSPCode/rosic_MipMappedWaveTable.cpp ****   // additional sample(s) for the interpolator:
 154:open303/Source/DSPCode/rosic_MipMappedWaveTable.cpp ****   tableSet[t][tableLength]   = tableSet[t][0];
 550              		.loc 1 154 3 view .LVU139
 551              		.loc 1 154 45 is_stmt 0 view .LVU140
 552 0030 05F50052 		add	r2, r5, #8192
 553              		.loc 1 154 30 view .LVU141
 554 0034 05F58043 		add	r3, r5, #16384
 155:open303/Source/DSPCode/rosic_MipMappedWaveTable.cpp ****   tableSet[t][tableLength+1] = tableSet[t][1];
 156:open303/Source/DSPCode/rosic_MipMappedWaveTable.cpp ****   tableSet[t][tableLength+2] = tableSet[t][2];
 157:open303/Source/DSPCode/rosic_MipMappedWaveTable.cpp ****   tableSet[t][tableLength+3] = tableSet[t][3];
 158:open303/Source/DSPCode/rosic_MipMappedWaveTable.cpp **** 
 159:open303/Source/DSPCode/rosic_MipMappedWaveTable.cpp ****   // get the spectrum from the prototype-table:
 160:open303/Source/DSPCode/rosic_MipMappedWaveTable.cpp ****   fourierTransformer.transformRealSignal(prototypeTable, spectrum);
 555              		.loc 1 160 41 view .LVU142
 556 0038 DFF84881 		ldr	r8, .L45+20
 557 003c 05F5D030 		add	r0, r5, #106496
 161:open303/Source/DSPCode/rosic_MipMappedWaveTable.cpp **** 
 162:open303/Source/DSPCode/rosic_MipMappedWaveTable.cpp ****   // ensure that DC and Nyquist are zero:
 163:open303/Source/DSPCode/rosic_MipMappedWaveTable.cpp ****   spectrum[0] = 0.0;
 164:open303/Source/DSPCode/rosic_MipMappedWaveTable.cpp ****   spectrum[1] = 0.0;
 165:open303/Source/DSPCode/rosic_MipMappedWaveTable.cpp **** 
 166:open303/Source/DSPCode/rosic_MipMappedWaveTable.cpp ****   // now, render the bandlimited versions by successively shrinking the
 167:open303/Source/DSPCode/rosic_MipMappedWaveTable.cpp ****   // spectrum by one octave and iFFT'ing this spectrum:
 168:open303/Source/DSPCode/rosic_MipMappedWaveTable.cpp ****   int lowBin, highBin;
 169:open303/Source/DSPCode/rosic_MipMappedWaveTable.cpp ****   for(t=1; t<numTables; t++)
 558              		.loc 1 169 3 view .LVU143
ARM GAS  /var/folders/7j/7n_15nxd0bx4q178nq7r8qsr0000gn/T//ccXsnuVa.s 			page 19


 559 0040 0124     		movs	r4, #1
 160:open303/Source/DSPCode/rosic_MipMappedWaveTable.cpp **** 
 560              		.loc 1 160 41 view .LVU144
 561 0042 00F5CC70 		add	r0, r0, #408
 154:open303/Source/DSPCode/rosic_MipMappedWaveTable.cpp ****   tableSet[t][tableLength+1] = tableSet[t][1];
 562              		.loc 1 154 30 view .LVU145
 563 0046 D2E906AB 		ldrd	r10, [r2, #24]
 163:open303/Source/DSPCode/rosic_MipMappedWaveTable.cpp ****   spectrum[1] = 0.0;
 564              		.loc 1 163 15 view .LVU146
 565 004a 9FED498B 		vldr.64	d8, .L45
 154:open303/Source/DSPCode/rosic_MipMappedWaveTable.cpp ****   tableSet[t][tableLength+1] = tableSet[t][1];
 566              		.loc 1 154 30 view .LVU147
 567 004e C3E906AB 		strd	r10, [r3, #24]
 155:open303/Source/DSPCode/rosic_MipMappedWaveTable.cpp ****   tableSet[t][tableLength+2] = tableSet[t][2];
 568              		.loc 1 155 3 is_stmt 1 view .LVU148
 155:open303/Source/DSPCode/rosic_MipMappedWaveTable.cpp ****   tableSet[t][tableLength+2] = tableSet[t][2];
 569              		.loc 1 155 30 is_stmt 0 view .LVU149
 570 0052 D2E908AB 		ldrd	r10, [r2, #32]
 156:open303/Source/DSPCode/rosic_MipMappedWaveTable.cpp ****   tableSet[t][tableLength+3] = tableSet[t][3];
 571              		.loc 1 156 45 view .LVU150
 572 0056 05F50052 		add	r2, r5, #8192
 155:open303/Source/DSPCode/rosic_MipMappedWaveTable.cpp ****   tableSet[t][tableLength+2] = tableSet[t][2];
 573              		.loc 1 155 30 view .LVU151
 574 005a C3E908AB 		strd	r10, [r3, #32]
 156:open303/Source/DSPCode/rosic_MipMappedWaveTable.cpp ****   tableSet[t][tableLength+3] = tableSet[t][3];
 575              		.loc 1 156 3 is_stmt 1 view .LVU152
 156:open303/Source/DSPCode/rosic_MipMappedWaveTable.cpp ****   tableSet[t][tableLength+3] = tableSet[t][3];
 576              		.loc 1 156 30 is_stmt 0 view .LVU153
 577 005e D2E90AAB 		ldrd	r10, [r2, #40]
 578 0062 05F58043 		add	r3, r5, #16384
 579 0066 C3E90AAB 		strd	r10, [r3, #40]
 157:open303/Source/DSPCode/rosic_MipMappedWaveTable.cpp **** 
 580              		.loc 1 157 3 is_stmt 1 view .LVU154
 157:open303/Source/DSPCode/rosic_MipMappedWaveTable.cpp **** 
 581              		.loc 1 157 30 is_stmt 0 view .LVU155
 582 006a D2E90CAB 		ldrd	r10, [r2, #48]
 160:open303/Source/DSPCode/rosic_MipMappedWaveTable.cpp **** 
 583              		.loc 1 160 41 view .LVU156
 584 006e 4246     		mov	r2, r8
 157:open303/Source/DSPCode/rosic_MipMappedWaveTable.cpp **** 
 585              		.loc 1 157 30 view .LVU157
 586 0070 C3E90CAB 		strd	r10, [r3, #48]
 160:open303/Source/DSPCode/rosic_MipMappedWaveTable.cpp **** 
 587              		.loc 1 160 3 is_stmt 1 view .LVU158
 160:open303/Source/DSPCode/rosic_MipMappedWaveTable.cpp **** 
 588              		.loc 1 160 41 is_stmt 0 view .LVU159
 589 0074 FFF7FEFF 		bl	_ZN5rosic24FourierTransformerRadix219transformRealSignalEPdS1_
 590              	.LVL41:
 163:open303/Source/DSPCode/rosic_MipMappedWaveTable.cpp ****   spectrum[1] = 0.0;
 591              		.loc 1 163 3 is_stmt 1 view .LVU160
 163:open303/Source/DSPCode/rosic_MipMappedWaveTable.cpp ****   spectrum[1] = 0.0;
 592              		.loc 1 163 15 is_stmt 0 view .LVU161
 593 0078 88ED008B 		vstr.64	d8, [r8]
 164:open303/Source/DSPCode/rosic_MipMappedWaveTable.cpp **** 
 594              		.loc 1 164 3 is_stmt 1 view .LVU162
 164:open303/Source/DSPCode/rosic_MipMappedWaveTable.cpp **** 
 595              		.loc 1 164 15 is_stmt 0 view .LVU163
ARM GAS  /var/folders/7j/7n_15nxd0bx4q178nq7r8qsr0000gn/T//ccXsnuVa.s 			page 20


 596 007c 88ED028B 		vstr.64	d8, [r8, #8]
 168:open303/Source/DSPCode/rosic_MipMappedWaveTable.cpp ****   for(t=1; t<numTables; t++)
 597              		.loc 1 168 3 is_stmt 1 view .LVU164
 598              		.loc 1 169 3 view .LVU165
 599              	.L34:
 600              		.loc 1 169 13 is_stmt 0 discriminator 1 view .LVU166
 601 0080 0B2C     		cmp	r4, #11
 602              		.loc 1 169 8 view .LVU167
 603 0082 C9F80040 		str	r4, [r9]
 604              		.loc 1 169 13 is_stmt 1 discriminator 1 view .LVU168
 605 0086 09DD     		ble	.L38
 170:open303/Source/DSPCode/rosic_MipMappedWaveTable.cpp ****   {
 171:open303/Source/DSPCode/rosic_MipMappedWaveTable.cpp ****     lowBin  = (int) (tableLength / pow(2.0, t));   // the cutoff-bin
 172:open303/Source/DSPCode/rosic_MipMappedWaveTable.cpp ****     highBin = (int) (tableLength / pow(2.0, t-1)); // the bin up to which the
 173:open303/Source/DSPCode/rosic_MipMappedWaveTable.cpp ****     // spectrum is currently still nonzero
 174:open303/Source/DSPCode/rosic_MipMappedWaveTable.cpp **** 
 175:open303/Source/DSPCode/rosic_MipMappedWaveTable.cpp ****     // zero out the bins above the cutoff-bin:
 176:open303/Source/DSPCode/rosic_MipMappedWaveTable.cpp ****     for(i=lowBin; i<highBin; i++)
 177:open303/Source/DSPCode/rosic_MipMappedWaveTable.cpp ****       spectrum[i] = 0.0;
 178:open303/Source/DSPCode/rosic_MipMappedWaveTable.cpp **** 
 179:open303/Source/DSPCode/rosic_MipMappedWaveTable.cpp ****     // transform the truncated spectrum back to the time-domain and store it in
 180:open303/Source/DSPCode/rosic_MipMappedWaveTable.cpp ****     // the tableSet
 181:open303/Source/DSPCode/rosic_MipMappedWaveTable.cpp ****     fourierTransformer.transformSymmetricSpectrum(spectrum, tableSet[t]);
 182:open303/Source/DSPCode/rosic_MipMappedWaveTable.cpp **** 
 183:open303/Source/DSPCode/rosic_MipMappedWaveTable.cpp ****     // additional sample(s) for the interpolator:
 184:open303/Source/DSPCode/rosic_MipMappedWaveTable.cpp ****     tableSet[t][tableLength]   = tableSet[t][0];
 185:open303/Source/DSPCode/rosic_MipMappedWaveTable.cpp ****     tableSet[t][tableLength+1] = tableSet[t][1];
 186:open303/Source/DSPCode/rosic_MipMappedWaveTable.cpp ****     tableSet[t][tableLength+2] = tableSet[t][2];
 187:open303/Source/DSPCode/rosic_MipMappedWaveTable.cpp ****     tableSet[t][tableLength+3] = tableSet[t][3];
 188:open303/Source/DSPCode/rosic_MipMappedWaveTable.cpp ****   }
 189:open303/Source/DSPCode/rosic_MipMappedWaveTable.cpp **** }
 606              		.loc 1 189 1 is_stmt 0 view .LVU169
 607 0088 BDEC048B 		vldm	sp!, {d8-d9}
 608              		.cfi_remember_state
 609              		.cfi_restore 82
 610              		.cfi_restore 83
 611              		.cfi_restore 80
 612              		.cfi_restore 81
 613              		.cfi_def_cfa_offset 40
 614 008c BDE8F88F 		pop	{r3, r4, r5, r6, r7, r8, r9, r10, fp, pc}
 615              	.LVL42:
 616              	.L32:
 617              		.cfi_restore_state
 151:open303/Source/DSPCode/rosic_MipMappedWaveTable.cpp **** 
 618              		.loc 1 151 5 is_stmt 1 view .LVU170
 151:open303/Source/DSPCode/rosic_MipMappedWaveTable.cpp **** 
 619              		.loc 1 151 38 is_stmt 0 view .LVU171
 620 0090 F0E802AB 		ldrd	r10, [r0], #8
 151:open303/Source/DSPCode/rosic_MipMappedWaveTable.cpp **** 
 621              		.loc 1 151 20 view .LVU172
 622 0094 0123     		movs	r3, #1
 623 0096 E4E802AB 		strd	r10, [r4], #8
 150:open303/Source/DSPCode/rosic_MipMappedWaveTable.cpp ****     tableSet[0][i] = prototypeTable[i];
 624              		.loc 1 150 3 is_stmt 1 discriminator 3 view .LVU173
 625 009a C3E7     		b	.L31
 626              	.L38:
 171:open303/Source/DSPCode/rosic_MipMappedWaveTable.cpp ****     highBin = (int) (tableLength / pow(2.0, t-1)); // the bin up to which the
ARM GAS  /var/folders/7j/7n_15nxd0bx4q178nq7r8qsr0000gn/T//ccXsnuVa.s 			page 21


 627              		.loc 1 171 5 view .LVU174
 628              	.LVL43:
 629              	.LBB31:
 630              	.LBI31:
 631              		.file 4 "/Applications/ArmGNUToolchain/15.2.rel1/arm-none-eabi/arm-none-eabi/include/c++/15.2.1/cm
   1:/Applications/ArmGNUToolchain/15.2.rel1/arm-none-eabi/arm-none-eabi/include/c++/15.2.1/cmath **** // -*- C++ -*- C forwarding header.
   2:/Applications/ArmGNUToolchain/15.2.rel1/arm-none-eabi/arm-none-eabi/include/c++/15.2.1/cmath **** 
   3:/Applications/ArmGNUToolchain/15.2.rel1/arm-none-eabi/arm-none-eabi/include/c++/15.2.1/cmath **** // Copyright (C) 1997-2025 Free Software Foundation, Inc.
   4:/Applications/ArmGNUToolchain/15.2.rel1/arm-none-eabi/arm-none-eabi/include/c++/15.2.1/cmath **** //
   5:/Applications/ArmGNUToolchain/15.2.rel1/arm-none-eabi/arm-none-eabi/include/c++/15.2.1/cmath **** // This file is part of the GNU ISO C++ Library.  This library is free
   6:/Applications/ArmGNUToolchain/15.2.rel1/arm-none-eabi/arm-none-eabi/include/c++/15.2.1/cmath **** // software; you can redistribute it and/or modify it under the
   7:/Applications/ArmGNUToolchain/15.2.rel1/arm-none-eabi/arm-none-eabi/include/c++/15.2.1/cmath **** // terms of the GNU General Public License as published by the
   8:/Applications/ArmGNUToolchain/15.2.rel1/arm-none-eabi/arm-none-eabi/include/c++/15.2.1/cmath **** // Free Software Foundation; either version 3, or (at your option)
   9:/Applications/ArmGNUToolchain/15.2.rel1/arm-none-eabi/arm-none-eabi/include/c++/15.2.1/cmath **** // any later version.
  10:/Applications/ArmGNUToolchain/15.2.rel1/arm-none-eabi/arm-none-eabi/include/c++/15.2.1/cmath **** 
  11:/Applications/ArmGNUToolchain/15.2.rel1/arm-none-eabi/arm-none-eabi/include/c++/15.2.1/cmath **** // This library is distributed in the hope that it will be useful,
  12:/Applications/ArmGNUToolchain/15.2.rel1/arm-none-eabi/arm-none-eabi/include/c++/15.2.1/cmath **** // but WITHOUT ANY WARRANTY; without even the implied warranty of
  13:/Applications/ArmGNUToolchain/15.2.rel1/arm-none-eabi/arm-none-eabi/include/c++/15.2.1/cmath **** // MERCHANTABILITY or FITNESS FOR A PARTICULAR PURPOSE.  See the
  14:/Applications/ArmGNUToolchain/15.2.rel1/arm-none-eabi/arm-none-eabi/include/c++/15.2.1/cmath **** // GNU General Public License for more details.
  15:/Applications/ArmGNUToolchain/15.2.rel1/arm-none-eabi/arm-none-eabi/include/c++/15.2.1/cmath **** 
  16:/Applications/ArmGNUToolchain/15.2.rel1/arm-none-eabi/arm-none-eabi/include/c++/15.2.1/cmath **** // Under Section 7 of GPL version 3, you are granted additional
  17:/Applications/ArmGNUToolchain/15.2.rel1/arm-none-eabi/arm-none-eabi/include/c++/15.2.1/cmath **** // permissions described in the GCC Runtime Library Exception, version
  18:/Applications/ArmGNUToolchain/15.2.rel1/arm-none-eabi/arm-none-eabi/include/c++/15.2.1/cmath **** // 3.1, as published by the Free Software Foundation.
  19:/Applications/ArmGNUToolchain/15.2.rel1/arm-none-eabi/arm-none-eabi/include/c++/15.2.1/cmath **** 
  20:/Applications/ArmGNUToolchain/15.2.rel1/arm-none-eabi/arm-none-eabi/include/c++/15.2.1/cmath **** // You should have received a copy of the GNU General Public License and
  21:/Applications/ArmGNUToolchain/15.2.rel1/arm-none-eabi/arm-none-eabi/include/c++/15.2.1/cmath **** // a copy of the GCC Runtime Library Exception along with this program;
  22:/Applications/ArmGNUToolchain/15.2.rel1/arm-none-eabi/arm-none-eabi/include/c++/15.2.1/cmath **** // see the files COPYING3 and COPYING.RUNTIME respectively.  If not, see
  23:/Applications/ArmGNUToolchain/15.2.rel1/arm-none-eabi/arm-none-eabi/include/c++/15.2.1/cmath **** // <http://www.gnu.org/licenses/>.
  24:/Applications/ArmGNUToolchain/15.2.rel1/arm-none-eabi/arm-none-eabi/include/c++/15.2.1/cmath **** 
  25:/Applications/ArmGNUToolchain/15.2.rel1/arm-none-eabi/arm-none-eabi/include/c++/15.2.1/cmath **** /** @file include/cmath
  26:/Applications/ArmGNUToolchain/15.2.rel1/arm-none-eabi/arm-none-eabi/include/c++/15.2.1/cmath ****  *  This is a Standard C++ Library file.  You should @c \#include this file
  27:/Applications/ArmGNUToolchain/15.2.rel1/arm-none-eabi/arm-none-eabi/include/c++/15.2.1/cmath ****  *  in your programs, rather than any of the @a *.h implementation files.
  28:/Applications/ArmGNUToolchain/15.2.rel1/arm-none-eabi/arm-none-eabi/include/c++/15.2.1/cmath ****  *
  29:/Applications/ArmGNUToolchain/15.2.rel1/arm-none-eabi/arm-none-eabi/include/c++/15.2.1/cmath ****  *  This is the C++ version of the Standard C Library header @c math.h,
  30:/Applications/ArmGNUToolchain/15.2.rel1/arm-none-eabi/arm-none-eabi/include/c++/15.2.1/cmath ****  *  and its contents are (mostly) the same as that header, but are all
  31:/Applications/ArmGNUToolchain/15.2.rel1/arm-none-eabi/arm-none-eabi/include/c++/15.2.1/cmath ****  *  contained in the namespace @c std (except for names which are defined
  32:/Applications/ArmGNUToolchain/15.2.rel1/arm-none-eabi/arm-none-eabi/include/c++/15.2.1/cmath ****  *  as macros in C).
  33:/Applications/ArmGNUToolchain/15.2.rel1/arm-none-eabi/arm-none-eabi/include/c++/15.2.1/cmath ****  */
  34:/Applications/ArmGNUToolchain/15.2.rel1/arm-none-eabi/arm-none-eabi/include/c++/15.2.1/cmath **** 
  35:/Applications/ArmGNUToolchain/15.2.rel1/arm-none-eabi/arm-none-eabi/include/c++/15.2.1/cmath **** //
  36:/Applications/ArmGNUToolchain/15.2.rel1/arm-none-eabi/arm-none-eabi/include/c++/15.2.1/cmath **** // ISO C++ 14882: 26.5  C library
  37:/Applications/ArmGNUToolchain/15.2.rel1/arm-none-eabi/arm-none-eabi/include/c++/15.2.1/cmath **** //
  38:/Applications/ArmGNUToolchain/15.2.rel1/arm-none-eabi/arm-none-eabi/include/c++/15.2.1/cmath **** 
  39:/Applications/ArmGNUToolchain/15.2.rel1/arm-none-eabi/arm-none-eabi/include/c++/15.2.1/cmath **** #ifndef _GLIBCXX_CMATH
  40:/Applications/ArmGNUToolchain/15.2.rel1/arm-none-eabi/arm-none-eabi/include/c++/15.2.1/cmath **** #define _GLIBCXX_CMATH 1
  41:/Applications/ArmGNUToolchain/15.2.rel1/arm-none-eabi/arm-none-eabi/include/c++/15.2.1/cmath **** 
  42:/Applications/ArmGNUToolchain/15.2.rel1/arm-none-eabi/arm-none-eabi/include/c++/15.2.1/cmath **** #ifdef _GLIBCXX_SYSHDR
  43:/Applications/ArmGNUToolchain/15.2.rel1/arm-none-eabi/arm-none-eabi/include/c++/15.2.1/cmath **** #pragma GCC system_header
  44:/Applications/ArmGNUToolchain/15.2.rel1/arm-none-eabi/arm-none-eabi/include/c++/15.2.1/cmath **** #endif
  45:/Applications/ArmGNUToolchain/15.2.rel1/arm-none-eabi/arm-none-eabi/include/c++/15.2.1/cmath **** 
  46:/Applications/ArmGNUToolchain/15.2.rel1/arm-none-eabi/arm-none-eabi/include/c++/15.2.1/cmath **** #include <bits/requires_hosted.h>
  47:/Applications/ArmGNUToolchain/15.2.rel1/arm-none-eabi/arm-none-eabi/include/c++/15.2.1/cmath **** 
  48:/Applications/ArmGNUToolchain/15.2.rel1/arm-none-eabi/arm-none-eabi/include/c++/15.2.1/cmath **** #include <bits/c++config.h>
  49:/Applications/ArmGNUToolchain/15.2.rel1/arm-none-eabi/arm-none-eabi/include/c++/15.2.1/cmath **** #include <bits/cpp_type_traits.h>
  50:/Applications/ArmGNUToolchain/15.2.rel1/arm-none-eabi/arm-none-eabi/include/c++/15.2.1/cmath **** #include <ext/type_traits.h>
  51:/Applications/ArmGNUToolchain/15.2.rel1/arm-none-eabi/arm-none-eabi/include/c++/15.2.1/cmath **** 
  52:/Applications/ArmGNUToolchain/15.2.rel1/arm-none-eabi/arm-none-eabi/include/c++/15.2.1/cmath **** #pragma GCC diagnostic push
ARM GAS  /var/folders/7j/7n_15nxd0bx4q178nq7r8qsr0000gn/T//ccXsnuVa.s 			page 22


  53:/Applications/ArmGNUToolchain/15.2.rel1/arm-none-eabi/arm-none-eabi/include/c++/15.2.1/cmath **** #pragma GCC diagnostic ignored "-Wpedantic" // include_next
  54:/Applications/ArmGNUToolchain/15.2.rel1/arm-none-eabi/arm-none-eabi/include/c++/15.2.1/cmath **** #define _GLIBCXX_INCLUDE_NEXT_C_HEADERS
  55:/Applications/ArmGNUToolchain/15.2.rel1/arm-none-eabi/arm-none-eabi/include/c++/15.2.1/cmath **** #include_next <math.h>
  56:/Applications/ArmGNUToolchain/15.2.rel1/arm-none-eabi/arm-none-eabi/include/c++/15.2.1/cmath **** #undef _GLIBCXX_INCLUDE_NEXT_C_HEADERS
  57:/Applications/ArmGNUToolchain/15.2.rel1/arm-none-eabi/arm-none-eabi/include/c++/15.2.1/cmath **** #pragma GCC diagnostic pop
  58:/Applications/ArmGNUToolchain/15.2.rel1/arm-none-eabi/arm-none-eabi/include/c++/15.2.1/cmath **** 
  59:/Applications/ArmGNUToolchain/15.2.rel1/arm-none-eabi/arm-none-eabi/include/c++/15.2.1/cmath **** #include <bits/std_abs.h>
  60:/Applications/ArmGNUToolchain/15.2.rel1/arm-none-eabi/arm-none-eabi/include/c++/15.2.1/cmath **** 
  61:/Applications/ArmGNUToolchain/15.2.rel1/arm-none-eabi/arm-none-eabi/include/c++/15.2.1/cmath **** #define __glibcxx_want_hypot
  62:/Applications/ArmGNUToolchain/15.2.rel1/arm-none-eabi/arm-none-eabi/include/c++/15.2.1/cmath **** #define __glibcxx_want_interpolate
  63:/Applications/ArmGNUToolchain/15.2.rel1/arm-none-eabi/arm-none-eabi/include/c++/15.2.1/cmath **** #include <bits/version.h>
  64:/Applications/ArmGNUToolchain/15.2.rel1/arm-none-eabi/arm-none-eabi/include/c++/15.2.1/cmath **** 
  65:/Applications/ArmGNUToolchain/15.2.rel1/arm-none-eabi/arm-none-eabi/include/c++/15.2.1/cmath **** // Get rid of those macros defined in <math.h> in lieu of real functions.
  66:/Applications/ArmGNUToolchain/15.2.rel1/arm-none-eabi/arm-none-eabi/include/c++/15.2.1/cmath **** #undef div
  67:/Applications/ArmGNUToolchain/15.2.rel1/arm-none-eabi/arm-none-eabi/include/c++/15.2.1/cmath **** #undef acos
  68:/Applications/ArmGNUToolchain/15.2.rel1/arm-none-eabi/arm-none-eabi/include/c++/15.2.1/cmath **** #undef asin
  69:/Applications/ArmGNUToolchain/15.2.rel1/arm-none-eabi/arm-none-eabi/include/c++/15.2.1/cmath **** #undef atan
  70:/Applications/ArmGNUToolchain/15.2.rel1/arm-none-eabi/arm-none-eabi/include/c++/15.2.1/cmath **** #undef atan2
  71:/Applications/ArmGNUToolchain/15.2.rel1/arm-none-eabi/arm-none-eabi/include/c++/15.2.1/cmath **** #undef ceil
  72:/Applications/ArmGNUToolchain/15.2.rel1/arm-none-eabi/arm-none-eabi/include/c++/15.2.1/cmath **** #undef cos
  73:/Applications/ArmGNUToolchain/15.2.rel1/arm-none-eabi/arm-none-eabi/include/c++/15.2.1/cmath **** #undef cosh
  74:/Applications/ArmGNUToolchain/15.2.rel1/arm-none-eabi/arm-none-eabi/include/c++/15.2.1/cmath **** #undef exp
  75:/Applications/ArmGNUToolchain/15.2.rel1/arm-none-eabi/arm-none-eabi/include/c++/15.2.1/cmath **** #undef fabs
  76:/Applications/ArmGNUToolchain/15.2.rel1/arm-none-eabi/arm-none-eabi/include/c++/15.2.1/cmath **** #undef floor
  77:/Applications/ArmGNUToolchain/15.2.rel1/arm-none-eabi/arm-none-eabi/include/c++/15.2.1/cmath **** #undef fmod
  78:/Applications/ArmGNUToolchain/15.2.rel1/arm-none-eabi/arm-none-eabi/include/c++/15.2.1/cmath **** #undef frexp
  79:/Applications/ArmGNUToolchain/15.2.rel1/arm-none-eabi/arm-none-eabi/include/c++/15.2.1/cmath **** #undef ldexp
  80:/Applications/ArmGNUToolchain/15.2.rel1/arm-none-eabi/arm-none-eabi/include/c++/15.2.1/cmath **** #undef log
  81:/Applications/ArmGNUToolchain/15.2.rel1/arm-none-eabi/arm-none-eabi/include/c++/15.2.1/cmath **** #undef log10
  82:/Applications/ArmGNUToolchain/15.2.rel1/arm-none-eabi/arm-none-eabi/include/c++/15.2.1/cmath **** #undef modf
  83:/Applications/ArmGNUToolchain/15.2.rel1/arm-none-eabi/arm-none-eabi/include/c++/15.2.1/cmath **** #undef pow
  84:/Applications/ArmGNUToolchain/15.2.rel1/arm-none-eabi/arm-none-eabi/include/c++/15.2.1/cmath **** #undef sin
  85:/Applications/ArmGNUToolchain/15.2.rel1/arm-none-eabi/arm-none-eabi/include/c++/15.2.1/cmath **** #undef sinh
  86:/Applications/ArmGNUToolchain/15.2.rel1/arm-none-eabi/arm-none-eabi/include/c++/15.2.1/cmath **** #undef sqrt
  87:/Applications/ArmGNUToolchain/15.2.rel1/arm-none-eabi/arm-none-eabi/include/c++/15.2.1/cmath **** #undef tan
  88:/Applications/ArmGNUToolchain/15.2.rel1/arm-none-eabi/arm-none-eabi/include/c++/15.2.1/cmath **** #undef tanh
  89:/Applications/ArmGNUToolchain/15.2.rel1/arm-none-eabi/arm-none-eabi/include/c++/15.2.1/cmath **** 
  90:/Applications/ArmGNUToolchain/15.2.rel1/arm-none-eabi/arm-none-eabi/include/c++/15.2.1/cmath **** extern "C++"
  91:/Applications/ArmGNUToolchain/15.2.rel1/arm-none-eabi/arm-none-eabi/include/c++/15.2.1/cmath **** {
  92:/Applications/ArmGNUToolchain/15.2.rel1/arm-none-eabi/arm-none-eabi/include/c++/15.2.1/cmath **** namespace std _GLIBCXX_VISIBILITY(default)
  93:/Applications/ArmGNUToolchain/15.2.rel1/arm-none-eabi/arm-none-eabi/include/c++/15.2.1/cmath **** {
  94:/Applications/ArmGNUToolchain/15.2.rel1/arm-none-eabi/arm-none-eabi/include/c++/15.2.1/cmath **** _GLIBCXX_BEGIN_NAMESPACE_VERSION
  95:/Applications/ArmGNUToolchain/15.2.rel1/arm-none-eabi/arm-none-eabi/include/c++/15.2.1/cmath **** 
  96:/Applications/ArmGNUToolchain/15.2.rel1/arm-none-eabi/arm-none-eabi/include/c++/15.2.1/cmath ****   using ::acos;
  97:/Applications/ArmGNUToolchain/15.2.rel1/arm-none-eabi/arm-none-eabi/include/c++/15.2.1/cmath **** 
  98:/Applications/ArmGNUToolchain/15.2.rel1/arm-none-eabi/arm-none-eabi/include/c++/15.2.1/cmath **** #ifndef __CORRECT_ISO_CPP_MATH_H_PROTO
  99:/Applications/ArmGNUToolchain/15.2.rel1/arm-none-eabi/arm-none-eabi/include/c++/15.2.1/cmath ****   inline _GLIBCXX_CONSTEXPR float
 100:/Applications/ArmGNUToolchain/15.2.rel1/arm-none-eabi/arm-none-eabi/include/c++/15.2.1/cmath ****   acos(float __x)
 101:/Applications/ArmGNUToolchain/15.2.rel1/arm-none-eabi/arm-none-eabi/include/c++/15.2.1/cmath ****   { return __builtin_acosf(__x); }
 102:/Applications/ArmGNUToolchain/15.2.rel1/arm-none-eabi/arm-none-eabi/include/c++/15.2.1/cmath **** 
 103:/Applications/ArmGNUToolchain/15.2.rel1/arm-none-eabi/arm-none-eabi/include/c++/15.2.1/cmath ****   inline _GLIBCXX_CONSTEXPR long double
 104:/Applications/ArmGNUToolchain/15.2.rel1/arm-none-eabi/arm-none-eabi/include/c++/15.2.1/cmath ****   acos(long double __x)
 105:/Applications/ArmGNUToolchain/15.2.rel1/arm-none-eabi/arm-none-eabi/include/c++/15.2.1/cmath ****   { return __builtin_acosl(__x); }
 106:/Applications/ArmGNUToolchain/15.2.rel1/arm-none-eabi/arm-none-eabi/include/c++/15.2.1/cmath **** #endif
 107:/Applications/ArmGNUToolchain/15.2.rel1/arm-none-eabi/arm-none-eabi/include/c++/15.2.1/cmath **** 
 108:/Applications/ArmGNUToolchain/15.2.rel1/arm-none-eabi/arm-none-eabi/include/c++/15.2.1/cmath ****   template<typename _Tp>
 109:/Applications/ArmGNUToolchain/15.2.rel1/arm-none-eabi/arm-none-eabi/include/c++/15.2.1/cmath ****     inline _GLIBCXX_CONSTEXPR
ARM GAS  /var/folders/7j/7n_15nxd0bx4q178nq7r8qsr0000gn/T//ccXsnuVa.s 			page 23


 110:/Applications/ArmGNUToolchain/15.2.rel1/arm-none-eabi/arm-none-eabi/include/c++/15.2.1/cmath ****     typename __gnu_cxx::__enable_if<__is_integer<_Tp>::__value, 
 111:/Applications/ArmGNUToolchain/15.2.rel1/arm-none-eabi/arm-none-eabi/include/c++/15.2.1/cmath ****                                     double>::__type
 112:/Applications/ArmGNUToolchain/15.2.rel1/arm-none-eabi/arm-none-eabi/include/c++/15.2.1/cmath ****     acos(_Tp __x)
 113:/Applications/ArmGNUToolchain/15.2.rel1/arm-none-eabi/arm-none-eabi/include/c++/15.2.1/cmath ****     { return __builtin_acos(__x); }
 114:/Applications/ArmGNUToolchain/15.2.rel1/arm-none-eabi/arm-none-eabi/include/c++/15.2.1/cmath **** 
 115:/Applications/ArmGNUToolchain/15.2.rel1/arm-none-eabi/arm-none-eabi/include/c++/15.2.1/cmath ****   using ::asin;
 116:/Applications/ArmGNUToolchain/15.2.rel1/arm-none-eabi/arm-none-eabi/include/c++/15.2.1/cmath **** 
 117:/Applications/ArmGNUToolchain/15.2.rel1/arm-none-eabi/arm-none-eabi/include/c++/15.2.1/cmath **** #ifndef __CORRECT_ISO_CPP_MATH_H_PROTO
 118:/Applications/ArmGNUToolchain/15.2.rel1/arm-none-eabi/arm-none-eabi/include/c++/15.2.1/cmath ****   inline _GLIBCXX_CONSTEXPR float
 119:/Applications/ArmGNUToolchain/15.2.rel1/arm-none-eabi/arm-none-eabi/include/c++/15.2.1/cmath ****   asin(float __x)
 120:/Applications/ArmGNUToolchain/15.2.rel1/arm-none-eabi/arm-none-eabi/include/c++/15.2.1/cmath ****   { return __builtin_asinf(__x); }
 121:/Applications/ArmGNUToolchain/15.2.rel1/arm-none-eabi/arm-none-eabi/include/c++/15.2.1/cmath **** 
 122:/Applications/ArmGNUToolchain/15.2.rel1/arm-none-eabi/arm-none-eabi/include/c++/15.2.1/cmath ****   inline _GLIBCXX_CONSTEXPR long double
 123:/Applications/ArmGNUToolchain/15.2.rel1/arm-none-eabi/arm-none-eabi/include/c++/15.2.1/cmath ****   asin(long double __x)
 124:/Applications/ArmGNUToolchain/15.2.rel1/arm-none-eabi/arm-none-eabi/include/c++/15.2.1/cmath ****   { return __builtin_asinl(__x); }
 125:/Applications/ArmGNUToolchain/15.2.rel1/arm-none-eabi/arm-none-eabi/include/c++/15.2.1/cmath **** #endif
 126:/Applications/ArmGNUToolchain/15.2.rel1/arm-none-eabi/arm-none-eabi/include/c++/15.2.1/cmath **** 
 127:/Applications/ArmGNUToolchain/15.2.rel1/arm-none-eabi/arm-none-eabi/include/c++/15.2.1/cmath ****   template<typename _Tp>
 128:/Applications/ArmGNUToolchain/15.2.rel1/arm-none-eabi/arm-none-eabi/include/c++/15.2.1/cmath ****     inline _GLIBCXX_CONSTEXPR
 129:/Applications/ArmGNUToolchain/15.2.rel1/arm-none-eabi/arm-none-eabi/include/c++/15.2.1/cmath ****     typename __gnu_cxx::__enable_if<__is_integer<_Tp>::__value,
 130:/Applications/ArmGNUToolchain/15.2.rel1/arm-none-eabi/arm-none-eabi/include/c++/15.2.1/cmath ****                                     double>::__type
 131:/Applications/ArmGNUToolchain/15.2.rel1/arm-none-eabi/arm-none-eabi/include/c++/15.2.1/cmath ****     asin(_Tp __x)
 132:/Applications/ArmGNUToolchain/15.2.rel1/arm-none-eabi/arm-none-eabi/include/c++/15.2.1/cmath ****     { return __builtin_asin(__x); }
 133:/Applications/ArmGNUToolchain/15.2.rel1/arm-none-eabi/arm-none-eabi/include/c++/15.2.1/cmath **** 
 134:/Applications/ArmGNUToolchain/15.2.rel1/arm-none-eabi/arm-none-eabi/include/c++/15.2.1/cmath ****   using ::atan;
 135:/Applications/ArmGNUToolchain/15.2.rel1/arm-none-eabi/arm-none-eabi/include/c++/15.2.1/cmath **** 
 136:/Applications/ArmGNUToolchain/15.2.rel1/arm-none-eabi/arm-none-eabi/include/c++/15.2.1/cmath **** #ifndef __CORRECT_ISO_CPP_MATH_H_PROTO
 137:/Applications/ArmGNUToolchain/15.2.rel1/arm-none-eabi/arm-none-eabi/include/c++/15.2.1/cmath ****   inline _GLIBCXX_CONSTEXPR float
 138:/Applications/ArmGNUToolchain/15.2.rel1/arm-none-eabi/arm-none-eabi/include/c++/15.2.1/cmath ****   atan(float __x)
 139:/Applications/ArmGNUToolchain/15.2.rel1/arm-none-eabi/arm-none-eabi/include/c++/15.2.1/cmath ****   { return __builtin_atanf(__x); }
 140:/Applications/ArmGNUToolchain/15.2.rel1/arm-none-eabi/arm-none-eabi/include/c++/15.2.1/cmath **** 
 141:/Applications/ArmGNUToolchain/15.2.rel1/arm-none-eabi/arm-none-eabi/include/c++/15.2.1/cmath ****   inline _GLIBCXX_CONSTEXPR long double
 142:/Applications/ArmGNUToolchain/15.2.rel1/arm-none-eabi/arm-none-eabi/include/c++/15.2.1/cmath ****   atan(long double __x)
 143:/Applications/ArmGNUToolchain/15.2.rel1/arm-none-eabi/arm-none-eabi/include/c++/15.2.1/cmath ****   { return __builtin_atanl(__x); }
 144:/Applications/ArmGNUToolchain/15.2.rel1/arm-none-eabi/arm-none-eabi/include/c++/15.2.1/cmath **** #endif
 145:/Applications/ArmGNUToolchain/15.2.rel1/arm-none-eabi/arm-none-eabi/include/c++/15.2.1/cmath **** 
 146:/Applications/ArmGNUToolchain/15.2.rel1/arm-none-eabi/arm-none-eabi/include/c++/15.2.1/cmath ****   template<typename _Tp>
 147:/Applications/ArmGNUToolchain/15.2.rel1/arm-none-eabi/arm-none-eabi/include/c++/15.2.1/cmath ****     inline _GLIBCXX_CONSTEXPR
 148:/Applications/ArmGNUToolchain/15.2.rel1/arm-none-eabi/arm-none-eabi/include/c++/15.2.1/cmath ****     typename __gnu_cxx::__enable_if<__is_integer<_Tp>::__value,
 149:/Applications/ArmGNUToolchain/15.2.rel1/arm-none-eabi/arm-none-eabi/include/c++/15.2.1/cmath ****                                     double>::__type
 150:/Applications/ArmGNUToolchain/15.2.rel1/arm-none-eabi/arm-none-eabi/include/c++/15.2.1/cmath ****     atan(_Tp __x)
 151:/Applications/ArmGNUToolchain/15.2.rel1/arm-none-eabi/arm-none-eabi/include/c++/15.2.1/cmath ****     { return __builtin_atan(__x); }
 152:/Applications/ArmGNUToolchain/15.2.rel1/arm-none-eabi/arm-none-eabi/include/c++/15.2.1/cmath **** 
 153:/Applications/ArmGNUToolchain/15.2.rel1/arm-none-eabi/arm-none-eabi/include/c++/15.2.1/cmath ****   using ::atan2;
 154:/Applications/ArmGNUToolchain/15.2.rel1/arm-none-eabi/arm-none-eabi/include/c++/15.2.1/cmath **** 
 155:/Applications/ArmGNUToolchain/15.2.rel1/arm-none-eabi/arm-none-eabi/include/c++/15.2.1/cmath **** #ifndef __CORRECT_ISO_CPP_MATH_H_PROTO
 156:/Applications/ArmGNUToolchain/15.2.rel1/arm-none-eabi/arm-none-eabi/include/c++/15.2.1/cmath ****   inline _GLIBCXX_CONSTEXPR float
 157:/Applications/ArmGNUToolchain/15.2.rel1/arm-none-eabi/arm-none-eabi/include/c++/15.2.1/cmath ****   atan2(float __y, float __x)
 158:/Applications/ArmGNUToolchain/15.2.rel1/arm-none-eabi/arm-none-eabi/include/c++/15.2.1/cmath ****   { return __builtin_atan2f(__y, __x); }
 159:/Applications/ArmGNUToolchain/15.2.rel1/arm-none-eabi/arm-none-eabi/include/c++/15.2.1/cmath **** 
 160:/Applications/ArmGNUToolchain/15.2.rel1/arm-none-eabi/arm-none-eabi/include/c++/15.2.1/cmath ****   inline _GLIBCXX_CONSTEXPR long double
 161:/Applications/ArmGNUToolchain/15.2.rel1/arm-none-eabi/arm-none-eabi/include/c++/15.2.1/cmath ****   atan2(long double __y, long double __x)
 162:/Applications/ArmGNUToolchain/15.2.rel1/arm-none-eabi/arm-none-eabi/include/c++/15.2.1/cmath ****   { return __builtin_atan2l(__y, __x); }
 163:/Applications/ArmGNUToolchain/15.2.rel1/arm-none-eabi/arm-none-eabi/include/c++/15.2.1/cmath **** #endif
 164:/Applications/ArmGNUToolchain/15.2.rel1/arm-none-eabi/arm-none-eabi/include/c++/15.2.1/cmath **** 
 165:/Applications/ArmGNUToolchain/15.2.rel1/arm-none-eabi/arm-none-eabi/include/c++/15.2.1/cmath ****   using ::ceil;
 166:/Applications/ArmGNUToolchain/15.2.rel1/arm-none-eabi/arm-none-eabi/include/c++/15.2.1/cmath **** 
ARM GAS  /var/folders/7j/7n_15nxd0bx4q178nq7r8qsr0000gn/T//ccXsnuVa.s 			page 24


 167:/Applications/ArmGNUToolchain/15.2.rel1/arm-none-eabi/arm-none-eabi/include/c++/15.2.1/cmath **** #ifndef __CORRECT_ISO_CPP_MATH_H_PROTO
 168:/Applications/ArmGNUToolchain/15.2.rel1/arm-none-eabi/arm-none-eabi/include/c++/15.2.1/cmath ****   inline _GLIBCXX_CONSTEXPR float
 169:/Applications/ArmGNUToolchain/15.2.rel1/arm-none-eabi/arm-none-eabi/include/c++/15.2.1/cmath ****   ceil(float __x)
 170:/Applications/ArmGNUToolchain/15.2.rel1/arm-none-eabi/arm-none-eabi/include/c++/15.2.1/cmath ****   { return __builtin_ceilf(__x); }
 171:/Applications/ArmGNUToolchain/15.2.rel1/arm-none-eabi/arm-none-eabi/include/c++/15.2.1/cmath **** 
 172:/Applications/ArmGNUToolchain/15.2.rel1/arm-none-eabi/arm-none-eabi/include/c++/15.2.1/cmath ****   inline _GLIBCXX_CONSTEXPR long double
 173:/Applications/ArmGNUToolchain/15.2.rel1/arm-none-eabi/arm-none-eabi/include/c++/15.2.1/cmath ****   ceil(long double __x)
 174:/Applications/ArmGNUToolchain/15.2.rel1/arm-none-eabi/arm-none-eabi/include/c++/15.2.1/cmath ****   { return __builtin_ceill(__x); }
 175:/Applications/ArmGNUToolchain/15.2.rel1/arm-none-eabi/arm-none-eabi/include/c++/15.2.1/cmath **** #endif
 176:/Applications/ArmGNUToolchain/15.2.rel1/arm-none-eabi/arm-none-eabi/include/c++/15.2.1/cmath **** 
 177:/Applications/ArmGNUToolchain/15.2.rel1/arm-none-eabi/arm-none-eabi/include/c++/15.2.1/cmath ****   template<typename _Tp>
 178:/Applications/ArmGNUToolchain/15.2.rel1/arm-none-eabi/arm-none-eabi/include/c++/15.2.1/cmath ****     inline _GLIBCXX_CONSTEXPR
 179:/Applications/ArmGNUToolchain/15.2.rel1/arm-none-eabi/arm-none-eabi/include/c++/15.2.1/cmath ****     typename __gnu_cxx::__enable_if<__is_integer<_Tp>::__value, 
 180:/Applications/ArmGNUToolchain/15.2.rel1/arm-none-eabi/arm-none-eabi/include/c++/15.2.1/cmath ****                                     double>::__type
 181:/Applications/ArmGNUToolchain/15.2.rel1/arm-none-eabi/arm-none-eabi/include/c++/15.2.1/cmath ****     ceil(_Tp __x)
 182:/Applications/ArmGNUToolchain/15.2.rel1/arm-none-eabi/arm-none-eabi/include/c++/15.2.1/cmath ****     { return __builtin_ceil(__x); }
 183:/Applications/ArmGNUToolchain/15.2.rel1/arm-none-eabi/arm-none-eabi/include/c++/15.2.1/cmath **** 
 184:/Applications/ArmGNUToolchain/15.2.rel1/arm-none-eabi/arm-none-eabi/include/c++/15.2.1/cmath ****   using ::cos;
 185:/Applications/ArmGNUToolchain/15.2.rel1/arm-none-eabi/arm-none-eabi/include/c++/15.2.1/cmath **** 
 186:/Applications/ArmGNUToolchain/15.2.rel1/arm-none-eabi/arm-none-eabi/include/c++/15.2.1/cmath **** #ifndef __CORRECT_ISO_CPP_MATH_H_PROTO
 187:/Applications/ArmGNUToolchain/15.2.rel1/arm-none-eabi/arm-none-eabi/include/c++/15.2.1/cmath ****   inline _GLIBCXX_CONSTEXPR float
 188:/Applications/ArmGNUToolchain/15.2.rel1/arm-none-eabi/arm-none-eabi/include/c++/15.2.1/cmath ****   cos(float __x)
 189:/Applications/ArmGNUToolchain/15.2.rel1/arm-none-eabi/arm-none-eabi/include/c++/15.2.1/cmath ****   { return __builtin_cosf(__x); }
 190:/Applications/ArmGNUToolchain/15.2.rel1/arm-none-eabi/arm-none-eabi/include/c++/15.2.1/cmath **** 
 191:/Applications/ArmGNUToolchain/15.2.rel1/arm-none-eabi/arm-none-eabi/include/c++/15.2.1/cmath ****   inline _GLIBCXX_CONSTEXPR long double
 192:/Applications/ArmGNUToolchain/15.2.rel1/arm-none-eabi/arm-none-eabi/include/c++/15.2.1/cmath ****   cos(long double __x)
 193:/Applications/ArmGNUToolchain/15.2.rel1/arm-none-eabi/arm-none-eabi/include/c++/15.2.1/cmath ****   { return __builtin_cosl(__x); }
 194:/Applications/ArmGNUToolchain/15.2.rel1/arm-none-eabi/arm-none-eabi/include/c++/15.2.1/cmath **** #endif
 195:/Applications/ArmGNUToolchain/15.2.rel1/arm-none-eabi/arm-none-eabi/include/c++/15.2.1/cmath **** 
 196:/Applications/ArmGNUToolchain/15.2.rel1/arm-none-eabi/arm-none-eabi/include/c++/15.2.1/cmath ****   template<typename _Tp>
 197:/Applications/ArmGNUToolchain/15.2.rel1/arm-none-eabi/arm-none-eabi/include/c++/15.2.1/cmath ****     inline _GLIBCXX_CONSTEXPR
 198:/Applications/ArmGNUToolchain/15.2.rel1/arm-none-eabi/arm-none-eabi/include/c++/15.2.1/cmath ****     typename __gnu_cxx::__enable_if<__is_integer<_Tp>::__value,
 199:/Applications/ArmGNUToolchain/15.2.rel1/arm-none-eabi/arm-none-eabi/include/c++/15.2.1/cmath ****                                     double>::__type
 200:/Applications/ArmGNUToolchain/15.2.rel1/arm-none-eabi/arm-none-eabi/include/c++/15.2.1/cmath ****     cos(_Tp __x)
 201:/Applications/ArmGNUToolchain/15.2.rel1/arm-none-eabi/arm-none-eabi/include/c++/15.2.1/cmath ****     { return __builtin_cos(__x); }
 202:/Applications/ArmGNUToolchain/15.2.rel1/arm-none-eabi/arm-none-eabi/include/c++/15.2.1/cmath **** 
 203:/Applications/ArmGNUToolchain/15.2.rel1/arm-none-eabi/arm-none-eabi/include/c++/15.2.1/cmath ****   using ::cosh;
 204:/Applications/ArmGNUToolchain/15.2.rel1/arm-none-eabi/arm-none-eabi/include/c++/15.2.1/cmath **** 
 205:/Applications/ArmGNUToolchain/15.2.rel1/arm-none-eabi/arm-none-eabi/include/c++/15.2.1/cmath **** #ifndef __CORRECT_ISO_CPP_MATH_H_PROTO
 206:/Applications/ArmGNUToolchain/15.2.rel1/arm-none-eabi/arm-none-eabi/include/c++/15.2.1/cmath ****   inline _GLIBCXX_CONSTEXPR float
 207:/Applications/ArmGNUToolchain/15.2.rel1/arm-none-eabi/arm-none-eabi/include/c++/15.2.1/cmath ****   cosh(float __x)
 208:/Applications/ArmGNUToolchain/15.2.rel1/arm-none-eabi/arm-none-eabi/include/c++/15.2.1/cmath ****   { return __builtin_coshf(__x); }
 209:/Applications/ArmGNUToolchain/15.2.rel1/arm-none-eabi/arm-none-eabi/include/c++/15.2.1/cmath **** 
 210:/Applications/ArmGNUToolchain/15.2.rel1/arm-none-eabi/arm-none-eabi/include/c++/15.2.1/cmath ****   inline _GLIBCXX_CONSTEXPR long double
 211:/Applications/ArmGNUToolchain/15.2.rel1/arm-none-eabi/arm-none-eabi/include/c++/15.2.1/cmath ****   cosh(long double __x)
 212:/Applications/ArmGNUToolchain/15.2.rel1/arm-none-eabi/arm-none-eabi/include/c++/15.2.1/cmath ****   { return __builtin_coshl(__x); }
 213:/Applications/ArmGNUToolchain/15.2.rel1/arm-none-eabi/arm-none-eabi/include/c++/15.2.1/cmath **** #endif
 214:/Applications/ArmGNUToolchain/15.2.rel1/arm-none-eabi/arm-none-eabi/include/c++/15.2.1/cmath **** 
 215:/Applications/ArmGNUToolchain/15.2.rel1/arm-none-eabi/arm-none-eabi/include/c++/15.2.1/cmath ****   template<typename _Tp>
 216:/Applications/ArmGNUToolchain/15.2.rel1/arm-none-eabi/arm-none-eabi/include/c++/15.2.1/cmath ****     inline _GLIBCXX_CONSTEXPR
 217:/Applications/ArmGNUToolchain/15.2.rel1/arm-none-eabi/arm-none-eabi/include/c++/15.2.1/cmath ****     typename __gnu_cxx::__enable_if<__is_integer<_Tp>::__value,
 218:/Applications/ArmGNUToolchain/15.2.rel1/arm-none-eabi/arm-none-eabi/include/c++/15.2.1/cmath ****                                     double>::__type
 219:/Applications/ArmGNUToolchain/15.2.rel1/arm-none-eabi/arm-none-eabi/include/c++/15.2.1/cmath ****     cosh(_Tp __x)
 220:/Applications/ArmGNUToolchain/15.2.rel1/arm-none-eabi/arm-none-eabi/include/c++/15.2.1/cmath ****     { return __builtin_cosh(__x); }
 221:/Applications/ArmGNUToolchain/15.2.rel1/arm-none-eabi/arm-none-eabi/include/c++/15.2.1/cmath **** 
 222:/Applications/ArmGNUToolchain/15.2.rel1/arm-none-eabi/arm-none-eabi/include/c++/15.2.1/cmath ****   using ::exp;
 223:/Applications/ArmGNUToolchain/15.2.rel1/arm-none-eabi/arm-none-eabi/include/c++/15.2.1/cmath **** 
ARM GAS  /var/folders/7j/7n_15nxd0bx4q178nq7r8qsr0000gn/T//ccXsnuVa.s 			page 25


 224:/Applications/ArmGNUToolchain/15.2.rel1/arm-none-eabi/arm-none-eabi/include/c++/15.2.1/cmath **** #ifndef __CORRECT_ISO_CPP_MATH_H_PROTO
 225:/Applications/ArmGNUToolchain/15.2.rel1/arm-none-eabi/arm-none-eabi/include/c++/15.2.1/cmath ****   inline _GLIBCXX_CONSTEXPR float
 226:/Applications/ArmGNUToolchain/15.2.rel1/arm-none-eabi/arm-none-eabi/include/c++/15.2.1/cmath ****   exp(float __x)
 227:/Applications/ArmGNUToolchain/15.2.rel1/arm-none-eabi/arm-none-eabi/include/c++/15.2.1/cmath ****   { return __builtin_expf(__x); }
 228:/Applications/ArmGNUToolchain/15.2.rel1/arm-none-eabi/arm-none-eabi/include/c++/15.2.1/cmath **** 
 229:/Applications/ArmGNUToolchain/15.2.rel1/arm-none-eabi/arm-none-eabi/include/c++/15.2.1/cmath ****   inline _GLIBCXX_CONSTEXPR long double
 230:/Applications/ArmGNUToolchain/15.2.rel1/arm-none-eabi/arm-none-eabi/include/c++/15.2.1/cmath ****   exp(long double __x)
 231:/Applications/ArmGNUToolchain/15.2.rel1/arm-none-eabi/arm-none-eabi/include/c++/15.2.1/cmath ****   { return __builtin_expl(__x); }
 232:/Applications/ArmGNUToolchain/15.2.rel1/arm-none-eabi/arm-none-eabi/include/c++/15.2.1/cmath **** #endif
 233:/Applications/ArmGNUToolchain/15.2.rel1/arm-none-eabi/arm-none-eabi/include/c++/15.2.1/cmath **** 
 234:/Applications/ArmGNUToolchain/15.2.rel1/arm-none-eabi/arm-none-eabi/include/c++/15.2.1/cmath ****   template<typename _Tp>
 235:/Applications/ArmGNUToolchain/15.2.rel1/arm-none-eabi/arm-none-eabi/include/c++/15.2.1/cmath ****     inline _GLIBCXX_CONSTEXPR
 236:/Applications/ArmGNUToolchain/15.2.rel1/arm-none-eabi/arm-none-eabi/include/c++/15.2.1/cmath ****     typename __gnu_cxx::__enable_if<__is_integer<_Tp>::__value,
 237:/Applications/ArmGNUToolchain/15.2.rel1/arm-none-eabi/arm-none-eabi/include/c++/15.2.1/cmath ****                                     double>::__type
 238:/Applications/ArmGNUToolchain/15.2.rel1/arm-none-eabi/arm-none-eabi/include/c++/15.2.1/cmath ****     exp(_Tp __x)
 239:/Applications/ArmGNUToolchain/15.2.rel1/arm-none-eabi/arm-none-eabi/include/c++/15.2.1/cmath ****     { return __builtin_exp(__x); }
 240:/Applications/ArmGNUToolchain/15.2.rel1/arm-none-eabi/arm-none-eabi/include/c++/15.2.1/cmath **** 
 241:/Applications/ArmGNUToolchain/15.2.rel1/arm-none-eabi/arm-none-eabi/include/c++/15.2.1/cmath ****   using ::fabs;
 242:/Applications/ArmGNUToolchain/15.2.rel1/arm-none-eabi/arm-none-eabi/include/c++/15.2.1/cmath **** 
 243:/Applications/ArmGNUToolchain/15.2.rel1/arm-none-eabi/arm-none-eabi/include/c++/15.2.1/cmath **** #ifndef __CORRECT_ISO_CPP_MATH_H_PROTO
 244:/Applications/ArmGNUToolchain/15.2.rel1/arm-none-eabi/arm-none-eabi/include/c++/15.2.1/cmath ****   inline _GLIBCXX_CONSTEXPR float
 245:/Applications/ArmGNUToolchain/15.2.rel1/arm-none-eabi/arm-none-eabi/include/c++/15.2.1/cmath ****   fabs(float __x)
 246:/Applications/ArmGNUToolchain/15.2.rel1/arm-none-eabi/arm-none-eabi/include/c++/15.2.1/cmath ****   { return __builtin_fabsf(__x); }
 247:/Applications/ArmGNUToolchain/15.2.rel1/arm-none-eabi/arm-none-eabi/include/c++/15.2.1/cmath **** 
 248:/Applications/ArmGNUToolchain/15.2.rel1/arm-none-eabi/arm-none-eabi/include/c++/15.2.1/cmath ****   inline _GLIBCXX_CONSTEXPR long double
 249:/Applications/ArmGNUToolchain/15.2.rel1/arm-none-eabi/arm-none-eabi/include/c++/15.2.1/cmath ****   fabs(long double __x)
 250:/Applications/ArmGNUToolchain/15.2.rel1/arm-none-eabi/arm-none-eabi/include/c++/15.2.1/cmath ****   { return __builtin_fabsl(__x); }
 251:/Applications/ArmGNUToolchain/15.2.rel1/arm-none-eabi/arm-none-eabi/include/c++/15.2.1/cmath **** #endif
 252:/Applications/ArmGNUToolchain/15.2.rel1/arm-none-eabi/arm-none-eabi/include/c++/15.2.1/cmath **** 
 253:/Applications/ArmGNUToolchain/15.2.rel1/arm-none-eabi/arm-none-eabi/include/c++/15.2.1/cmath ****   template<typename _Tp>
 254:/Applications/ArmGNUToolchain/15.2.rel1/arm-none-eabi/arm-none-eabi/include/c++/15.2.1/cmath ****     inline _GLIBCXX_CONSTEXPR
 255:/Applications/ArmGNUToolchain/15.2.rel1/arm-none-eabi/arm-none-eabi/include/c++/15.2.1/cmath ****     typename __gnu_cxx::__enable_if<__is_integer<_Tp>::__value,
 256:/Applications/ArmGNUToolchain/15.2.rel1/arm-none-eabi/arm-none-eabi/include/c++/15.2.1/cmath ****                                     double>::__type
 257:/Applications/ArmGNUToolchain/15.2.rel1/arm-none-eabi/arm-none-eabi/include/c++/15.2.1/cmath ****     fabs(_Tp __x)
 258:/Applications/ArmGNUToolchain/15.2.rel1/arm-none-eabi/arm-none-eabi/include/c++/15.2.1/cmath ****     { return __builtin_fabs(__x); }
 259:/Applications/ArmGNUToolchain/15.2.rel1/arm-none-eabi/arm-none-eabi/include/c++/15.2.1/cmath **** 
 260:/Applications/ArmGNUToolchain/15.2.rel1/arm-none-eabi/arm-none-eabi/include/c++/15.2.1/cmath ****   using ::floor;
 261:/Applications/ArmGNUToolchain/15.2.rel1/arm-none-eabi/arm-none-eabi/include/c++/15.2.1/cmath **** 
 262:/Applications/ArmGNUToolchain/15.2.rel1/arm-none-eabi/arm-none-eabi/include/c++/15.2.1/cmath **** #ifndef __CORRECT_ISO_CPP_MATH_H_PROTO
 263:/Applications/ArmGNUToolchain/15.2.rel1/arm-none-eabi/arm-none-eabi/include/c++/15.2.1/cmath ****   inline _GLIBCXX_CONSTEXPR float
 264:/Applications/ArmGNUToolchain/15.2.rel1/arm-none-eabi/arm-none-eabi/include/c++/15.2.1/cmath ****   floor(float __x)
 265:/Applications/ArmGNUToolchain/15.2.rel1/arm-none-eabi/arm-none-eabi/include/c++/15.2.1/cmath ****   { return __builtin_floorf(__x); }
 266:/Applications/ArmGNUToolchain/15.2.rel1/arm-none-eabi/arm-none-eabi/include/c++/15.2.1/cmath **** 
 267:/Applications/ArmGNUToolchain/15.2.rel1/arm-none-eabi/arm-none-eabi/include/c++/15.2.1/cmath ****   inline _GLIBCXX_CONSTEXPR long double
 268:/Applications/ArmGNUToolchain/15.2.rel1/arm-none-eabi/arm-none-eabi/include/c++/15.2.1/cmath ****   floor(long double __x)
 269:/Applications/ArmGNUToolchain/15.2.rel1/arm-none-eabi/arm-none-eabi/include/c++/15.2.1/cmath ****   { return __builtin_floorl(__x); }
 270:/Applications/ArmGNUToolchain/15.2.rel1/arm-none-eabi/arm-none-eabi/include/c++/15.2.1/cmath **** #endif
 271:/Applications/ArmGNUToolchain/15.2.rel1/arm-none-eabi/arm-none-eabi/include/c++/15.2.1/cmath **** 
 272:/Applications/ArmGNUToolchain/15.2.rel1/arm-none-eabi/arm-none-eabi/include/c++/15.2.1/cmath ****   template<typename _Tp>
 273:/Applications/ArmGNUToolchain/15.2.rel1/arm-none-eabi/arm-none-eabi/include/c++/15.2.1/cmath ****     inline _GLIBCXX_CONSTEXPR
 274:/Applications/ArmGNUToolchain/15.2.rel1/arm-none-eabi/arm-none-eabi/include/c++/15.2.1/cmath ****     typename __gnu_cxx::__enable_if<__is_integer<_Tp>::__value,
 275:/Applications/ArmGNUToolchain/15.2.rel1/arm-none-eabi/arm-none-eabi/include/c++/15.2.1/cmath ****                                     double>::__type
 276:/Applications/ArmGNUToolchain/15.2.rel1/arm-none-eabi/arm-none-eabi/include/c++/15.2.1/cmath ****     floor(_Tp __x)
 277:/Applications/ArmGNUToolchain/15.2.rel1/arm-none-eabi/arm-none-eabi/include/c++/15.2.1/cmath ****     { return __builtin_floor(__x); }
 278:/Applications/ArmGNUToolchain/15.2.rel1/arm-none-eabi/arm-none-eabi/include/c++/15.2.1/cmath **** 
 279:/Applications/ArmGNUToolchain/15.2.rel1/arm-none-eabi/arm-none-eabi/include/c++/15.2.1/cmath ****   using ::fmod;
 280:/Applications/ArmGNUToolchain/15.2.rel1/arm-none-eabi/arm-none-eabi/include/c++/15.2.1/cmath **** 
ARM GAS  /var/folders/7j/7n_15nxd0bx4q178nq7r8qsr0000gn/T//ccXsnuVa.s 			page 26


 281:/Applications/ArmGNUToolchain/15.2.rel1/arm-none-eabi/arm-none-eabi/include/c++/15.2.1/cmath **** #ifndef __CORRECT_ISO_CPP_MATH_H_PROTO
 282:/Applications/ArmGNUToolchain/15.2.rel1/arm-none-eabi/arm-none-eabi/include/c++/15.2.1/cmath ****   inline _GLIBCXX_CONSTEXPR float
 283:/Applications/ArmGNUToolchain/15.2.rel1/arm-none-eabi/arm-none-eabi/include/c++/15.2.1/cmath ****   fmod(float __x, float __y)
 284:/Applications/ArmGNUToolchain/15.2.rel1/arm-none-eabi/arm-none-eabi/include/c++/15.2.1/cmath ****   { return __builtin_fmodf(__x, __y); }
 285:/Applications/ArmGNUToolchain/15.2.rel1/arm-none-eabi/arm-none-eabi/include/c++/15.2.1/cmath **** 
 286:/Applications/ArmGNUToolchain/15.2.rel1/arm-none-eabi/arm-none-eabi/include/c++/15.2.1/cmath ****   inline _GLIBCXX_CONSTEXPR long double
 287:/Applications/ArmGNUToolchain/15.2.rel1/arm-none-eabi/arm-none-eabi/include/c++/15.2.1/cmath ****   fmod(long double __x, long double __y)
 288:/Applications/ArmGNUToolchain/15.2.rel1/arm-none-eabi/arm-none-eabi/include/c++/15.2.1/cmath ****   { return __builtin_fmodl(__x, __y); }
 289:/Applications/ArmGNUToolchain/15.2.rel1/arm-none-eabi/arm-none-eabi/include/c++/15.2.1/cmath **** #endif
 290:/Applications/ArmGNUToolchain/15.2.rel1/arm-none-eabi/arm-none-eabi/include/c++/15.2.1/cmath **** 
 291:/Applications/ArmGNUToolchain/15.2.rel1/arm-none-eabi/arm-none-eabi/include/c++/15.2.1/cmath ****   using ::frexp;
 292:/Applications/ArmGNUToolchain/15.2.rel1/arm-none-eabi/arm-none-eabi/include/c++/15.2.1/cmath **** 
 293:/Applications/ArmGNUToolchain/15.2.rel1/arm-none-eabi/arm-none-eabi/include/c++/15.2.1/cmath **** #ifndef __CORRECT_ISO_CPP_MATH_H_PROTO
 294:/Applications/ArmGNUToolchain/15.2.rel1/arm-none-eabi/arm-none-eabi/include/c++/15.2.1/cmath ****   inline float
 295:/Applications/ArmGNUToolchain/15.2.rel1/arm-none-eabi/arm-none-eabi/include/c++/15.2.1/cmath ****   frexp(float __x, int* __exp)
 296:/Applications/ArmGNUToolchain/15.2.rel1/arm-none-eabi/arm-none-eabi/include/c++/15.2.1/cmath ****   { return __builtin_frexpf(__x, __exp); }
 297:/Applications/ArmGNUToolchain/15.2.rel1/arm-none-eabi/arm-none-eabi/include/c++/15.2.1/cmath **** 
 298:/Applications/ArmGNUToolchain/15.2.rel1/arm-none-eabi/arm-none-eabi/include/c++/15.2.1/cmath ****   inline long double
 299:/Applications/ArmGNUToolchain/15.2.rel1/arm-none-eabi/arm-none-eabi/include/c++/15.2.1/cmath ****   frexp(long double __x, int* __exp)
 300:/Applications/ArmGNUToolchain/15.2.rel1/arm-none-eabi/arm-none-eabi/include/c++/15.2.1/cmath ****   { return __builtin_frexpl(__x, __exp); }
 301:/Applications/ArmGNUToolchain/15.2.rel1/arm-none-eabi/arm-none-eabi/include/c++/15.2.1/cmath **** #endif
 302:/Applications/ArmGNUToolchain/15.2.rel1/arm-none-eabi/arm-none-eabi/include/c++/15.2.1/cmath **** 
 303:/Applications/ArmGNUToolchain/15.2.rel1/arm-none-eabi/arm-none-eabi/include/c++/15.2.1/cmath ****   template<typename _Tp>
 304:/Applications/ArmGNUToolchain/15.2.rel1/arm-none-eabi/arm-none-eabi/include/c++/15.2.1/cmath ****     inline _GLIBCXX_CONSTEXPR
 305:/Applications/ArmGNUToolchain/15.2.rel1/arm-none-eabi/arm-none-eabi/include/c++/15.2.1/cmath ****     typename __gnu_cxx::__enable_if<__is_integer<_Tp>::__value, 
 306:/Applications/ArmGNUToolchain/15.2.rel1/arm-none-eabi/arm-none-eabi/include/c++/15.2.1/cmath ****                                     double>::__type
 307:/Applications/ArmGNUToolchain/15.2.rel1/arm-none-eabi/arm-none-eabi/include/c++/15.2.1/cmath ****     frexp(_Tp __x, int* __exp)
 308:/Applications/ArmGNUToolchain/15.2.rel1/arm-none-eabi/arm-none-eabi/include/c++/15.2.1/cmath ****     { return __builtin_frexp(__x, __exp); }
 309:/Applications/ArmGNUToolchain/15.2.rel1/arm-none-eabi/arm-none-eabi/include/c++/15.2.1/cmath **** 
 310:/Applications/ArmGNUToolchain/15.2.rel1/arm-none-eabi/arm-none-eabi/include/c++/15.2.1/cmath ****   using ::ldexp;
 311:/Applications/ArmGNUToolchain/15.2.rel1/arm-none-eabi/arm-none-eabi/include/c++/15.2.1/cmath **** 
 312:/Applications/ArmGNUToolchain/15.2.rel1/arm-none-eabi/arm-none-eabi/include/c++/15.2.1/cmath **** #ifndef __CORRECT_ISO_CPP_MATH_H_PROTO
 313:/Applications/ArmGNUToolchain/15.2.rel1/arm-none-eabi/arm-none-eabi/include/c++/15.2.1/cmath ****   inline _GLIBCXX_CONSTEXPR float
 314:/Applications/ArmGNUToolchain/15.2.rel1/arm-none-eabi/arm-none-eabi/include/c++/15.2.1/cmath ****   ldexp(float __x, int __exp)
 315:/Applications/ArmGNUToolchain/15.2.rel1/arm-none-eabi/arm-none-eabi/include/c++/15.2.1/cmath ****   { return __builtin_ldexpf(__x, __exp); }
 316:/Applications/ArmGNUToolchain/15.2.rel1/arm-none-eabi/arm-none-eabi/include/c++/15.2.1/cmath **** 
 317:/Applications/ArmGNUToolchain/15.2.rel1/arm-none-eabi/arm-none-eabi/include/c++/15.2.1/cmath ****   inline _GLIBCXX_CONSTEXPR long double
 318:/Applications/ArmGNUToolchain/15.2.rel1/arm-none-eabi/arm-none-eabi/include/c++/15.2.1/cmath ****   ldexp(long double __x, int __exp)
 319:/Applications/ArmGNUToolchain/15.2.rel1/arm-none-eabi/arm-none-eabi/include/c++/15.2.1/cmath ****   { return __builtin_ldexpl(__x, __exp); }
 320:/Applications/ArmGNUToolchain/15.2.rel1/arm-none-eabi/arm-none-eabi/include/c++/15.2.1/cmath **** #endif
 321:/Applications/ArmGNUToolchain/15.2.rel1/arm-none-eabi/arm-none-eabi/include/c++/15.2.1/cmath **** 
 322:/Applications/ArmGNUToolchain/15.2.rel1/arm-none-eabi/arm-none-eabi/include/c++/15.2.1/cmath ****   template<typename _Tp>
 323:/Applications/ArmGNUToolchain/15.2.rel1/arm-none-eabi/arm-none-eabi/include/c++/15.2.1/cmath ****     inline _GLIBCXX_CONSTEXPR
 324:/Applications/ArmGNUToolchain/15.2.rel1/arm-none-eabi/arm-none-eabi/include/c++/15.2.1/cmath ****     typename __gnu_cxx::__enable_if<__is_integer<_Tp>::__value, 
 325:/Applications/ArmGNUToolchain/15.2.rel1/arm-none-eabi/arm-none-eabi/include/c++/15.2.1/cmath ****                                     double>::__type
 326:/Applications/ArmGNUToolchain/15.2.rel1/arm-none-eabi/arm-none-eabi/include/c++/15.2.1/cmath ****     ldexp(_Tp __x, int __exp)
 327:/Applications/ArmGNUToolchain/15.2.rel1/arm-none-eabi/arm-none-eabi/include/c++/15.2.1/cmath ****     { return __builtin_ldexp(__x, __exp); }
 328:/Applications/ArmGNUToolchain/15.2.rel1/arm-none-eabi/arm-none-eabi/include/c++/15.2.1/cmath **** 
 329:/Applications/ArmGNUToolchain/15.2.rel1/arm-none-eabi/arm-none-eabi/include/c++/15.2.1/cmath ****   using ::log;
 330:/Applications/ArmGNUToolchain/15.2.rel1/arm-none-eabi/arm-none-eabi/include/c++/15.2.1/cmath **** 
 331:/Applications/ArmGNUToolchain/15.2.rel1/arm-none-eabi/arm-none-eabi/include/c++/15.2.1/cmath **** #ifndef __CORRECT_ISO_CPP_MATH_H_PROTO
 332:/Applications/ArmGNUToolchain/15.2.rel1/arm-none-eabi/arm-none-eabi/include/c++/15.2.1/cmath ****   inline _GLIBCXX_CONSTEXPR float
 333:/Applications/ArmGNUToolchain/15.2.rel1/arm-none-eabi/arm-none-eabi/include/c++/15.2.1/cmath ****   log(float __x)
 334:/Applications/ArmGNUToolchain/15.2.rel1/arm-none-eabi/arm-none-eabi/include/c++/15.2.1/cmath ****   { return __builtin_logf(__x); }
 335:/Applications/ArmGNUToolchain/15.2.rel1/arm-none-eabi/arm-none-eabi/include/c++/15.2.1/cmath **** 
 336:/Applications/ArmGNUToolchain/15.2.rel1/arm-none-eabi/arm-none-eabi/include/c++/15.2.1/cmath ****   inline _GLIBCXX_CONSTEXPR long double
 337:/Applications/ArmGNUToolchain/15.2.rel1/arm-none-eabi/arm-none-eabi/include/c++/15.2.1/cmath ****   log(long double __x)
ARM GAS  /var/folders/7j/7n_15nxd0bx4q178nq7r8qsr0000gn/T//ccXsnuVa.s 			page 27


 338:/Applications/ArmGNUToolchain/15.2.rel1/arm-none-eabi/arm-none-eabi/include/c++/15.2.1/cmath ****   { return __builtin_logl(__x); }
 339:/Applications/ArmGNUToolchain/15.2.rel1/arm-none-eabi/arm-none-eabi/include/c++/15.2.1/cmath **** #endif
 340:/Applications/ArmGNUToolchain/15.2.rel1/arm-none-eabi/arm-none-eabi/include/c++/15.2.1/cmath **** 
 341:/Applications/ArmGNUToolchain/15.2.rel1/arm-none-eabi/arm-none-eabi/include/c++/15.2.1/cmath ****   template<typename _Tp>
 342:/Applications/ArmGNUToolchain/15.2.rel1/arm-none-eabi/arm-none-eabi/include/c++/15.2.1/cmath ****     inline _GLIBCXX_CONSTEXPR
 343:/Applications/ArmGNUToolchain/15.2.rel1/arm-none-eabi/arm-none-eabi/include/c++/15.2.1/cmath ****     typename __gnu_cxx::__enable_if<__is_integer<_Tp>::__value, 
 344:/Applications/ArmGNUToolchain/15.2.rel1/arm-none-eabi/arm-none-eabi/include/c++/15.2.1/cmath ****                                     double>::__type
 345:/Applications/ArmGNUToolchain/15.2.rel1/arm-none-eabi/arm-none-eabi/include/c++/15.2.1/cmath ****     log(_Tp __x)
 346:/Applications/ArmGNUToolchain/15.2.rel1/arm-none-eabi/arm-none-eabi/include/c++/15.2.1/cmath ****     { return __builtin_log(__x); }
 347:/Applications/ArmGNUToolchain/15.2.rel1/arm-none-eabi/arm-none-eabi/include/c++/15.2.1/cmath **** 
 348:/Applications/ArmGNUToolchain/15.2.rel1/arm-none-eabi/arm-none-eabi/include/c++/15.2.1/cmath ****   using ::log10;
 349:/Applications/ArmGNUToolchain/15.2.rel1/arm-none-eabi/arm-none-eabi/include/c++/15.2.1/cmath **** 
 350:/Applications/ArmGNUToolchain/15.2.rel1/arm-none-eabi/arm-none-eabi/include/c++/15.2.1/cmath **** #ifndef __CORRECT_ISO_CPP_MATH_H_PROTO
 351:/Applications/ArmGNUToolchain/15.2.rel1/arm-none-eabi/arm-none-eabi/include/c++/15.2.1/cmath ****   inline _GLIBCXX_CONSTEXPR float
 352:/Applications/ArmGNUToolchain/15.2.rel1/arm-none-eabi/arm-none-eabi/include/c++/15.2.1/cmath ****   log10(float __x)
 353:/Applications/ArmGNUToolchain/15.2.rel1/arm-none-eabi/arm-none-eabi/include/c++/15.2.1/cmath ****   { return __builtin_log10f(__x); }
 354:/Applications/ArmGNUToolchain/15.2.rel1/arm-none-eabi/arm-none-eabi/include/c++/15.2.1/cmath **** 
 355:/Applications/ArmGNUToolchain/15.2.rel1/arm-none-eabi/arm-none-eabi/include/c++/15.2.1/cmath ****   inline _GLIBCXX_CONSTEXPR long double
 356:/Applications/ArmGNUToolchain/15.2.rel1/arm-none-eabi/arm-none-eabi/include/c++/15.2.1/cmath ****   log10(long double __x)
 357:/Applications/ArmGNUToolchain/15.2.rel1/arm-none-eabi/arm-none-eabi/include/c++/15.2.1/cmath ****   { return __builtin_log10l(__x); }
 358:/Applications/ArmGNUToolchain/15.2.rel1/arm-none-eabi/arm-none-eabi/include/c++/15.2.1/cmath **** #endif
 359:/Applications/ArmGNUToolchain/15.2.rel1/arm-none-eabi/arm-none-eabi/include/c++/15.2.1/cmath **** 
 360:/Applications/ArmGNUToolchain/15.2.rel1/arm-none-eabi/arm-none-eabi/include/c++/15.2.1/cmath ****   template<typename _Tp>
 361:/Applications/ArmGNUToolchain/15.2.rel1/arm-none-eabi/arm-none-eabi/include/c++/15.2.1/cmath ****     inline _GLIBCXX_CONSTEXPR
 362:/Applications/ArmGNUToolchain/15.2.rel1/arm-none-eabi/arm-none-eabi/include/c++/15.2.1/cmath ****     typename __gnu_cxx::__enable_if<__is_integer<_Tp>::__value,
 363:/Applications/ArmGNUToolchain/15.2.rel1/arm-none-eabi/arm-none-eabi/include/c++/15.2.1/cmath ****                                     double>::__type
 364:/Applications/ArmGNUToolchain/15.2.rel1/arm-none-eabi/arm-none-eabi/include/c++/15.2.1/cmath ****     log10(_Tp __x)
 365:/Applications/ArmGNUToolchain/15.2.rel1/arm-none-eabi/arm-none-eabi/include/c++/15.2.1/cmath ****     { return __builtin_log10(__x); }
 366:/Applications/ArmGNUToolchain/15.2.rel1/arm-none-eabi/arm-none-eabi/include/c++/15.2.1/cmath **** 
 367:/Applications/ArmGNUToolchain/15.2.rel1/arm-none-eabi/arm-none-eabi/include/c++/15.2.1/cmath ****   using ::modf;
 368:/Applications/ArmGNUToolchain/15.2.rel1/arm-none-eabi/arm-none-eabi/include/c++/15.2.1/cmath **** 
 369:/Applications/ArmGNUToolchain/15.2.rel1/arm-none-eabi/arm-none-eabi/include/c++/15.2.1/cmath **** #ifndef __CORRECT_ISO_CPP_MATH_H_PROTO
 370:/Applications/ArmGNUToolchain/15.2.rel1/arm-none-eabi/arm-none-eabi/include/c++/15.2.1/cmath ****   inline float
 371:/Applications/ArmGNUToolchain/15.2.rel1/arm-none-eabi/arm-none-eabi/include/c++/15.2.1/cmath ****   modf(float __x, float* __iptr)
 372:/Applications/ArmGNUToolchain/15.2.rel1/arm-none-eabi/arm-none-eabi/include/c++/15.2.1/cmath ****   { return __builtin_modff(__x, __iptr); }
 373:/Applications/ArmGNUToolchain/15.2.rel1/arm-none-eabi/arm-none-eabi/include/c++/15.2.1/cmath **** 
 374:/Applications/ArmGNUToolchain/15.2.rel1/arm-none-eabi/arm-none-eabi/include/c++/15.2.1/cmath ****   inline long double
 375:/Applications/ArmGNUToolchain/15.2.rel1/arm-none-eabi/arm-none-eabi/include/c++/15.2.1/cmath ****   modf(long double __x, long double* __iptr)
 376:/Applications/ArmGNUToolchain/15.2.rel1/arm-none-eabi/arm-none-eabi/include/c++/15.2.1/cmath ****   { return __builtin_modfl(__x, __iptr); }
 377:/Applications/ArmGNUToolchain/15.2.rel1/arm-none-eabi/arm-none-eabi/include/c++/15.2.1/cmath **** #endif
 378:/Applications/ArmGNUToolchain/15.2.rel1/arm-none-eabi/arm-none-eabi/include/c++/15.2.1/cmath **** 
 379:/Applications/ArmGNUToolchain/15.2.rel1/arm-none-eabi/arm-none-eabi/include/c++/15.2.1/cmath ****   using ::pow;
 380:/Applications/ArmGNUToolchain/15.2.rel1/arm-none-eabi/arm-none-eabi/include/c++/15.2.1/cmath **** 
 381:/Applications/ArmGNUToolchain/15.2.rel1/arm-none-eabi/arm-none-eabi/include/c++/15.2.1/cmath **** #ifndef __CORRECT_ISO_CPP_MATH_H_PROTO
 382:/Applications/ArmGNUToolchain/15.2.rel1/arm-none-eabi/arm-none-eabi/include/c++/15.2.1/cmath ****   inline _GLIBCXX_CONSTEXPR float
 383:/Applications/ArmGNUToolchain/15.2.rel1/arm-none-eabi/arm-none-eabi/include/c++/15.2.1/cmath ****   pow(float __x, float __y)
 384:/Applications/ArmGNUToolchain/15.2.rel1/arm-none-eabi/arm-none-eabi/include/c++/15.2.1/cmath ****   { return __builtin_powf(__x, __y); }
 385:/Applications/ArmGNUToolchain/15.2.rel1/arm-none-eabi/arm-none-eabi/include/c++/15.2.1/cmath **** 
 386:/Applications/ArmGNUToolchain/15.2.rel1/arm-none-eabi/arm-none-eabi/include/c++/15.2.1/cmath ****   inline _GLIBCXX_CONSTEXPR long double
 387:/Applications/ArmGNUToolchain/15.2.rel1/arm-none-eabi/arm-none-eabi/include/c++/15.2.1/cmath ****   pow(long double __x, long double __y)
 388:/Applications/ArmGNUToolchain/15.2.rel1/arm-none-eabi/arm-none-eabi/include/c++/15.2.1/cmath ****   { return __builtin_powl(__x, __y); }
 389:/Applications/ArmGNUToolchain/15.2.rel1/arm-none-eabi/arm-none-eabi/include/c++/15.2.1/cmath **** 
 390:/Applications/ArmGNUToolchain/15.2.rel1/arm-none-eabi/arm-none-eabi/include/c++/15.2.1/cmath **** #if __cplusplus < 201103L
 391:/Applications/ArmGNUToolchain/15.2.rel1/arm-none-eabi/arm-none-eabi/include/c++/15.2.1/cmath ****   // _GLIBCXX_RESOLVE_LIB_DEFECTS
 392:/Applications/ArmGNUToolchain/15.2.rel1/arm-none-eabi/arm-none-eabi/include/c++/15.2.1/cmath ****   // DR 550. What should the return type of pow(float,int) be?
 393:/Applications/ArmGNUToolchain/15.2.rel1/arm-none-eabi/arm-none-eabi/include/c++/15.2.1/cmath ****   inline double
 394:/Applications/ArmGNUToolchain/15.2.rel1/arm-none-eabi/arm-none-eabi/include/c++/15.2.1/cmath ****   pow(double __x, int __i)
ARM GAS  /var/folders/7j/7n_15nxd0bx4q178nq7r8qsr0000gn/T//ccXsnuVa.s 			page 28


 395:/Applications/ArmGNUToolchain/15.2.rel1/arm-none-eabi/arm-none-eabi/include/c++/15.2.1/cmath ****   { return __builtin_powi(__x, __i); }
 396:/Applications/ArmGNUToolchain/15.2.rel1/arm-none-eabi/arm-none-eabi/include/c++/15.2.1/cmath **** 
 397:/Applications/ArmGNUToolchain/15.2.rel1/arm-none-eabi/arm-none-eabi/include/c++/15.2.1/cmath ****   inline float
 398:/Applications/ArmGNUToolchain/15.2.rel1/arm-none-eabi/arm-none-eabi/include/c++/15.2.1/cmath ****   pow(float __x, int __n)
 399:/Applications/ArmGNUToolchain/15.2.rel1/arm-none-eabi/arm-none-eabi/include/c++/15.2.1/cmath ****   { return __builtin_powif(__x, __n); }
 400:/Applications/ArmGNUToolchain/15.2.rel1/arm-none-eabi/arm-none-eabi/include/c++/15.2.1/cmath **** 
 401:/Applications/ArmGNUToolchain/15.2.rel1/arm-none-eabi/arm-none-eabi/include/c++/15.2.1/cmath ****   inline long double
 402:/Applications/ArmGNUToolchain/15.2.rel1/arm-none-eabi/arm-none-eabi/include/c++/15.2.1/cmath ****   pow(long double __x, int __n)
 403:/Applications/ArmGNUToolchain/15.2.rel1/arm-none-eabi/arm-none-eabi/include/c++/15.2.1/cmath ****   { return __builtin_powil(__x, __n); }
 404:/Applications/ArmGNUToolchain/15.2.rel1/arm-none-eabi/arm-none-eabi/include/c++/15.2.1/cmath **** #endif
 405:/Applications/ArmGNUToolchain/15.2.rel1/arm-none-eabi/arm-none-eabi/include/c++/15.2.1/cmath **** #endif
 406:/Applications/ArmGNUToolchain/15.2.rel1/arm-none-eabi/arm-none-eabi/include/c++/15.2.1/cmath **** 
 407:/Applications/ArmGNUToolchain/15.2.rel1/arm-none-eabi/arm-none-eabi/include/c++/15.2.1/cmath ****   using ::sin;
 408:/Applications/ArmGNUToolchain/15.2.rel1/arm-none-eabi/arm-none-eabi/include/c++/15.2.1/cmath **** 
 409:/Applications/ArmGNUToolchain/15.2.rel1/arm-none-eabi/arm-none-eabi/include/c++/15.2.1/cmath **** #ifndef __CORRECT_ISO_CPP_MATH_H_PROTO
 410:/Applications/ArmGNUToolchain/15.2.rel1/arm-none-eabi/arm-none-eabi/include/c++/15.2.1/cmath ****   inline _GLIBCXX_CONSTEXPR float
 411:/Applications/ArmGNUToolchain/15.2.rel1/arm-none-eabi/arm-none-eabi/include/c++/15.2.1/cmath ****   sin(float __x)
 412:/Applications/ArmGNUToolchain/15.2.rel1/arm-none-eabi/arm-none-eabi/include/c++/15.2.1/cmath ****   { return __builtin_sinf(__x); }
 413:/Applications/ArmGNUToolchain/15.2.rel1/arm-none-eabi/arm-none-eabi/include/c++/15.2.1/cmath **** 
 414:/Applications/ArmGNUToolchain/15.2.rel1/arm-none-eabi/arm-none-eabi/include/c++/15.2.1/cmath ****   inline _GLIBCXX_CONSTEXPR long double
 415:/Applications/ArmGNUToolchain/15.2.rel1/arm-none-eabi/arm-none-eabi/include/c++/15.2.1/cmath ****   sin(long double __x)
 416:/Applications/ArmGNUToolchain/15.2.rel1/arm-none-eabi/arm-none-eabi/include/c++/15.2.1/cmath ****   { return __builtin_sinl(__x); }
 417:/Applications/ArmGNUToolchain/15.2.rel1/arm-none-eabi/arm-none-eabi/include/c++/15.2.1/cmath **** #endif
 418:/Applications/ArmGNUToolchain/15.2.rel1/arm-none-eabi/arm-none-eabi/include/c++/15.2.1/cmath **** 
 419:/Applications/ArmGNUToolchain/15.2.rel1/arm-none-eabi/arm-none-eabi/include/c++/15.2.1/cmath ****   template<typename _Tp>
 420:/Applications/ArmGNUToolchain/15.2.rel1/arm-none-eabi/arm-none-eabi/include/c++/15.2.1/cmath ****     inline _GLIBCXX_CONSTEXPR
 421:/Applications/ArmGNUToolchain/15.2.rel1/arm-none-eabi/arm-none-eabi/include/c++/15.2.1/cmath ****     typename __gnu_cxx::__enable_if<__is_integer<_Tp>::__value, 
 422:/Applications/ArmGNUToolchain/15.2.rel1/arm-none-eabi/arm-none-eabi/include/c++/15.2.1/cmath ****                                     double>::__type
 423:/Applications/ArmGNUToolchain/15.2.rel1/arm-none-eabi/arm-none-eabi/include/c++/15.2.1/cmath ****     sin(_Tp __x)
 424:/Applications/ArmGNUToolchain/15.2.rel1/arm-none-eabi/arm-none-eabi/include/c++/15.2.1/cmath ****     { return __builtin_sin(__x); }
 425:/Applications/ArmGNUToolchain/15.2.rel1/arm-none-eabi/arm-none-eabi/include/c++/15.2.1/cmath **** 
 426:/Applications/ArmGNUToolchain/15.2.rel1/arm-none-eabi/arm-none-eabi/include/c++/15.2.1/cmath ****   using ::sinh;
 427:/Applications/ArmGNUToolchain/15.2.rel1/arm-none-eabi/arm-none-eabi/include/c++/15.2.1/cmath **** 
 428:/Applications/ArmGNUToolchain/15.2.rel1/arm-none-eabi/arm-none-eabi/include/c++/15.2.1/cmath **** #ifndef __CORRECT_ISO_CPP_MATH_H_PROTO
 429:/Applications/ArmGNUToolchain/15.2.rel1/arm-none-eabi/arm-none-eabi/include/c++/15.2.1/cmath ****   inline _GLIBCXX_CONSTEXPR float
 430:/Applications/ArmGNUToolchain/15.2.rel1/arm-none-eabi/arm-none-eabi/include/c++/15.2.1/cmath ****   sinh(float __x)
 431:/Applications/ArmGNUToolchain/15.2.rel1/arm-none-eabi/arm-none-eabi/include/c++/15.2.1/cmath ****   { return __builtin_sinhf(__x); }
 432:/Applications/ArmGNUToolchain/15.2.rel1/arm-none-eabi/arm-none-eabi/include/c++/15.2.1/cmath **** 
 433:/Applications/ArmGNUToolchain/15.2.rel1/arm-none-eabi/arm-none-eabi/include/c++/15.2.1/cmath ****   inline _GLIBCXX_CONSTEXPR long double
 434:/Applications/ArmGNUToolchain/15.2.rel1/arm-none-eabi/arm-none-eabi/include/c++/15.2.1/cmath ****   sinh(long double __x)
 435:/Applications/ArmGNUToolchain/15.2.rel1/arm-none-eabi/arm-none-eabi/include/c++/15.2.1/cmath ****   { return __builtin_sinhl(__x); }
 436:/Applications/ArmGNUToolchain/15.2.rel1/arm-none-eabi/arm-none-eabi/include/c++/15.2.1/cmath **** #endif
 437:/Applications/ArmGNUToolchain/15.2.rel1/arm-none-eabi/arm-none-eabi/include/c++/15.2.1/cmath **** 
 438:/Applications/ArmGNUToolchain/15.2.rel1/arm-none-eabi/arm-none-eabi/include/c++/15.2.1/cmath ****   template<typename _Tp>
 439:/Applications/ArmGNUToolchain/15.2.rel1/arm-none-eabi/arm-none-eabi/include/c++/15.2.1/cmath ****     inline _GLIBCXX_CONSTEXPR
 440:/Applications/ArmGNUToolchain/15.2.rel1/arm-none-eabi/arm-none-eabi/include/c++/15.2.1/cmath ****     typename __gnu_cxx::__enable_if<__is_integer<_Tp>::__value, 
 441:/Applications/ArmGNUToolchain/15.2.rel1/arm-none-eabi/arm-none-eabi/include/c++/15.2.1/cmath ****                                     double>::__type
 442:/Applications/ArmGNUToolchain/15.2.rel1/arm-none-eabi/arm-none-eabi/include/c++/15.2.1/cmath ****     sinh(_Tp __x)
 443:/Applications/ArmGNUToolchain/15.2.rel1/arm-none-eabi/arm-none-eabi/include/c++/15.2.1/cmath ****     { return __builtin_sinh(__x); }
 444:/Applications/ArmGNUToolchain/15.2.rel1/arm-none-eabi/arm-none-eabi/include/c++/15.2.1/cmath **** 
 445:/Applications/ArmGNUToolchain/15.2.rel1/arm-none-eabi/arm-none-eabi/include/c++/15.2.1/cmath ****   using ::sqrt;
 446:/Applications/ArmGNUToolchain/15.2.rel1/arm-none-eabi/arm-none-eabi/include/c++/15.2.1/cmath **** 
 447:/Applications/ArmGNUToolchain/15.2.rel1/arm-none-eabi/arm-none-eabi/include/c++/15.2.1/cmath **** #ifndef __CORRECT_ISO_CPP_MATH_H_PROTO
 448:/Applications/ArmGNUToolchain/15.2.rel1/arm-none-eabi/arm-none-eabi/include/c++/15.2.1/cmath ****   inline _GLIBCXX_CONSTEXPR float
 449:/Applications/ArmGNUToolchain/15.2.rel1/arm-none-eabi/arm-none-eabi/include/c++/15.2.1/cmath ****   sqrt(float __x)
 450:/Applications/ArmGNUToolchain/15.2.rel1/arm-none-eabi/arm-none-eabi/include/c++/15.2.1/cmath ****   { return __builtin_sqrtf(__x); }
 451:/Applications/ArmGNUToolchain/15.2.rel1/arm-none-eabi/arm-none-eabi/include/c++/15.2.1/cmath **** 
ARM GAS  /var/folders/7j/7n_15nxd0bx4q178nq7r8qsr0000gn/T//ccXsnuVa.s 			page 29


 452:/Applications/ArmGNUToolchain/15.2.rel1/arm-none-eabi/arm-none-eabi/include/c++/15.2.1/cmath ****   inline _GLIBCXX_CONSTEXPR long double
 453:/Applications/ArmGNUToolchain/15.2.rel1/arm-none-eabi/arm-none-eabi/include/c++/15.2.1/cmath ****   sqrt(long double __x)
 454:/Applications/ArmGNUToolchain/15.2.rel1/arm-none-eabi/arm-none-eabi/include/c++/15.2.1/cmath ****   { return __builtin_sqrtl(__x); }
 455:/Applications/ArmGNUToolchain/15.2.rel1/arm-none-eabi/arm-none-eabi/include/c++/15.2.1/cmath **** #endif
 456:/Applications/ArmGNUToolchain/15.2.rel1/arm-none-eabi/arm-none-eabi/include/c++/15.2.1/cmath **** 
 457:/Applications/ArmGNUToolchain/15.2.rel1/arm-none-eabi/arm-none-eabi/include/c++/15.2.1/cmath ****   template<typename _Tp>
 458:/Applications/ArmGNUToolchain/15.2.rel1/arm-none-eabi/arm-none-eabi/include/c++/15.2.1/cmath ****     inline _GLIBCXX_CONSTEXPR
 459:/Applications/ArmGNUToolchain/15.2.rel1/arm-none-eabi/arm-none-eabi/include/c++/15.2.1/cmath ****     typename __gnu_cxx::__enable_if<__is_integer<_Tp>::__value, 
 460:/Applications/ArmGNUToolchain/15.2.rel1/arm-none-eabi/arm-none-eabi/include/c++/15.2.1/cmath ****                                     double>::__type
 461:/Applications/ArmGNUToolchain/15.2.rel1/arm-none-eabi/arm-none-eabi/include/c++/15.2.1/cmath ****     sqrt(_Tp __x)
 462:/Applications/ArmGNUToolchain/15.2.rel1/arm-none-eabi/arm-none-eabi/include/c++/15.2.1/cmath ****     { return __builtin_sqrt(__x); }
 463:/Applications/ArmGNUToolchain/15.2.rel1/arm-none-eabi/arm-none-eabi/include/c++/15.2.1/cmath **** 
 464:/Applications/ArmGNUToolchain/15.2.rel1/arm-none-eabi/arm-none-eabi/include/c++/15.2.1/cmath ****   using ::tan;
 465:/Applications/ArmGNUToolchain/15.2.rel1/arm-none-eabi/arm-none-eabi/include/c++/15.2.1/cmath **** 
 466:/Applications/ArmGNUToolchain/15.2.rel1/arm-none-eabi/arm-none-eabi/include/c++/15.2.1/cmath **** #ifndef __CORRECT_ISO_CPP_MATH_H_PROTO
 467:/Applications/ArmGNUToolchain/15.2.rel1/arm-none-eabi/arm-none-eabi/include/c++/15.2.1/cmath ****   inline _GLIBCXX_CONSTEXPR float
 468:/Applications/ArmGNUToolchain/15.2.rel1/arm-none-eabi/arm-none-eabi/include/c++/15.2.1/cmath ****   tan(float __x)
 469:/Applications/ArmGNUToolchain/15.2.rel1/arm-none-eabi/arm-none-eabi/include/c++/15.2.1/cmath ****   { return __builtin_tanf(__x); }
 470:/Applications/ArmGNUToolchain/15.2.rel1/arm-none-eabi/arm-none-eabi/include/c++/15.2.1/cmath **** 
 471:/Applications/ArmGNUToolchain/15.2.rel1/arm-none-eabi/arm-none-eabi/include/c++/15.2.1/cmath ****   inline _GLIBCXX_CONSTEXPR long double
 472:/Applications/ArmGNUToolchain/15.2.rel1/arm-none-eabi/arm-none-eabi/include/c++/15.2.1/cmath ****   tan(long double __x)
 473:/Applications/ArmGNUToolchain/15.2.rel1/arm-none-eabi/arm-none-eabi/include/c++/15.2.1/cmath ****   { return __builtin_tanl(__x); }
 474:/Applications/ArmGNUToolchain/15.2.rel1/arm-none-eabi/arm-none-eabi/include/c++/15.2.1/cmath **** #endif
 475:/Applications/ArmGNUToolchain/15.2.rel1/arm-none-eabi/arm-none-eabi/include/c++/15.2.1/cmath **** 
 476:/Applications/ArmGNUToolchain/15.2.rel1/arm-none-eabi/arm-none-eabi/include/c++/15.2.1/cmath ****   template<typename _Tp>
 477:/Applications/ArmGNUToolchain/15.2.rel1/arm-none-eabi/arm-none-eabi/include/c++/15.2.1/cmath ****     inline _GLIBCXX_CONSTEXPR
 478:/Applications/ArmGNUToolchain/15.2.rel1/arm-none-eabi/arm-none-eabi/include/c++/15.2.1/cmath ****     typename __gnu_cxx::__enable_if<__is_integer<_Tp>::__value, 
 479:/Applications/ArmGNUToolchain/15.2.rel1/arm-none-eabi/arm-none-eabi/include/c++/15.2.1/cmath ****                                     double>::__type
 480:/Applications/ArmGNUToolchain/15.2.rel1/arm-none-eabi/arm-none-eabi/include/c++/15.2.1/cmath ****     tan(_Tp __x)
 481:/Applications/ArmGNUToolchain/15.2.rel1/arm-none-eabi/arm-none-eabi/include/c++/15.2.1/cmath ****     { return __builtin_tan(__x); }
 482:/Applications/ArmGNUToolchain/15.2.rel1/arm-none-eabi/arm-none-eabi/include/c++/15.2.1/cmath **** 
 483:/Applications/ArmGNUToolchain/15.2.rel1/arm-none-eabi/arm-none-eabi/include/c++/15.2.1/cmath ****   using ::tanh;
 484:/Applications/ArmGNUToolchain/15.2.rel1/arm-none-eabi/arm-none-eabi/include/c++/15.2.1/cmath **** 
 485:/Applications/ArmGNUToolchain/15.2.rel1/arm-none-eabi/arm-none-eabi/include/c++/15.2.1/cmath **** #ifndef __CORRECT_ISO_CPP_MATH_H_PROTO
 486:/Applications/ArmGNUToolchain/15.2.rel1/arm-none-eabi/arm-none-eabi/include/c++/15.2.1/cmath ****   inline _GLIBCXX_CONSTEXPR float
 487:/Applications/ArmGNUToolchain/15.2.rel1/arm-none-eabi/arm-none-eabi/include/c++/15.2.1/cmath ****   tanh(float __x)
 488:/Applications/ArmGNUToolchain/15.2.rel1/arm-none-eabi/arm-none-eabi/include/c++/15.2.1/cmath ****   { return __builtin_tanhf(__x); }
 489:/Applications/ArmGNUToolchain/15.2.rel1/arm-none-eabi/arm-none-eabi/include/c++/15.2.1/cmath **** 
 490:/Applications/ArmGNUToolchain/15.2.rel1/arm-none-eabi/arm-none-eabi/include/c++/15.2.1/cmath ****   inline _GLIBCXX_CONSTEXPR long double
 491:/Applications/ArmGNUToolchain/15.2.rel1/arm-none-eabi/arm-none-eabi/include/c++/15.2.1/cmath ****   tanh(long double __x)
 492:/Applications/ArmGNUToolchain/15.2.rel1/arm-none-eabi/arm-none-eabi/include/c++/15.2.1/cmath ****   { return __builtin_tanhl(__x); }
 493:/Applications/ArmGNUToolchain/15.2.rel1/arm-none-eabi/arm-none-eabi/include/c++/15.2.1/cmath **** #endif
 494:/Applications/ArmGNUToolchain/15.2.rel1/arm-none-eabi/arm-none-eabi/include/c++/15.2.1/cmath **** 
 495:/Applications/ArmGNUToolchain/15.2.rel1/arm-none-eabi/arm-none-eabi/include/c++/15.2.1/cmath ****   template<typename _Tp>
 496:/Applications/ArmGNUToolchain/15.2.rel1/arm-none-eabi/arm-none-eabi/include/c++/15.2.1/cmath ****     inline _GLIBCXX_CONSTEXPR
 497:/Applications/ArmGNUToolchain/15.2.rel1/arm-none-eabi/arm-none-eabi/include/c++/15.2.1/cmath ****     typename __gnu_cxx::__enable_if<__is_integer<_Tp>::__value, 
 498:/Applications/ArmGNUToolchain/15.2.rel1/arm-none-eabi/arm-none-eabi/include/c++/15.2.1/cmath ****                                     double>::__type
 499:/Applications/ArmGNUToolchain/15.2.rel1/arm-none-eabi/arm-none-eabi/include/c++/15.2.1/cmath ****     tanh(_Tp __x)
 500:/Applications/ArmGNUToolchain/15.2.rel1/arm-none-eabi/arm-none-eabi/include/c++/15.2.1/cmath ****     { return __builtin_tanh(__x); }
 501:/Applications/ArmGNUToolchain/15.2.rel1/arm-none-eabi/arm-none-eabi/include/c++/15.2.1/cmath **** 
 502:/Applications/ArmGNUToolchain/15.2.rel1/arm-none-eabi/arm-none-eabi/include/c++/15.2.1/cmath **** #if defined(__STDCPP_FLOAT16_T__) && defined(_GLIBCXX_FLOAT_IS_IEEE_BINARY32)
 503:/Applications/ArmGNUToolchain/15.2.rel1/arm-none-eabi/arm-none-eabi/include/c++/15.2.1/cmath ****   constexpr _Float16
 504:/Applications/ArmGNUToolchain/15.2.rel1/arm-none-eabi/arm-none-eabi/include/c++/15.2.1/cmath ****   acos(_Float16 __x)
 505:/Applications/ArmGNUToolchain/15.2.rel1/arm-none-eabi/arm-none-eabi/include/c++/15.2.1/cmath ****   { return _Float16(__builtin_acosf(__x)); }
 506:/Applications/ArmGNUToolchain/15.2.rel1/arm-none-eabi/arm-none-eabi/include/c++/15.2.1/cmath **** 
 507:/Applications/ArmGNUToolchain/15.2.rel1/arm-none-eabi/arm-none-eabi/include/c++/15.2.1/cmath ****   constexpr _Float16
 508:/Applications/ArmGNUToolchain/15.2.rel1/arm-none-eabi/arm-none-eabi/include/c++/15.2.1/cmath ****   asin(_Float16 __x)
ARM GAS  /var/folders/7j/7n_15nxd0bx4q178nq7r8qsr0000gn/T//ccXsnuVa.s 			page 30


 509:/Applications/ArmGNUToolchain/15.2.rel1/arm-none-eabi/arm-none-eabi/include/c++/15.2.1/cmath ****   { return _Float16(__builtin_asinf(__x)); }
 510:/Applications/ArmGNUToolchain/15.2.rel1/arm-none-eabi/arm-none-eabi/include/c++/15.2.1/cmath **** 
 511:/Applications/ArmGNUToolchain/15.2.rel1/arm-none-eabi/arm-none-eabi/include/c++/15.2.1/cmath ****   constexpr _Float16
 512:/Applications/ArmGNUToolchain/15.2.rel1/arm-none-eabi/arm-none-eabi/include/c++/15.2.1/cmath ****   atan(_Float16 __x)
 513:/Applications/ArmGNUToolchain/15.2.rel1/arm-none-eabi/arm-none-eabi/include/c++/15.2.1/cmath ****   { return _Float16(__builtin_atanf(__x)); }
 514:/Applications/ArmGNUToolchain/15.2.rel1/arm-none-eabi/arm-none-eabi/include/c++/15.2.1/cmath **** 
 515:/Applications/ArmGNUToolchain/15.2.rel1/arm-none-eabi/arm-none-eabi/include/c++/15.2.1/cmath ****   constexpr _Float16
 516:/Applications/ArmGNUToolchain/15.2.rel1/arm-none-eabi/arm-none-eabi/include/c++/15.2.1/cmath ****   atan2(_Float16 __y, _Float16 __x)
 517:/Applications/ArmGNUToolchain/15.2.rel1/arm-none-eabi/arm-none-eabi/include/c++/15.2.1/cmath ****   { return _Float16(__builtin_atan2f(__y, __x)); }
 518:/Applications/ArmGNUToolchain/15.2.rel1/arm-none-eabi/arm-none-eabi/include/c++/15.2.1/cmath **** 
 519:/Applications/ArmGNUToolchain/15.2.rel1/arm-none-eabi/arm-none-eabi/include/c++/15.2.1/cmath ****   constexpr _Float16
 520:/Applications/ArmGNUToolchain/15.2.rel1/arm-none-eabi/arm-none-eabi/include/c++/15.2.1/cmath ****   ceil(_Float16 __x)
 521:/Applications/ArmGNUToolchain/15.2.rel1/arm-none-eabi/arm-none-eabi/include/c++/15.2.1/cmath ****   { return _Float16(__builtin_ceilf(__x)); }
 522:/Applications/ArmGNUToolchain/15.2.rel1/arm-none-eabi/arm-none-eabi/include/c++/15.2.1/cmath **** 
 523:/Applications/ArmGNUToolchain/15.2.rel1/arm-none-eabi/arm-none-eabi/include/c++/15.2.1/cmath ****   constexpr _Float16
 524:/Applications/ArmGNUToolchain/15.2.rel1/arm-none-eabi/arm-none-eabi/include/c++/15.2.1/cmath ****   cos(_Float16 __x)
 525:/Applications/ArmGNUToolchain/15.2.rel1/arm-none-eabi/arm-none-eabi/include/c++/15.2.1/cmath ****   { return _Float16(__builtin_cosf(__x)); }
 526:/Applications/ArmGNUToolchain/15.2.rel1/arm-none-eabi/arm-none-eabi/include/c++/15.2.1/cmath **** 
 527:/Applications/ArmGNUToolchain/15.2.rel1/arm-none-eabi/arm-none-eabi/include/c++/15.2.1/cmath ****   constexpr _Float16
 528:/Applications/ArmGNUToolchain/15.2.rel1/arm-none-eabi/arm-none-eabi/include/c++/15.2.1/cmath ****   cosh(_Float16 __x)
 529:/Applications/ArmGNUToolchain/15.2.rel1/arm-none-eabi/arm-none-eabi/include/c++/15.2.1/cmath ****   { return _Float16(__builtin_coshf(__x)); }
 530:/Applications/ArmGNUToolchain/15.2.rel1/arm-none-eabi/arm-none-eabi/include/c++/15.2.1/cmath **** 
 531:/Applications/ArmGNUToolchain/15.2.rel1/arm-none-eabi/arm-none-eabi/include/c++/15.2.1/cmath ****   constexpr _Float16
 532:/Applications/ArmGNUToolchain/15.2.rel1/arm-none-eabi/arm-none-eabi/include/c++/15.2.1/cmath ****   exp(_Float16 __x)
 533:/Applications/ArmGNUToolchain/15.2.rel1/arm-none-eabi/arm-none-eabi/include/c++/15.2.1/cmath ****   { return _Float16(__builtin_expf(__x)); }
 534:/Applications/ArmGNUToolchain/15.2.rel1/arm-none-eabi/arm-none-eabi/include/c++/15.2.1/cmath **** 
 535:/Applications/ArmGNUToolchain/15.2.rel1/arm-none-eabi/arm-none-eabi/include/c++/15.2.1/cmath ****   constexpr _Float16
 536:/Applications/ArmGNUToolchain/15.2.rel1/arm-none-eabi/arm-none-eabi/include/c++/15.2.1/cmath ****   fabs(_Float16 __x)
 537:/Applications/ArmGNUToolchain/15.2.rel1/arm-none-eabi/arm-none-eabi/include/c++/15.2.1/cmath ****   { return _Float16(__builtin_fabsf(__x)); }
 538:/Applications/ArmGNUToolchain/15.2.rel1/arm-none-eabi/arm-none-eabi/include/c++/15.2.1/cmath **** 
 539:/Applications/ArmGNUToolchain/15.2.rel1/arm-none-eabi/arm-none-eabi/include/c++/15.2.1/cmath ****   constexpr _Float16
 540:/Applications/ArmGNUToolchain/15.2.rel1/arm-none-eabi/arm-none-eabi/include/c++/15.2.1/cmath ****   floor(_Float16 __x)
 541:/Applications/ArmGNUToolchain/15.2.rel1/arm-none-eabi/arm-none-eabi/include/c++/15.2.1/cmath ****   { return _Float16(__builtin_floorf(__x)); }
 542:/Applications/ArmGNUToolchain/15.2.rel1/arm-none-eabi/arm-none-eabi/include/c++/15.2.1/cmath **** 
 543:/Applications/ArmGNUToolchain/15.2.rel1/arm-none-eabi/arm-none-eabi/include/c++/15.2.1/cmath ****   constexpr _Float16
 544:/Applications/ArmGNUToolchain/15.2.rel1/arm-none-eabi/arm-none-eabi/include/c++/15.2.1/cmath ****   fmod(_Float16 __x, _Float16 __y)
 545:/Applications/ArmGNUToolchain/15.2.rel1/arm-none-eabi/arm-none-eabi/include/c++/15.2.1/cmath ****   { return _Float16(__builtin_fmodf(__x, __y)); }
 546:/Applications/ArmGNUToolchain/15.2.rel1/arm-none-eabi/arm-none-eabi/include/c++/15.2.1/cmath **** 
 547:/Applications/ArmGNUToolchain/15.2.rel1/arm-none-eabi/arm-none-eabi/include/c++/15.2.1/cmath ****   inline _Float16
 548:/Applications/ArmGNUToolchain/15.2.rel1/arm-none-eabi/arm-none-eabi/include/c++/15.2.1/cmath ****   frexp(_Float16 __x, int* __exp)
 549:/Applications/ArmGNUToolchain/15.2.rel1/arm-none-eabi/arm-none-eabi/include/c++/15.2.1/cmath ****   { return _Float16(__builtin_frexpf(__x, __exp)); }
 550:/Applications/ArmGNUToolchain/15.2.rel1/arm-none-eabi/arm-none-eabi/include/c++/15.2.1/cmath **** 
 551:/Applications/ArmGNUToolchain/15.2.rel1/arm-none-eabi/arm-none-eabi/include/c++/15.2.1/cmath ****   constexpr _Float16
 552:/Applications/ArmGNUToolchain/15.2.rel1/arm-none-eabi/arm-none-eabi/include/c++/15.2.1/cmath ****   ldexp(_Float16 __x, int __exp)
 553:/Applications/ArmGNUToolchain/15.2.rel1/arm-none-eabi/arm-none-eabi/include/c++/15.2.1/cmath ****   { return _Float16(__builtin_ldexpf(__x, __exp)); }
 554:/Applications/ArmGNUToolchain/15.2.rel1/arm-none-eabi/arm-none-eabi/include/c++/15.2.1/cmath **** 
 555:/Applications/ArmGNUToolchain/15.2.rel1/arm-none-eabi/arm-none-eabi/include/c++/15.2.1/cmath ****   constexpr _Float16
 556:/Applications/ArmGNUToolchain/15.2.rel1/arm-none-eabi/arm-none-eabi/include/c++/15.2.1/cmath ****   log(_Float16 __x)
 557:/Applications/ArmGNUToolchain/15.2.rel1/arm-none-eabi/arm-none-eabi/include/c++/15.2.1/cmath ****   { return _Float16(__builtin_logf(__x)); }
 558:/Applications/ArmGNUToolchain/15.2.rel1/arm-none-eabi/arm-none-eabi/include/c++/15.2.1/cmath **** 
 559:/Applications/ArmGNUToolchain/15.2.rel1/arm-none-eabi/arm-none-eabi/include/c++/15.2.1/cmath ****   constexpr _Float16
 560:/Applications/ArmGNUToolchain/15.2.rel1/arm-none-eabi/arm-none-eabi/include/c++/15.2.1/cmath ****   log10(_Float16 __x)
 561:/Applications/ArmGNUToolchain/15.2.rel1/arm-none-eabi/arm-none-eabi/include/c++/15.2.1/cmath ****   { return _Float16(__builtin_log10f(__x)); }
 562:/Applications/ArmGNUToolchain/15.2.rel1/arm-none-eabi/arm-none-eabi/include/c++/15.2.1/cmath **** 
 563:/Applications/ArmGNUToolchain/15.2.rel1/arm-none-eabi/arm-none-eabi/include/c++/15.2.1/cmath ****   inline _Float16
 564:/Applications/ArmGNUToolchain/15.2.rel1/arm-none-eabi/arm-none-eabi/include/c++/15.2.1/cmath ****   modf(_Float16 __x, _Float16* __iptr)
 565:/Applications/ArmGNUToolchain/15.2.rel1/arm-none-eabi/arm-none-eabi/include/c++/15.2.1/cmath ****   {
ARM GAS  /var/folders/7j/7n_15nxd0bx4q178nq7r8qsr0000gn/T//ccXsnuVa.s 			page 31


 566:/Applications/ArmGNUToolchain/15.2.rel1/arm-none-eabi/arm-none-eabi/include/c++/15.2.1/cmath ****     float __i, __ret = __builtin_modff(__x, &__i);
 567:/Applications/ArmGNUToolchain/15.2.rel1/arm-none-eabi/arm-none-eabi/include/c++/15.2.1/cmath ****     *__iptr = _Float16(__i);
 568:/Applications/ArmGNUToolchain/15.2.rel1/arm-none-eabi/arm-none-eabi/include/c++/15.2.1/cmath ****     return _Float16(__ret);
 569:/Applications/ArmGNUToolchain/15.2.rel1/arm-none-eabi/arm-none-eabi/include/c++/15.2.1/cmath ****   }
 570:/Applications/ArmGNUToolchain/15.2.rel1/arm-none-eabi/arm-none-eabi/include/c++/15.2.1/cmath **** 
 571:/Applications/ArmGNUToolchain/15.2.rel1/arm-none-eabi/arm-none-eabi/include/c++/15.2.1/cmath ****   constexpr _Float16
 572:/Applications/ArmGNUToolchain/15.2.rel1/arm-none-eabi/arm-none-eabi/include/c++/15.2.1/cmath ****   pow(_Float16 __x, _Float16 __y)
 573:/Applications/ArmGNUToolchain/15.2.rel1/arm-none-eabi/arm-none-eabi/include/c++/15.2.1/cmath ****   { return _Float16(__builtin_powf(__x, __y)); }
 574:/Applications/ArmGNUToolchain/15.2.rel1/arm-none-eabi/arm-none-eabi/include/c++/15.2.1/cmath **** 
 575:/Applications/ArmGNUToolchain/15.2.rel1/arm-none-eabi/arm-none-eabi/include/c++/15.2.1/cmath ****   constexpr _Float16
 576:/Applications/ArmGNUToolchain/15.2.rel1/arm-none-eabi/arm-none-eabi/include/c++/15.2.1/cmath ****   sin(_Float16 __x)
 577:/Applications/ArmGNUToolchain/15.2.rel1/arm-none-eabi/arm-none-eabi/include/c++/15.2.1/cmath ****   { return _Float16(__builtin_sinf(__x)); }
 578:/Applications/ArmGNUToolchain/15.2.rel1/arm-none-eabi/arm-none-eabi/include/c++/15.2.1/cmath **** 
 579:/Applications/ArmGNUToolchain/15.2.rel1/arm-none-eabi/arm-none-eabi/include/c++/15.2.1/cmath ****   constexpr _Float16
 580:/Applications/ArmGNUToolchain/15.2.rel1/arm-none-eabi/arm-none-eabi/include/c++/15.2.1/cmath ****   sinh(_Float16 __x)
 581:/Applications/ArmGNUToolchain/15.2.rel1/arm-none-eabi/arm-none-eabi/include/c++/15.2.1/cmath ****   { return _Float16(__builtin_sinhf(__x)); }
 582:/Applications/ArmGNUToolchain/15.2.rel1/arm-none-eabi/arm-none-eabi/include/c++/15.2.1/cmath **** 
 583:/Applications/ArmGNUToolchain/15.2.rel1/arm-none-eabi/arm-none-eabi/include/c++/15.2.1/cmath ****   constexpr _Float16
 584:/Applications/ArmGNUToolchain/15.2.rel1/arm-none-eabi/arm-none-eabi/include/c++/15.2.1/cmath ****   sqrt(_Float16 __x)
 585:/Applications/ArmGNUToolchain/15.2.rel1/arm-none-eabi/arm-none-eabi/include/c++/15.2.1/cmath ****   { return _Float16(__builtin_sqrtf(__x)); }
 586:/Applications/ArmGNUToolchain/15.2.rel1/arm-none-eabi/arm-none-eabi/include/c++/15.2.1/cmath **** 
 587:/Applications/ArmGNUToolchain/15.2.rel1/arm-none-eabi/arm-none-eabi/include/c++/15.2.1/cmath ****   constexpr _Float16
 588:/Applications/ArmGNUToolchain/15.2.rel1/arm-none-eabi/arm-none-eabi/include/c++/15.2.1/cmath ****   tan(_Float16 __x)
 589:/Applications/ArmGNUToolchain/15.2.rel1/arm-none-eabi/arm-none-eabi/include/c++/15.2.1/cmath ****   { return _Float16(__builtin_tanf(__x)); }
 590:/Applications/ArmGNUToolchain/15.2.rel1/arm-none-eabi/arm-none-eabi/include/c++/15.2.1/cmath **** 
 591:/Applications/ArmGNUToolchain/15.2.rel1/arm-none-eabi/arm-none-eabi/include/c++/15.2.1/cmath ****   constexpr _Float16
 592:/Applications/ArmGNUToolchain/15.2.rel1/arm-none-eabi/arm-none-eabi/include/c++/15.2.1/cmath ****   tanh(_Float16 __x)
 593:/Applications/ArmGNUToolchain/15.2.rel1/arm-none-eabi/arm-none-eabi/include/c++/15.2.1/cmath ****   { return _Float16(__builtin_tanhf(__x)); }
 594:/Applications/ArmGNUToolchain/15.2.rel1/arm-none-eabi/arm-none-eabi/include/c++/15.2.1/cmath **** #endif
 595:/Applications/ArmGNUToolchain/15.2.rel1/arm-none-eabi/arm-none-eabi/include/c++/15.2.1/cmath **** 
 596:/Applications/ArmGNUToolchain/15.2.rel1/arm-none-eabi/arm-none-eabi/include/c++/15.2.1/cmath **** #if defined(__STDCPP_FLOAT32_T__) && defined(_GLIBCXX_FLOAT_IS_IEEE_BINARY32)
 597:/Applications/ArmGNUToolchain/15.2.rel1/arm-none-eabi/arm-none-eabi/include/c++/15.2.1/cmath ****   constexpr _Float32
 598:/Applications/ArmGNUToolchain/15.2.rel1/arm-none-eabi/arm-none-eabi/include/c++/15.2.1/cmath ****   acos(_Float32 __x)
 599:/Applications/ArmGNUToolchain/15.2.rel1/arm-none-eabi/arm-none-eabi/include/c++/15.2.1/cmath ****   { return __builtin_acosf(__x); }
 600:/Applications/ArmGNUToolchain/15.2.rel1/arm-none-eabi/arm-none-eabi/include/c++/15.2.1/cmath **** 
 601:/Applications/ArmGNUToolchain/15.2.rel1/arm-none-eabi/arm-none-eabi/include/c++/15.2.1/cmath ****   constexpr _Float32
 602:/Applications/ArmGNUToolchain/15.2.rel1/arm-none-eabi/arm-none-eabi/include/c++/15.2.1/cmath ****   asin(_Float32 __x)
 603:/Applications/ArmGNUToolchain/15.2.rel1/arm-none-eabi/arm-none-eabi/include/c++/15.2.1/cmath ****   { return __builtin_asinf(__x); }
 604:/Applications/ArmGNUToolchain/15.2.rel1/arm-none-eabi/arm-none-eabi/include/c++/15.2.1/cmath **** 
 605:/Applications/ArmGNUToolchain/15.2.rel1/arm-none-eabi/arm-none-eabi/include/c++/15.2.1/cmath ****   constexpr _Float32
 606:/Applications/ArmGNUToolchain/15.2.rel1/arm-none-eabi/arm-none-eabi/include/c++/15.2.1/cmath ****   atan(_Float32 __x)
 607:/Applications/ArmGNUToolchain/15.2.rel1/arm-none-eabi/arm-none-eabi/include/c++/15.2.1/cmath ****   { return __builtin_atanf(__x); }
 608:/Applications/ArmGNUToolchain/15.2.rel1/arm-none-eabi/arm-none-eabi/include/c++/15.2.1/cmath **** 
 609:/Applications/ArmGNUToolchain/15.2.rel1/arm-none-eabi/arm-none-eabi/include/c++/15.2.1/cmath ****   constexpr _Float32
 610:/Applications/ArmGNUToolchain/15.2.rel1/arm-none-eabi/arm-none-eabi/include/c++/15.2.1/cmath ****   atan2(_Float32 __y, _Float32 __x)
 611:/Applications/ArmGNUToolchain/15.2.rel1/arm-none-eabi/arm-none-eabi/include/c++/15.2.1/cmath ****   { return __builtin_atan2f(__y, __x); }
 612:/Applications/ArmGNUToolchain/15.2.rel1/arm-none-eabi/arm-none-eabi/include/c++/15.2.1/cmath **** 
 613:/Applications/ArmGNUToolchain/15.2.rel1/arm-none-eabi/arm-none-eabi/include/c++/15.2.1/cmath ****   constexpr _Float32
 614:/Applications/ArmGNUToolchain/15.2.rel1/arm-none-eabi/arm-none-eabi/include/c++/15.2.1/cmath ****   ceil(_Float32 __x)
 615:/Applications/ArmGNUToolchain/15.2.rel1/arm-none-eabi/arm-none-eabi/include/c++/15.2.1/cmath ****   { return __builtin_ceilf(__x); }
 616:/Applications/ArmGNUToolchain/15.2.rel1/arm-none-eabi/arm-none-eabi/include/c++/15.2.1/cmath **** 
 617:/Applications/ArmGNUToolchain/15.2.rel1/arm-none-eabi/arm-none-eabi/include/c++/15.2.1/cmath ****   constexpr _Float32
 618:/Applications/ArmGNUToolchain/15.2.rel1/arm-none-eabi/arm-none-eabi/include/c++/15.2.1/cmath ****   cos(_Float32 __x)
 619:/Applications/ArmGNUToolchain/15.2.rel1/arm-none-eabi/arm-none-eabi/include/c++/15.2.1/cmath ****   { return __builtin_cosf(__x); }
 620:/Applications/ArmGNUToolchain/15.2.rel1/arm-none-eabi/arm-none-eabi/include/c++/15.2.1/cmath **** 
 621:/Applications/ArmGNUToolchain/15.2.rel1/arm-none-eabi/arm-none-eabi/include/c++/15.2.1/cmath ****   constexpr _Float32
 622:/Applications/ArmGNUToolchain/15.2.rel1/arm-none-eabi/arm-none-eabi/include/c++/15.2.1/cmath ****   cosh(_Float32 __x)
ARM GAS  /var/folders/7j/7n_15nxd0bx4q178nq7r8qsr0000gn/T//ccXsnuVa.s 			page 32


 623:/Applications/ArmGNUToolchain/15.2.rel1/arm-none-eabi/arm-none-eabi/include/c++/15.2.1/cmath ****   { return __builtin_coshf(__x); }
 624:/Applications/ArmGNUToolchain/15.2.rel1/arm-none-eabi/arm-none-eabi/include/c++/15.2.1/cmath **** 
 625:/Applications/ArmGNUToolchain/15.2.rel1/arm-none-eabi/arm-none-eabi/include/c++/15.2.1/cmath ****   constexpr _Float32
 626:/Applications/ArmGNUToolchain/15.2.rel1/arm-none-eabi/arm-none-eabi/include/c++/15.2.1/cmath ****   exp(_Float32 __x)
 627:/Applications/ArmGNUToolchain/15.2.rel1/arm-none-eabi/arm-none-eabi/include/c++/15.2.1/cmath ****   { return __builtin_expf(__x); }
 628:/Applications/ArmGNUToolchain/15.2.rel1/arm-none-eabi/arm-none-eabi/include/c++/15.2.1/cmath **** 
 629:/Applications/ArmGNUToolchain/15.2.rel1/arm-none-eabi/arm-none-eabi/include/c++/15.2.1/cmath ****   constexpr _Float32
 630:/Applications/ArmGNUToolchain/15.2.rel1/arm-none-eabi/arm-none-eabi/include/c++/15.2.1/cmath ****   fabs(_Float32 __x)
 631:/Applications/ArmGNUToolchain/15.2.rel1/arm-none-eabi/arm-none-eabi/include/c++/15.2.1/cmath ****   { return __builtin_fabsf(__x); }
 632:/Applications/ArmGNUToolchain/15.2.rel1/arm-none-eabi/arm-none-eabi/include/c++/15.2.1/cmath **** 
 633:/Applications/ArmGNUToolchain/15.2.rel1/arm-none-eabi/arm-none-eabi/include/c++/15.2.1/cmath ****   constexpr _Float32
 634:/Applications/ArmGNUToolchain/15.2.rel1/arm-none-eabi/arm-none-eabi/include/c++/15.2.1/cmath ****   floor(_Float32 __x)
 635:/Applications/ArmGNUToolchain/15.2.rel1/arm-none-eabi/arm-none-eabi/include/c++/15.2.1/cmath ****   { return __builtin_floorf(__x); }
 636:/Applications/ArmGNUToolchain/15.2.rel1/arm-none-eabi/arm-none-eabi/include/c++/15.2.1/cmath **** 
 637:/Applications/ArmGNUToolchain/15.2.rel1/arm-none-eabi/arm-none-eabi/include/c++/15.2.1/cmath ****   constexpr _Float32
 638:/Applications/ArmGNUToolchain/15.2.rel1/arm-none-eabi/arm-none-eabi/include/c++/15.2.1/cmath ****   fmod(_Float32 __x, _Float32 __y)
 639:/Applications/ArmGNUToolchain/15.2.rel1/arm-none-eabi/arm-none-eabi/include/c++/15.2.1/cmath ****   { return __builtin_fmodf(__x, __y); }
 640:/Applications/ArmGNUToolchain/15.2.rel1/arm-none-eabi/arm-none-eabi/include/c++/15.2.1/cmath **** 
 641:/Applications/ArmGNUToolchain/15.2.rel1/arm-none-eabi/arm-none-eabi/include/c++/15.2.1/cmath ****   inline _Float32
 642:/Applications/ArmGNUToolchain/15.2.rel1/arm-none-eabi/arm-none-eabi/include/c++/15.2.1/cmath ****   frexp(_Float32 __x, int* __exp)
 643:/Applications/ArmGNUToolchain/15.2.rel1/arm-none-eabi/arm-none-eabi/include/c++/15.2.1/cmath ****   { return __builtin_frexpf(__x, __exp); }
 644:/Applications/ArmGNUToolchain/15.2.rel1/arm-none-eabi/arm-none-eabi/include/c++/15.2.1/cmath **** 
 645:/Applications/ArmGNUToolchain/15.2.rel1/arm-none-eabi/arm-none-eabi/include/c++/15.2.1/cmath ****   constexpr _Float32
 646:/Applications/ArmGNUToolchain/15.2.rel1/arm-none-eabi/arm-none-eabi/include/c++/15.2.1/cmath ****   ldexp(_Float32 __x, int __exp)
 647:/Applications/ArmGNUToolchain/15.2.rel1/arm-none-eabi/arm-none-eabi/include/c++/15.2.1/cmath ****   { return __builtin_ldexpf(__x, __exp); }
 648:/Applications/ArmGNUToolchain/15.2.rel1/arm-none-eabi/arm-none-eabi/include/c++/15.2.1/cmath **** 
 649:/Applications/ArmGNUToolchain/15.2.rel1/arm-none-eabi/arm-none-eabi/include/c++/15.2.1/cmath ****   constexpr _Float32
 650:/Applications/ArmGNUToolchain/15.2.rel1/arm-none-eabi/arm-none-eabi/include/c++/15.2.1/cmath ****   log(_Float32 __x)
 651:/Applications/ArmGNUToolchain/15.2.rel1/arm-none-eabi/arm-none-eabi/include/c++/15.2.1/cmath ****   { return __builtin_logf(__x); }
 652:/Applications/ArmGNUToolchain/15.2.rel1/arm-none-eabi/arm-none-eabi/include/c++/15.2.1/cmath **** 
 653:/Applications/ArmGNUToolchain/15.2.rel1/arm-none-eabi/arm-none-eabi/include/c++/15.2.1/cmath ****   constexpr _Float32
 654:/Applications/ArmGNUToolchain/15.2.rel1/arm-none-eabi/arm-none-eabi/include/c++/15.2.1/cmath ****   log10(_Float32 __x)
 655:/Applications/ArmGNUToolchain/15.2.rel1/arm-none-eabi/arm-none-eabi/include/c++/15.2.1/cmath ****   { return __builtin_log10f(__x); }
 656:/Applications/ArmGNUToolchain/15.2.rel1/arm-none-eabi/arm-none-eabi/include/c++/15.2.1/cmath **** 
 657:/Applications/ArmGNUToolchain/15.2.rel1/arm-none-eabi/arm-none-eabi/include/c++/15.2.1/cmath ****   inline _Float32
 658:/Applications/ArmGNUToolchain/15.2.rel1/arm-none-eabi/arm-none-eabi/include/c++/15.2.1/cmath ****   modf(_Float32 __x, _Float32* __iptr)
 659:/Applications/ArmGNUToolchain/15.2.rel1/arm-none-eabi/arm-none-eabi/include/c++/15.2.1/cmath ****   {
 660:/Applications/ArmGNUToolchain/15.2.rel1/arm-none-eabi/arm-none-eabi/include/c++/15.2.1/cmath ****     float __i, __ret = __builtin_modff(__x, &__i);
 661:/Applications/ArmGNUToolchain/15.2.rel1/arm-none-eabi/arm-none-eabi/include/c++/15.2.1/cmath ****     *__iptr = __i;
 662:/Applications/ArmGNUToolchain/15.2.rel1/arm-none-eabi/arm-none-eabi/include/c++/15.2.1/cmath ****     return __ret;
 663:/Applications/ArmGNUToolchain/15.2.rel1/arm-none-eabi/arm-none-eabi/include/c++/15.2.1/cmath ****   }
 664:/Applications/ArmGNUToolchain/15.2.rel1/arm-none-eabi/arm-none-eabi/include/c++/15.2.1/cmath **** 
 665:/Applications/ArmGNUToolchain/15.2.rel1/arm-none-eabi/arm-none-eabi/include/c++/15.2.1/cmath ****   constexpr _Float32
 666:/Applications/ArmGNUToolchain/15.2.rel1/arm-none-eabi/arm-none-eabi/include/c++/15.2.1/cmath ****   pow(_Float32 __x, _Float32 __y)
 667:/Applications/ArmGNUToolchain/15.2.rel1/arm-none-eabi/arm-none-eabi/include/c++/15.2.1/cmath ****   { return __builtin_powf(__x, __y); }
 668:/Applications/ArmGNUToolchain/15.2.rel1/arm-none-eabi/arm-none-eabi/include/c++/15.2.1/cmath **** 
 669:/Applications/ArmGNUToolchain/15.2.rel1/arm-none-eabi/arm-none-eabi/include/c++/15.2.1/cmath ****   constexpr _Float32
 670:/Applications/ArmGNUToolchain/15.2.rel1/arm-none-eabi/arm-none-eabi/include/c++/15.2.1/cmath ****   sin(_Float32 __x)
 671:/Applications/ArmGNUToolchain/15.2.rel1/arm-none-eabi/arm-none-eabi/include/c++/15.2.1/cmath ****   { return __builtin_sinf(__x); }
 672:/Applications/ArmGNUToolchain/15.2.rel1/arm-none-eabi/arm-none-eabi/include/c++/15.2.1/cmath **** 
 673:/Applications/ArmGNUToolchain/15.2.rel1/arm-none-eabi/arm-none-eabi/include/c++/15.2.1/cmath ****   constexpr _Float32
 674:/Applications/ArmGNUToolchain/15.2.rel1/arm-none-eabi/arm-none-eabi/include/c++/15.2.1/cmath ****   sinh(_Float32 __x)
 675:/Applications/ArmGNUToolchain/15.2.rel1/arm-none-eabi/arm-none-eabi/include/c++/15.2.1/cmath ****   { return __builtin_sinhf(__x); }
 676:/Applications/ArmGNUToolchain/15.2.rel1/arm-none-eabi/arm-none-eabi/include/c++/15.2.1/cmath **** 
 677:/Applications/ArmGNUToolchain/15.2.rel1/arm-none-eabi/arm-none-eabi/include/c++/15.2.1/cmath ****   constexpr _Float32
 678:/Applications/ArmGNUToolchain/15.2.rel1/arm-none-eabi/arm-none-eabi/include/c++/15.2.1/cmath ****   sqrt(_Float32 __x)
 679:/Applications/ArmGNUToolchain/15.2.rel1/arm-none-eabi/arm-none-eabi/include/c++/15.2.1/cmath ****   { return __builtin_sqrtf(__x); }
ARM GAS  /var/folders/7j/7n_15nxd0bx4q178nq7r8qsr0000gn/T//ccXsnuVa.s 			page 33


 680:/Applications/ArmGNUToolchain/15.2.rel1/arm-none-eabi/arm-none-eabi/include/c++/15.2.1/cmath **** 
 681:/Applications/ArmGNUToolchain/15.2.rel1/arm-none-eabi/arm-none-eabi/include/c++/15.2.1/cmath ****   constexpr _Float32
 682:/Applications/ArmGNUToolchain/15.2.rel1/arm-none-eabi/arm-none-eabi/include/c++/15.2.1/cmath ****   tan(_Float32 __x)
 683:/Applications/ArmGNUToolchain/15.2.rel1/arm-none-eabi/arm-none-eabi/include/c++/15.2.1/cmath ****   { return __builtin_tanf(__x); }
 684:/Applications/ArmGNUToolchain/15.2.rel1/arm-none-eabi/arm-none-eabi/include/c++/15.2.1/cmath **** 
 685:/Applications/ArmGNUToolchain/15.2.rel1/arm-none-eabi/arm-none-eabi/include/c++/15.2.1/cmath ****   constexpr _Float32
 686:/Applications/ArmGNUToolchain/15.2.rel1/arm-none-eabi/arm-none-eabi/include/c++/15.2.1/cmath ****   tanh(_Float32 __x)
 687:/Applications/ArmGNUToolchain/15.2.rel1/arm-none-eabi/arm-none-eabi/include/c++/15.2.1/cmath ****   { return __builtin_tanhf(__x); }
 688:/Applications/ArmGNUToolchain/15.2.rel1/arm-none-eabi/arm-none-eabi/include/c++/15.2.1/cmath **** #endif
 689:/Applications/ArmGNUToolchain/15.2.rel1/arm-none-eabi/arm-none-eabi/include/c++/15.2.1/cmath **** 
 690:/Applications/ArmGNUToolchain/15.2.rel1/arm-none-eabi/arm-none-eabi/include/c++/15.2.1/cmath **** #if defined(__STDCPP_FLOAT64_T__) && defined(_GLIBCXX_DOUBLE_IS_IEEE_BINARY64)
 691:/Applications/ArmGNUToolchain/15.2.rel1/arm-none-eabi/arm-none-eabi/include/c++/15.2.1/cmath ****   constexpr _Float64
 692:/Applications/ArmGNUToolchain/15.2.rel1/arm-none-eabi/arm-none-eabi/include/c++/15.2.1/cmath ****   acos(_Float64 __x)
 693:/Applications/ArmGNUToolchain/15.2.rel1/arm-none-eabi/arm-none-eabi/include/c++/15.2.1/cmath ****   { return __builtin_acos(__x); }
 694:/Applications/ArmGNUToolchain/15.2.rel1/arm-none-eabi/arm-none-eabi/include/c++/15.2.1/cmath **** 
 695:/Applications/ArmGNUToolchain/15.2.rel1/arm-none-eabi/arm-none-eabi/include/c++/15.2.1/cmath ****   constexpr _Float64
 696:/Applications/ArmGNUToolchain/15.2.rel1/arm-none-eabi/arm-none-eabi/include/c++/15.2.1/cmath ****   asin(_Float64 __x)
 697:/Applications/ArmGNUToolchain/15.2.rel1/arm-none-eabi/arm-none-eabi/include/c++/15.2.1/cmath ****   { return __builtin_asin(__x); }
 698:/Applications/ArmGNUToolchain/15.2.rel1/arm-none-eabi/arm-none-eabi/include/c++/15.2.1/cmath **** 
 699:/Applications/ArmGNUToolchain/15.2.rel1/arm-none-eabi/arm-none-eabi/include/c++/15.2.1/cmath ****   constexpr _Float64
 700:/Applications/ArmGNUToolchain/15.2.rel1/arm-none-eabi/arm-none-eabi/include/c++/15.2.1/cmath ****   atan(_Float64 __x)
 701:/Applications/ArmGNUToolchain/15.2.rel1/arm-none-eabi/arm-none-eabi/include/c++/15.2.1/cmath ****   { return __builtin_atan(__x); }
 702:/Applications/ArmGNUToolchain/15.2.rel1/arm-none-eabi/arm-none-eabi/include/c++/15.2.1/cmath **** 
 703:/Applications/ArmGNUToolchain/15.2.rel1/arm-none-eabi/arm-none-eabi/include/c++/15.2.1/cmath ****   constexpr _Float64
 704:/Applications/ArmGNUToolchain/15.2.rel1/arm-none-eabi/arm-none-eabi/include/c++/15.2.1/cmath ****   atan2(_Float64 __y, _Float64 __x)
 705:/Applications/ArmGNUToolchain/15.2.rel1/arm-none-eabi/arm-none-eabi/include/c++/15.2.1/cmath ****   { return __builtin_atan2(__y, __x); }
 706:/Applications/ArmGNUToolchain/15.2.rel1/arm-none-eabi/arm-none-eabi/include/c++/15.2.1/cmath **** 
 707:/Applications/ArmGNUToolchain/15.2.rel1/arm-none-eabi/arm-none-eabi/include/c++/15.2.1/cmath ****   constexpr _Float64
 708:/Applications/ArmGNUToolchain/15.2.rel1/arm-none-eabi/arm-none-eabi/include/c++/15.2.1/cmath ****   ceil(_Float64 __x)
 709:/Applications/ArmGNUToolchain/15.2.rel1/arm-none-eabi/arm-none-eabi/include/c++/15.2.1/cmath ****   { return __builtin_ceil(__x); }
 710:/Applications/ArmGNUToolchain/15.2.rel1/arm-none-eabi/arm-none-eabi/include/c++/15.2.1/cmath **** 
 711:/Applications/ArmGNUToolchain/15.2.rel1/arm-none-eabi/arm-none-eabi/include/c++/15.2.1/cmath ****   constexpr _Float64
 712:/Applications/ArmGNUToolchain/15.2.rel1/arm-none-eabi/arm-none-eabi/include/c++/15.2.1/cmath ****   cos(_Float64 __x)
 713:/Applications/ArmGNUToolchain/15.2.rel1/arm-none-eabi/arm-none-eabi/include/c++/15.2.1/cmath ****   { return __builtin_cos(__x); }
 714:/Applications/ArmGNUToolchain/15.2.rel1/arm-none-eabi/arm-none-eabi/include/c++/15.2.1/cmath **** 
 715:/Applications/ArmGNUToolchain/15.2.rel1/arm-none-eabi/arm-none-eabi/include/c++/15.2.1/cmath ****   constexpr _Float64
 716:/Applications/ArmGNUToolchain/15.2.rel1/arm-none-eabi/arm-none-eabi/include/c++/15.2.1/cmath ****   cosh(_Float64 __x)
 717:/Applications/ArmGNUToolchain/15.2.rel1/arm-none-eabi/arm-none-eabi/include/c++/15.2.1/cmath ****   { return __builtin_cosh(__x); }
 718:/Applications/ArmGNUToolchain/15.2.rel1/arm-none-eabi/arm-none-eabi/include/c++/15.2.1/cmath **** 
 719:/Applications/ArmGNUToolchain/15.2.rel1/arm-none-eabi/arm-none-eabi/include/c++/15.2.1/cmath ****   constexpr _Float64
 720:/Applications/ArmGNUToolchain/15.2.rel1/arm-none-eabi/arm-none-eabi/include/c++/15.2.1/cmath ****   exp(_Float64 __x)
 721:/Applications/ArmGNUToolchain/15.2.rel1/arm-none-eabi/arm-none-eabi/include/c++/15.2.1/cmath ****   { return __builtin_exp(__x); }
 722:/Applications/ArmGNUToolchain/15.2.rel1/arm-none-eabi/arm-none-eabi/include/c++/15.2.1/cmath **** 
 723:/Applications/ArmGNUToolchain/15.2.rel1/arm-none-eabi/arm-none-eabi/include/c++/15.2.1/cmath ****   constexpr _Float64
 724:/Applications/ArmGNUToolchain/15.2.rel1/arm-none-eabi/arm-none-eabi/include/c++/15.2.1/cmath ****   fabs(_Float64 __x)
 725:/Applications/ArmGNUToolchain/15.2.rel1/arm-none-eabi/arm-none-eabi/include/c++/15.2.1/cmath ****   { return __builtin_fabs(__x); }
 726:/Applications/ArmGNUToolchain/15.2.rel1/arm-none-eabi/arm-none-eabi/include/c++/15.2.1/cmath **** 
 727:/Applications/ArmGNUToolchain/15.2.rel1/arm-none-eabi/arm-none-eabi/include/c++/15.2.1/cmath ****   constexpr _Float64
 728:/Applications/ArmGNUToolchain/15.2.rel1/arm-none-eabi/arm-none-eabi/include/c++/15.2.1/cmath ****   floor(_Float64 __x)
 729:/Applications/ArmGNUToolchain/15.2.rel1/arm-none-eabi/arm-none-eabi/include/c++/15.2.1/cmath ****   { return __builtin_floor(__x); }
 730:/Applications/ArmGNUToolchain/15.2.rel1/arm-none-eabi/arm-none-eabi/include/c++/15.2.1/cmath **** 
 731:/Applications/ArmGNUToolchain/15.2.rel1/arm-none-eabi/arm-none-eabi/include/c++/15.2.1/cmath ****   constexpr _Float64
 732:/Applications/ArmGNUToolchain/15.2.rel1/arm-none-eabi/arm-none-eabi/include/c++/15.2.1/cmath ****   fmod(_Float64 __x, _Float64 __y)
 733:/Applications/ArmGNUToolchain/15.2.rel1/arm-none-eabi/arm-none-eabi/include/c++/15.2.1/cmath ****   { return __builtin_fmod(__x, __y); }
 734:/Applications/ArmGNUToolchain/15.2.rel1/arm-none-eabi/arm-none-eabi/include/c++/15.2.1/cmath **** 
 735:/Applications/ArmGNUToolchain/15.2.rel1/arm-none-eabi/arm-none-eabi/include/c++/15.2.1/cmath ****   inline _Float64
 736:/Applications/ArmGNUToolchain/15.2.rel1/arm-none-eabi/arm-none-eabi/include/c++/15.2.1/cmath ****   frexp(_Float64 __x, int* __exp)
ARM GAS  /var/folders/7j/7n_15nxd0bx4q178nq7r8qsr0000gn/T//ccXsnuVa.s 			page 34


 737:/Applications/ArmGNUToolchain/15.2.rel1/arm-none-eabi/arm-none-eabi/include/c++/15.2.1/cmath ****   { return __builtin_frexp(__x, __exp); }
 738:/Applications/ArmGNUToolchain/15.2.rel1/arm-none-eabi/arm-none-eabi/include/c++/15.2.1/cmath **** 
 739:/Applications/ArmGNUToolchain/15.2.rel1/arm-none-eabi/arm-none-eabi/include/c++/15.2.1/cmath ****   constexpr _Float64
 740:/Applications/ArmGNUToolchain/15.2.rel1/arm-none-eabi/arm-none-eabi/include/c++/15.2.1/cmath ****   ldexp(_Float64 __x, int __exp)
 741:/Applications/ArmGNUToolchain/15.2.rel1/arm-none-eabi/arm-none-eabi/include/c++/15.2.1/cmath ****   { return __builtin_ldexp(__x, __exp); }
 742:/Applications/ArmGNUToolchain/15.2.rel1/arm-none-eabi/arm-none-eabi/include/c++/15.2.1/cmath **** 
 743:/Applications/ArmGNUToolchain/15.2.rel1/arm-none-eabi/arm-none-eabi/include/c++/15.2.1/cmath ****   constexpr _Float64
 744:/Applications/ArmGNUToolchain/15.2.rel1/arm-none-eabi/arm-none-eabi/include/c++/15.2.1/cmath ****   log(_Float64 __x)
 745:/Applications/ArmGNUToolchain/15.2.rel1/arm-none-eabi/arm-none-eabi/include/c++/15.2.1/cmath ****   { return __builtin_log(__x); }
 746:/Applications/ArmGNUToolchain/15.2.rel1/arm-none-eabi/arm-none-eabi/include/c++/15.2.1/cmath **** 
 747:/Applications/ArmGNUToolchain/15.2.rel1/arm-none-eabi/arm-none-eabi/include/c++/15.2.1/cmath ****   constexpr _Float64
 748:/Applications/ArmGNUToolchain/15.2.rel1/arm-none-eabi/arm-none-eabi/include/c++/15.2.1/cmath ****   log10(_Float64 __x)
 749:/Applications/ArmGNUToolchain/15.2.rel1/arm-none-eabi/arm-none-eabi/include/c++/15.2.1/cmath ****   { return __builtin_log10(__x); }
 750:/Applications/ArmGNUToolchain/15.2.rel1/arm-none-eabi/arm-none-eabi/include/c++/15.2.1/cmath **** 
 751:/Applications/ArmGNUToolchain/15.2.rel1/arm-none-eabi/arm-none-eabi/include/c++/15.2.1/cmath ****   inline _Float64
 752:/Applications/ArmGNUToolchain/15.2.rel1/arm-none-eabi/arm-none-eabi/include/c++/15.2.1/cmath ****   modf(_Float64 __x, _Float64* __iptr)
 753:/Applications/ArmGNUToolchain/15.2.rel1/arm-none-eabi/arm-none-eabi/include/c++/15.2.1/cmath ****   {
 754:/Applications/ArmGNUToolchain/15.2.rel1/arm-none-eabi/arm-none-eabi/include/c++/15.2.1/cmath ****     double __i, __ret = __builtin_modf(__x, &__i);
 755:/Applications/ArmGNUToolchain/15.2.rel1/arm-none-eabi/arm-none-eabi/include/c++/15.2.1/cmath ****     *__iptr = __i;
 756:/Applications/ArmGNUToolchain/15.2.rel1/arm-none-eabi/arm-none-eabi/include/c++/15.2.1/cmath ****     return __ret;
 757:/Applications/ArmGNUToolchain/15.2.rel1/arm-none-eabi/arm-none-eabi/include/c++/15.2.1/cmath ****   }
 758:/Applications/ArmGNUToolchain/15.2.rel1/arm-none-eabi/arm-none-eabi/include/c++/15.2.1/cmath **** 
 759:/Applications/ArmGNUToolchain/15.2.rel1/arm-none-eabi/arm-none-eabi/include/c++/15.2.1/cmath ****   constexpr _Float64
 760:/Applications/ArmGNUToolchain/15.2.rel1/arm-none-eabi/arm-none-eabi/include/c++/15.2.1/cmath ****   pow(_Float64 __x, _Float64 __y)
 761:/Applications/ArmGNUToolchain/15.2.rel1/arm-none-eabi/arm-none-eabi/include/c++/15.2.1/cmath ****   { return __builtin_pow(__x, __y); }
 762:/Applications/ArmGNUToolchain/15.2.rel1/arm-none-eabi/arm-none-eabi/include/c++/15.2.1/cmath **** 
 763:/Applications/ArmGNUToolchain/15.2.rel1/arm-none-eabi/arm-none-eabi/include/c++/15.2.1/cmath ****   constexpr _Float64
 764:/Applications/ArmGNUToolchain/15.2.rel1/arm-none-eabi/arm-none-eabi/include/c++/15.2.1/cmath ****   sin(_Float64 __x)
 765:/Applications/ArmGNUToolchain/15.2.rel1/arm-none-eabi/arm-none-eabi/include/c++/15.2.1/cmath ****   { return __builtin_sin(__x); }
 766:/Applications/ArmGNUToolchain/15.2.rel1/arm-none-eabi/arm-none-eabi/include/c++/15.2.1/cmath **** 
 767:/Applications/ArmGNUToolchain/15.2.rel1/arm-none-eabi/arm-none-eabi/include/c++/15.2.1/cmath ****   constexpr _Float64
 768:/Applications/ArmGNUToolchain/15.2.rel1/arm-none-eabi/arm-none-eabi/include/c++/15.2.1/cmath ****   sinh(_Float64 __x)
 769:/Applications/ArmGNUToolchain/15.2.rel1/arm-none-eabi/arm-none-eabi/include/c++/15.2.1/cmath ****   { return __builtin_sinh(__x); }
 770:/Applications/ArmGNUToolchain/15.2.rel1/arm-none-eabi/arm-none-eabi/include/c++/15.2.1/cmath **** 
 771:/Applications/ArmGNUToolchain/15.2.rel1/arm-none-eabi/arm-none-eabi/include/c++/15.2.1/cmath ****   constexpr _Float64
 772:/Applications/ArmGNUToolchain/15.2.rel1/arm-none-eabi/arm-none-eabi/include/c++/15.2.1/cmath ****   sqrt(_Float64 __x)
 773:/Applications/ArmGNUToolchain/15.2.rel1/arm-none-eabi/arm-none-eabi/include/c++/15.2.1/cmath ****   { return __builtin_sqrt(__x); }
 774:/Applications/ArmGNUToolchain/15.2.rel1/arm-none-eabi/arm-none-eabi/include/c++/15.2.1/cmath **** 
 775:/Applications/ArmGNUToolchain/15.2.rel1/arm-none-eabi/arm-none-eabi/include/c++/15.2.1/cmath ****   constexpr _Float64
 776:/Applications/ArmGNUToolchain/15.2.rel1/arm-none-eabi/arm-none-eabi/include/c++/15.2.1/cmath ****   tan(_Float64 __x)
 777:/Applications/ArmGNUToolchain/15.2.rel1/arm-none-eabi/arm-none-eabi/include/c++/15.2.1/cmath ****   { return __builtin_tan(__x); }
 778:/Applications/ArmGNUToolchain/15.2.rel1/arm-none-eabi/arm-none-eabi/include/c++/15.2.1/cmath **** 
 779:/Applications/ArmGNUToolchain/15.2.rel1/arm-none-eabi/arm-none-eabi/include/c++/15.2.1/cmath ****   constexpr _Float64
 780:/Applications/ArmGNUToolchain/15.2.rel1/arm-none-eabi/arm-none-eabi/include/c++/15.2.1/cmath ****   tanh(_Float64 __x)
 781:/Applications/ArmGNUToolchain/15.2.rel1/arm-none-eabi/arm-none-eabi/include/c++/15.2.1/cmath ****   { return __builtin_tanh(__x); }
 782:/Applications/ArmGNUToolchain/15.2.rel1/arm-none-eabi/arm-none-eabi/include/c++/15.2.1/cmath **** #endif
 783:/Applications/ArmGNUToolchain/15.2.rel1/arm-none-eabi/arm-none-eabi/include/c++/15.2.1/cmath **** 
 784:/Applications/ArmGNUToolchain/15.2.rel1/arm-none-eabi/arm-none-eabi/include/c++/15.2.1/cmath **** #if defined(__STDCPP_FLOAT128_T__) && defined(_GLIBCXX_LDOUBLE_IS_IEEE_BINARY128)
 785:/Applications/ArmGNUToolchain/15.2.rel1/arm-none-eabi/arm-none-eabi/include/c++/15.2.1/cmath ****   constexpr _Float128
 786:/Applications/ArmGNUToolchain/15.2.rel1/arm-none-eabi/arm-none-eabi/include/c++/15.2.1/cmath ****   acos(_Float128 __x)
 787:/Applications/ArmGNUToolchain/15.2.rel1/arm-none-eabi/arm-none-eabi/include/c++/15.2.1/cmath ****   { return __builtin_acosl(__x); }
 788:/Applications/ArmGNUToolchain/15.2.rel1/arm-none-eabi/arm-none-eabi/include/c++/15.2.1/cmath **** 
 789:/Applications/ArmGNUToolchain/15.2.rel1/arm-none-eabi/arm-none-eabi/include/c++/15.2.1/cmath ****   constexpr _Float128
 790:/Applications/ArmGNUToolchain/15.2.rel1/arm-none-eabi/arm-none-eabi/include/c++/15.2.1/cmath ****   asin(_Float128 __x)
 791:/Applications/ArmGNUToolchain/15.2.rel1/arm-none-eabi/arm-none-eabi/include/c++/15.2.1/cmath ****   { return __builtin_asinl(__x); }
 792:/Applications/ArmGNUToolchain/15.2.rel1/arm-none-eabi/arm-none-eabi/include/c++/15.2.1/cmath **** 
 793:/Applications/ArmGNUToolchain/15.2.rel1/arm-none-eabi/arm-none-eabi/include/c++/15.2.1/cmath ****   constexpr _Float128
ARM GAS  /var/folders/7j/7n_15nxd0bx4q178nq7r8qsr0000gn/T//ccXsnuVa.s 			page 35


 794:/Applications/ArmGNUToolchain/15.2.rel1/arm-none-eabi/arm-none-eabi/include/c++/15.2.1/cmath ****   atan(_Float128 __x)
 795:/Applications/ArmGNUToolchain/15.2.rel1/arm-none-eabi/arm-none-eabi/include/c++/15.2.1/cmath ****   { return __builtin_atanl(__x); }
 796:/Applications/ArmGNUToolchain/15.2.rel1/arm-none-eabi/arm-none-eabi/include/c++/15.2.1/cmath **** 
 797:/Applications/ArmGNUToolchain/15.2.rel1/arm-none-eabi/arm-none-eabi/include/c++/15.2.1/cmath ****   constexpr _Float128
 798:/Applications/ArmGNUToolchain/15.2.rel1/arm-none-eabi/arm-none-eabi/include/c++/15.2.1/cmath ****   atan2(_Float128 __y, _Float128 __x)
 799:/Applications/ArmGNUToolchain/15.2.rel1/arm-none-eabi/arm-none-eabi/include/c++/15.2.1/cmath ****   { return __builtin_atan2l(__y, __x); }
 800:/Applications/ArmGNUToolchain/15.2.rel1/arm-none-eabi/arm-none-eabi/include/c++/15.2.1/cmath **** 
 801:/Applications/ArmGNUToolchain/15.2.rel1/arm-none-eabi/arm-none-eabi/include/c++/15.2.1/cmath ****   constexpr _Float128
 802:/Applications/ArmGNUToolchain/15.2.rel1/arm-none-eabi/arm-none-eabi/include/c++/15.2.1/cmath ****   ceil(_Float128 __x)
 803:/Applications/ArmGNUToolchain/15.2.rel1/arm-none-eabi/arm-none-eabi/include/c++/15.2.1/cmath ****   { return __builtin_ceill(__x); }
 804:/Applications/ArmGNUToolchain/15.2.rel1/arm-none-eabi/arm-none-eabi/include/c++/15.2.1/cmath **** 
 805:/Applications/ArmGNUToolchain/15.2.rel1/arm-none-eabi/arm-none-eabi/include/c++/15.2.1/cmath ****   constexpr _Float128
 806:/Applications/ArmGNUToolchain/15.2.rel1/arm-none-eabi/arm-none-eabi/include/c++/15.2.1/cmath ****   cos(_Float128 __x)
 807:/Applications/ArmGNUToolchain/15.2.rel1/arm-none-eabi/arm-none-eabi/include/c++/15.2.1/cmath ****   { return __builtin_cosl(__x); }
 808:/Applications/ArmGNUToolchain/15.2.rel1/arm-none-eabi/arm-none-eabi/include/c++/15.2.1/cmath **** 
 809:/Applications/ArmGNUToolchain/15.2.rel1/arm-none-eabi/arm-none-eabi/include/c++/15.2.1/cmath ****   constexpr _Float128
 810:/Applications/ArmGNUToolchain/15.2.rel1/arm-none-eabi/arm-none-eabi/include/c++/15.2.1/cmath ****   cosh(_Float128 __x)
 811:/Applications/ArmGNUToolchain/15.2.rel1/arm-none-eabi/arm-none-eabi/include/c++/15.2.1/cmath ****   { return __builtin_coshl(__x); }
 812:/Applications/ArmGNUToolchain/15.2.rel1/arm-none-eabi/arm-none-eabi/include/c++/15.2.1/cmath **** 
 813:/Applications/ArmGNUToolchain/15.2.rel1/arm-none-eabi/arm-none-eabi/include/c++/15.2.1/cmath ****   constexpr _Float128
 814:/Applications/ArmGNUToolchain/15.2.rel1/arm-none-eabi/arm-none-eabi/include/c++/15.2.1/cmath ****   exp(_Float128 __x)
 815:/Applications/ArmGNUToolchain/15.2.rel1/arm-none-eabi/arm-none-eabi/include/c++/15.2.1/cmath ****   { return __builtin_expl(__x); }
 816:/Applications/ArmGNUToolchain/15.2.rel1/arm-none-eabi/arm-none-eabi/include/c++/15.2.1/cmath **** 
 817:/Applications/ArmGNUToolchain/15.2.rel1/arm-none-eabi/arm-none-eabi/include/c++/15.2.1/cmath ****   constexpr _Float128
 818:/Applications/ArmGNUToolchain/15.2.rel1/arm-none-eabi/arm-none-eabi/include/c++/15.2.1/cmath ****   fabs(_Float128 __x)
 819:/Applications/ArmGNUToolchain/15.2.rel1/arm-none-eabi/arm-none-eabi/include/c++/15.2.1/cmath ****   { return __builtin_fabsl(__x); }
 820:/Applications/ArmGNUToolchain/15.2.rel1/arm-none-eabi/arm-none-eabi/include/c++/15.2.1/cmath **** 
 821:/Applications/ArmGNUToolchain/15.2.rel1/arm-none-eabi/arm-none-eabi/include/c++/15.2.1/cmath ****   constexpr _Float128
 822:/Applications/ArmGNUToolchain/15.2.rel1/arm-none-eabi/arm-none-eabi/include/c++/15.2.1/cmath ****   floor(_Float128 __x)
 823:/Applications/ArmGNUToolchain/15.2.rel1/arm-none-eabi/arm-none-eabi/include/c++/15.2.1/cmath ****   { return __builtin_floorl(__x); }
 824:/Applications/ArmGNUToolchain/15.2.rel1/arm-none-eabi/arm-none-eabi/include/c++/15.2.1/cmath **** 
 825:/Applications/ArmGNUToolchain/15.2.rel1/arm-none-eabi/arm-none-eabi/include/c++/15.2.1/cmath ****   constexpr _Float128
 826:/Applications/ArmGNUToolchain/15.2.rel1/arm-none-eabi/arm-none-eabi/include/c++/15.2.1/cmath ****   fmod(_Float128 __x, _Float128 __y)
 827:/Applications/ArmGNUToolchain/15.2.rel1/arm-none-eabi/arm-none-eabi/include/c++/15.2.1/cmath ****   { return __builtin_fmodl(__x, __y); }
 828:/Applications/ArmGNUToolchain/15.2.rel1/arm-none-eabi/arm-none-eabi/include/c++/15.2.1/cmath **** 
 829:/Applications/ArmGNUToolchain/15.2.rel1/arm-none-eabi/arm-none-eabi/include/c++/15.2.1/cmath ****   inline _Float128
 830:/Applications/ArmGNUToolchain/15.2.rel1/arm-none-eabi/arm-none-eabi/include/c++/15.2.1/cmath ****   frexp(_Float128 __x, int* __exp)
 831:/Applications/ArmGNUToolchain/15.2.rel1/arm-none-eabi/arm-none-eabi/include/c++/15.2.1/cmath ****   { return __builtin_frexpl(__x, __exp); }
 832:/Applications/ArmGNUToolchain/15.2.rel1/arm-none-eabi/arm-none-eabi/include/c++/15.2.1/cmath **** 
 833:/Applications/ArmGNUToolchain/15.2.rel1/arm-none-eabi/arm-none-eabi/include/c++/15.2.1/cmath ****   constexpr _Float128
 834:/Applications/ArmGNUToolchain/15.2.rel1/arm-none-eabi/arm-none-eabi/include/c++/15.2.1/cmath ****   ldexp(_Float128 __x, int __exp)
 835:/Applications/ArmGNUToolchain/15.2.rel1/arm-none-eabi/arm-none-eabi/include/c++/15.2.1/cmath ****   { return __builtin_ldexpl(__x, __exp); }
 836:/Applications/ArmGNUToolchain/15.2.rel1/arm-none-eabi/arm-none-eabi/include/c++/15.2.1/cmath **** 
 837:/Applications/ArmGNUToolchain/15.2.rel1/arm-none-eabi/arm-none-eabi/include/c++/15.2.1/cmath ****   constexpr _Float128
 838:/Applications/ArmGNUToolchain/15.2.rel1/arm-none-eabi/arm-none-eabi/include/c++/15.2.1/cmath ****   log(_Float128 __x)
 839:/Applications/ArmGNUToolchain/15.2.rel1/arm-none-eabi/arm-none-eabi/include/c++/15.2.1/cmath ****   { return __builtin_logl(__x); }
 840:/Applications/ArmGNUToolchain/15.2.rel1/arm-none-eabi/arm-none-eabi/include/c++/15.2.1/cmath **** 
 841:/Applications/ArmGNUToolchain/15.2.rel1/arm-none-eabi/arm-none-eabi/include/c++/15.2.1/cmath ****   constexpr _Float128
 842:/Applications/ArmGNUToolchain/15.2.rel1/arm-none-eabi/arm-none-eabi/include/c++/15.2.1/cmath ****   log10(_Float128 __x)
 843:/Applications/ArmGNUToolchain/15.2.rel1/arm-none-eabi/arm-none-eabi/include/c++/15.2.1/cmath ****   { return __builtin_log10l(__x); }
 844:/Applications/ArmGNUToolchain/15.2.rel1/arm-none-eabi/arm-none-eabi/include/c++/15.2.1/cmath **** 
 845:/Applications/ArmGNUToolchain/15.2.rel1/arm-none-eabi/arm-none-eabi/include/c++/15.2.1/cmath ****   inline _Float128
 846:/Applications/ArmGNUToolchain/15.2.rel1/arm-none-eabi/arm-none-eabi/include/c++/15.2.1/cmath ****   modf(_Float128 __x, _Float128* __iptr)
 847:/Applications/ArmGNUToolchain/15.2.rel1/arm-none-eabi/arm-none-eabi/include/c++/15.2.1/cmath ****   {
 848:/Applications/ArmGNUToolchain/15.2.rel1/arm-none-eabi/arm-none-eabi/include/c++/15.2.1/cmath ****     long double __i, __ret = __builtin_modfl(__x, &__i);
 849:/Applications/ArmGNUToolchain/15.2.rel1/arm-none-eabi/arm-none-eabi/include/c++/15.2.1/cmath ****     *__iptr = __i;
 850:/Applications/ArmGNUToolchain/15.2.rel1/arm-none-eabi/arm-none-eabi/include/c++/15.2.1/cmath ****     return __ret;
ARM GAS  /var/folders/7j/7n_15nxd0bx4q178nq7r8qsr0000gn/T//ccXsnuVa.s 			page 36


 851:/Applications/ArmGNUToolchain/15.2.rel1/arm-none-eabi/arm-none-eabi/include/c++/15.2.1/cmath ****   }
 852:/Applications/ArmGNUToolchain/15.2.rel1/arm-none-eabi/arm-none-eabi/include/c++/15.2.1/cmath **** 
 853:/Applications/ArmGNUToolchain/15.2.rel1/arm-none-eabi/arm-none-eabi/include/c++/15.2.1/cmath ****   constexpr _Float128
 854:/Applications/ArmGNUToolchain/15.2.rel1/arm-none-eabi/arm-none-eabi/include/c++/15.2.1/cmath ****   pow(_Float128 __x, _Float128 __y)
 855:/Applications/ArmGNUToolchain/15.2.rel1/arm-none-eabi/arm-none-eabi/include/c++/15.2.1/cmath ****   { return __builtin_powl(__x, __y); }
 856:/Applications/ArmGNUToolchain/15.2.rel1/arm-none-eabi/arm-none-eabi/include/c++/15.2.1/cmath **** 
 857:/Applications/ArmGNUToolchain/15.2.rel1/arm-none-eabi/arm-none-eabi/include/c++/15.2.1/cmath ****   constexpr _Float128
 858:/Applications/ArmGNUToolchain/15.2.rel1/arm-none-eabi/arm-none-eabi/include/c++/15.2.1/cmath ****   sin(_Float128 __x)
 859:/Applications/ArmGNUToolchain/15.2.rel1/arm-none-eabi/arm-none-eabi/include/c++/15.2.1/cmath ****   { return __builtin_sinl(__x); }
 860:/Applications/ArmGNUToolchain/15.2.rel1/arm-none-eabi/arm-none-eabi/include/c++/15.2.1/cmath **** 
 861:/Applications/ArmGNUToolchain/15.2.rel1/arm-none-eabi/arm-none-eabi/include/c++/15.2.1/cmath ****   constexpr _Float128
 862:/Applications/ArmGNUToolchain/15.2.rel1/arm-none-eabi/arm-none-eabi/include/c++/15.2.1/cmath ****   sinh(_Float128 __x)
 863:/Applications/ArmGNUToolchain/15.2.rel1/arm-none-eabi/arm-none-eabi/include/c++/15.2.1/cmath ****   { return __builtin_sinhl(__x); }
 864:/Applications/ArmGNUToolchain/15.2.rel1/arm-none-eabi/arm-none-eabi/include/c++/15.2.1/cmath **** 
 865:/Applications/ArmGNUToolchain/15.2.rel1/arm-none-eabi/arm-none-eabi/include/c++/15.2.1/cmath ****   constexpr _Float128
 866:/Applications/ArmGNUToolchain/15.2.rel1/arm-none-eabi/arm-none-eabi/include/c++/15.2.1/cmath ****   sqrt(_Float128 __x)
 867:/Applications/ArmGNUToolchain/15.2.rel1/arm-none-eabi/arm-none-eabi/include/c++/15.2.1/cmath ****   { return __builtin_sqrtl(__x); }
 868:/Applications/ArmGNUToolchain/15.2.rel1/arm-none-eabi/arm-none-eabi/include/c++/15.2.1/cmath **** 
 869:/Applications/ArmGNUToolchain/15.2.rel1/arm-none-eabi/arm-none-eabi/include/c++/15.2.1/cmath ****   constexpr _Float128
 870:/Applications/ArmGNUToolchain/15.2.rel1/arm-none-eabi/arm-none-eabi/include/c++/15.2.1/cmath ****   tan(_Float128 __x)
 871:/Applications/ArmGNUToolchain/15.2.rel1/arm-none-eabi/arm-none-eabi/include/c++/15.2.1/cmath ****   { return __builtin_tanl(__x); }
 872:/Applications/ArmGNUToolchain/15.2.rel1/arm-none-eabi/arm-none-eabi/include/c++/15.2.1/cmath **** 
 873:/Applications/ArmGNUToolchain/15.2.rel1/arm-none-eabi/arm-none-eabi/include/c++/15.2.1/cmath ****   constexpr _Float128
 874:/Applications/ArmGNUToolchain/15.2.rel1/arm-none-eabi/arm-none-eabi/include/c++/15.2.1/cmath ****   tanh(_Float128 __x)
 875:/Applications/ArmGNUToolchain/15.2.rel1/arm-none-eabi/arm-none-eabi/include/c++/15.2.1/cmath ****   { return __builtin_tanhl(__x); }
 876:/Applications/ArmGNUToolchain/15.2.rel1/arm-none-eabi/arm-none-eabi/include/c++/15.2.1/cmath **** #elif defined(__STDCPP_FLOAT128_T__) && defined(_GLIBCXX_HAVE_FLOAT128_MATH)
 877:/Applications/ArmGNUToolchain/15.2.rel1/arm-none-eabi/arm-none-eabi/include/c++/15.2.1/cmath ****   constexpr _Float128
 878:/Applications/ArmGNUToolchain/15.2.rel1/arm-none-eabi/arm-none-eabi/include/c++/15.2.1/cmath ****   acos(_Float128 __x)
 879:/Applications/ArmGNUToolchain/15.2.rel1/arm-none-eabi/arm-none-eabi/include/c++/15.2.1/cmath ****   { return __builtin_acosf128(__x); }
 880:/Applications/ArmGNUToolchain/15.2.rel1/arm-none-eabi/arm-none-eabi/include/c++/15.2.1/cmath **** 
 881:/Applications/ArmGNUToolchain/15.2.rel1/arm-none-eabi/arm-none-eabi/include/c++/15.2.1/cmath ****   constexpr _Float128
 882:/Applications/ArmGNUToolchain/15.2.rel1/arm-none-eabi/arm-none-eabi/include/c++/15.2.1/cmath ****   asin(_Float128 __x)
 883:/Applications/ArmGNUToolchain/15.2.rel1/arm-none-eabi/arm-none-eabi/include/c++/15.2.1/cmath ****   { return __builtin_asinf128(__x); }
 884:/Applications/ArmGNUToolchain/15.2.rel1/arm-none-eabi/arm-none-eabi/include/c++/15.2.1/cmath **** 
 885:/Applications/ArmGNUToolchain/15.2.rel1/arm-none-eabi/arm-none-eabi/include/c++/15.2.1/cmath ****   constexpr _Float128
 886:/Applications/ArmGNUToolchain/15.2.rel1/arm-none-eabi/arm-none-eabi/include/c++/15.2.1/cmath ****   atan(_Float128 __x)
 887:/Applications/ArmGNUToolchain/15.2.rel1/arm-none-eabi/arm-none-eabi/include/c++/15.2.1/cmath ****   { return __builtin_atanf128(__x); }
 888:/Applications/ArmGNUToolchain/15.2.rel1/arm-none-eabi/arm-none-eabi/include/c++/15.2.1/cmath **** 
 889:/Applications/ArmGNUToolchain/15.2.rel1/arm-none-eabi/arm-none-eabi/include/c++/15.2.1/cmath ****   constexpr _Float128
 890:/Applications/ArmGNUToolchain/15.2.rel1/arm-none-eabi/arm-none-eabi/include/c++/15.2.1/cmath ****   atan2(_Float128 __y, _Float128 __x)
 891:/Applications/ArmGNUToolchain/15.2.rel1/arm-none-eabi/arm-none-eabi/include/c++/15.2.1/cmath ****   { return __builtin_atan2f128(__y, __x); }
 892:/Applications/ArmGNUToolchain/15.2.rel1/arm-none-eabi/arm-none-eabi/include/c++/15.2.1/cmath **** 
 893:/Applications/ArmGNUToolchain/15.2.rel1/arm-none-eabi/arm-none-eabi/include/c++/15.2.1/cmath ****   constexpr _Float128
 894:/Applications/ArmGNUToolchain/15.2.rel1/arm-none-eabi/arm-none-eabi/include/c++/15.2.1/cmath ****   ceil(_Float128 __x)
 895:/Applications/ArmGNUToolchain/15.2.rel1/arm-none-eabi/arm-none-eabi/include/c++/15.2.1/cmath ****   { return __builtin_ceilf128(__x); }
 896:/Applications/ArmGNUToolchain/15.2.rel1/arm-none-eabi/arm-none-eabi/include/c++/15.2.1/cmath **** 
 897:/Applications/ArmGNUToolchain/15.2.rel1/arm-none-eabi/arm-none-eabi/include/c++/15.2.1/cmath ****   constexpr _Float128
 898:/Applications/ArmGNUToolchain/15.2.rel1/arm-none-eabi/arm-none-eabi/include/c++/15.2.1/cmath ****   cos(_Float128 __x)
 899:/Applications/ArmGNUToolchain/15.2.rel1/arm-none-eabi/arm-none-eabi/include/c++/15.2.1/cmath ****   { return __builtin_cosf128(__x); }
 900:/Applications/ArmGNUToolchain/15.2.rel1/arm-none-eabi/arm-none-eabi/include/c++/15.2.1/cmath **** 
 901:/Applications/ArmGNUToolchain/15.2.rel1/arm-none-eabi/arm-none-eabi/include/c++/15.2.1/cmath ****   constexpr _Float128
 902:/Applications/ArmGNUToolchain/15.2.rel1/arm-none-eabi/arm-none-eabi/include/c++/15.2.1/cmath ****   cosh(_Float128 __x)
 903:/Applications/ArmGNUToolchain/15.2.rel1/arm-none-eabi/arm-none-eabi/include/c++/15.2.1/cmath ****   { return __builtin_coshf128(__x); }
 904:/Applications/ArmGNUToolchain/15.2.rel1/arm-none-eabi/arm-none-eabi/include/c++/15.2.1/cmath **** 
 905:/Applications/ArmGNUToolchain/15.2.rel1/arm-none-eabi/arm-none-eabi/include/c++/15.2.1/cmath ****   constexpr _Float128
 906:/Applications/ArmGNUToolchain/15.2.rel1/arm-none-eabi/arm-none-eabi/include/c++/15.2.1/cmath ****   exp(_Float128 __x)
 907:/Applications/ArmGNUToolchain/15.2.rel1/arm-none-eabi/arm-none-eabi/include/c++/15.2.1/cmath ****   { return __builtin_expf128(__x); }
ARM GAS  /var/folders/7j/7n_15nxd0bx4q178nq7r8qsr0000gn/T//ccXsnuVa.s 			page 37


 908:/Applications/ArmGNUToolchain/15.2.rel1/arm-none-eabi/arm-none-eabi/include/c++/15.2.1/cmath **** 
 909:/Applications/ArmGNUToolchain/15.2.rel1/arm-none-eabi/arm-none-eabi/include/c++/15.2.1/cmath ****   constexpr _Float128
 910:/Applications/ArmGNUToolchain/15.2.rel1/arm-none-eabi/arm-none-eabi/include/c++/15.2.1/cmath ****   fabs(_Float128 __x)
 911:/Applications/ArmGNUToolchain/15.2.rel1/arm-none-eabi/arm-none-eabi/include/c++/15.2.1/cmath ****   { return __builtin_fabsf128(__x); }
 912:/Applications/ArmGNUToolchain/15.2.rel1/arm-none-eabi/arm-none-eabi/include/c++/15.2.1/cmath **** 
 913:/Applications/ArmGNUToolchain/15.2.rel1/arm-none-eabi/arm-none-eabi/include/c++/15.2.1/cmath ****   constexpr _Float128
 914:/Applications/ArmGNUToolchain/15.2.rel1/arm-none-eabi/arm-none-eabi/include/c++/15.2.1/cmath ****   floor(_Float128 __x)
 915:/Applications/ArmGNUToolchain/15.2.rel1/arm-none-eabi/arm-none-eabi/include/c++/15.2.1/cmath ****   { return __builtin_floorf128(__x); }
 916:/Applications/ArmGNUToolchain/15.2.rel1/arm-none-eabi/arm-none-eabi/include/c++/15.2.1/cmath **** 
 917:/Applications/ArmGNUToolchain/15.2.rel1/arm-none-eabi/arm-none-eabi/include/c++/15.2.1/cmath ****   constexpr _Float128
 918:/Applications/ArmGNUToolchain/15.2.rel1/arm-none-eabi/arm-none-eabi/include/c++/15.2.1/cmath ****   fmod(_Float128 __x, _Float128 __y)
 919:/Applications/ArmGNUToolchain/15.2.rel1/arm-none-eabi/arm-none-eabi/include/c++/15.2.1/cmath ****   { return __builtin_fmodf128(__x, __y); }
 920:/Applications/ArmGNUToolchain/15.2.rel1/arm-none-eabi/arm-none-eabi/include/c++/15.2.1/cmath **** 
 921:/Applications/ArmGNUToolchain/15.2.rel1/arm-none-eabi/arm-none-eabi/include/c++/15.2.1/cmath ****   inline _Float128
 922:/Applications/ArmGNUToolchain/15.2.rel1/arm-none-eabi/arm-none-eabi/include/c++/15.2.1/cmath ****   frexp(_Float128 __x, int* __exp)
 923:/Applications/ArmGNUToolchain/15.2.rel1/arm-none-eabi/arm-none-eabi/include/c++/15.2.1/cmath ****   { return __builtin_frexpf128(__x, __exp); }
 924:/Applications/ArmGNUToolchain/15.2.rel1/arm-none-eabi/arm-none-eabi/include/c++/15.2.1/cmath **** 
 925:/Applications/ArmGNUToolchain/15.2.rel1/arm-none-eabi/arm-none-eabi/include/c++/15.2.1/cmath ****   constexpr _Float128
 926:/Applications/ArmGNUToolchain/15.2.rel1/arm-none-eabi/arm-none-eabi/include/c++/15.2.1/cmath ****   ldexp(_Float128 __x, int __exp)
 927:/Applications/ArmGNUToolchain/15.2.rel1/arm-none-eabi/arm-none-eabi/include/c++/15.2.1/cmath ****   { return __builtin_ldexpf128(__x, __exp); }
 928:/Applications/ArmGNUToolchain/15.2.rel1/arm-none-eabi/arm-none-eabi/include/c++/15.2.1/cmath **** 
 929:/Applications/ArmGNUToolchain/15.2.rel1/arm-none-eabi/arm-none-eabi/include/c++/15.2.1/cmath ****   constexpr _Float128
 930:/Applications/ArmGNUToolchain/15.2.rel1/arm-none-eabi/arm-none-eabi/include/c++/15.2.1/cmath ****   log(_Float128 __x)
 931:/Applications/ArmGNUToolchain/15.2.rel1/arm-none-eabi/arm-none-eabi/include/c++/15.2.1/cmath ****   { return __builtin_logf128(__x); }
 932:/Applications/ArmGNUToolchain/15.2.rel1/arm-none-eabi/arm-none-eabi/include/c++/15.2.1/cmath **** 
 933:/Applications/ArmGNUToolchain/15.2.rel1/arm-none-eabi/arm-none-eabi/include/c++/15.2.1/cmath ****   constexpr _Float128
 934:/Applications/ArmGNUToolchain/15.2.rel1/arm-none-eabi/arm-none-eabi/include/c++/15.2.1/cmath ****   log10(_Float128 __x)
 935:/Applications/ArmGNUToolchain/15.2.rel1/arm-none-eabi/arm-none-eabi/include/c++/15.2.1/cmath ****   { return __builtin_log10f128(__x); }
 936:/Applications/ArmGNUToolchain/15.2.rel1/arm-none-eabi/arm-none-eabi/include/c++/15.2.1/cmath **** 
 937:/Applications/ArmGNUToolchain/15.2.rel1/arm-none-eabi/arm-none-eabi/include/c++/15.2.1/cmath ****   inline _Float128
 938:/Applications/ArmGNUToolchain/15.2.rel1/arm-none-eabi/arm-none-eabi/include/c++/15.2.1/cmath ****   modf(_Float128 __x, _Float128* __iptr)
 939:/Applications/ArmGNUToolchain/15.2.rel1/arm-none-eabi/arm-none-eabi/include/c++/15.2.1/cmath ****   { return __builtin_modff128(__x, __iptr); }
 940:/Applications/ArmGNUToolchain/15.2.rel1/arm-none-eabi/arm-none-eabi/include/c++/15.2.1/cmath **** 
 941:/Applications/ArmGNUToolchain/15.2.rel1/arm-none-eabi/arm-none-eabi/include/c++/15.2.1/cmath ****   constexpr _Float128
 942:/Applications/ArmGNUToolchain/15.2.rel1/arm-none-eabi/arm-none-eabi/include/c++/15.2.1/cmath ****   pow(_Float128 __x, _Float128 __y)
 943:/Applications/ArmGNUToolchain/15.2.rel1/arm-none-eabi/arm-none-eabi/include/c++/15.2.1/cmath ****   { return __builtin_powf128(__x, __y); }
 944:/Applications/ArmGNUToolchain/15.2.rel1/arm-none-eabi/arm-none-eabi/include/c++/15.2.1/cmath **** 
 945:/Applications/ArmGNUToolchain/15.2.rel1/arm-none-eabi/arm-none-eabi/include/c++/15.2.1/cmath ****   constexpr _Float128
 946:/Applications/ArmGNUToolchain/15.2.rel1/arm-none-eabi/arm-none-eabi/include/c++/15.2.1/cmath ****   sin(_Float128 __x)
 947:/Applications/ArmGNUToolchain/15.2.rel1/arm-none-eabi/arm-none-eabi/include/c++/15.2.1/cmath ****   { return __builtin_sinf128(__x); }
 948:/Applications/ArmGNUToolchain/15.2.rel1/arm-none-eabi/arm-none-eabi/include/c++/15.2.1/cmath **** 
 949:/Applications/ArmGNUToolchain/15.2.rel1/arm-none-eabi/arm-none-eabi/include/c++/15.2.1/cmath ****   constexpr _Float128
 950:/Applications/ArmGNUToolchain/15.2.rel1/arm-none-eabi/arm-none-eabi/include/c++/15.2.1/cmath ****   sinh(_Float128 __x)
 951:/Applications/ArmGNUToolchain/15.2.rel1/arm-none-eabi/arm-none-eabi/include/c++/15.2.1/cmath ****   { return __builtin_sinhf128(__x); }
 952:/Applications/ArmGNUToolchain/15.2.rel1/arm-none-eabi/arm-none-eabi/include/c++/15.2.1/cmath **** 
 953:/Applications/ArmGNUToolchain/15.2.rel1/arm-none-eabi/arm-none-eabi/include/c++/15.2.1/cmath ****   constexpr _Float128
 954:/Applications/ArmGNUToolchain/15.2.rel1/arm-none-eabi/arm-none-eabi/include/c++/15.2.1/cmath ****   sqrt(_Float128 __x)
 955:/Applications/ArmGNUToolchain/15.2.rel1/arm-none-eabi/arm-none-eabi/include/c++/15.2.1/cmath ****   { return __builtin_sqrtf128(__x); }
 956:/Applications/ArmGNUToolchain/15.2.rel1/arm-none-eabi/arm-none-eabi/include/c++/15.2.1/cmath **** 
 957:/Applications/ArmGNUToolchain/15.2.rel1/arm-none-eabi/arm-none-eabi/include/c++/15.2.1/cmath ****   constexpr _Float128
 958:/Applications/ArmGNUToolchain/15.2.rel1/arm-none-eabi/arm-none-eabi/include/c++/15.2.1/cmath ****   tan(_Float128 __x)
 959:/Applications/ArmGNUToolchain/15.2.rel1/arm-none-eabi/arm-none-eabi/include/c++/15.2.1/cmath ****   { return __builtin_tanf128(__x); }
 960:/Applications/ArmGNUToolchain/15.2.rel1/arm-none-eabi/arm-none-eabi/include/c++/15.2.1/cmath **** 
 961:/Applications/ArmGNUToolchain/15.2.rel1/arm-none-eabi/arm-none-eabi/include/c++/15.2.1/cmath ****   constexpr _Float128
 962:/Applications/ArmGNUToolchain/15.2.rel1/arm-none-eabi/arm-none-eabi/include/c++/15.2.1/cmath ****   tanh(_Float128 __x)
 963:/Applications/ArmGNUToolchain/15.2.rel1/arm-none-eabi/arm-none-eabi/include/c++/15.2.1/cmath ****   { return __builtin_tanhf128(__x); }
 964:/Applications/ArmGNUToolchain/15.2.rel1/arm-none-eabi/arm-none-eabi/include/c++/15.2.1/cmath **** #endif
ARM GAS  /var/folders/7j/7n_15nxd0bx4q178nq7r8qsr0000gn/T//ccXsnuVa.s 			page 38


 965:/Applications/ArmGNUToolchain/15.2.rel1/arm-none-eabi/arm-none-eabi/include/c++/15.2.1/cmath **** 
 966:/Applications/ArmGNUToolchain/15.2.rel1/arm-none-eabi/arm-none-eabi/include/c++/15.2.1/cmath **** #if defined(__STDCPP_BFLOAT16_T__) && defined(_GLIBCXX_FLOAT_IS_IEEE_BINARY32)
 967:/Applications/ArmGNUToolchain/15.2.rel1/arm-none-eabi/arm-none-eabi/include/c++/15.2.1/cmath ****   constexpr __gnu_cxx::__bfloat16_t
 968:/Applications/ArmGNUToolchain/15.2.rel1/arm-none-eabi/arm-none-eabi/include/c++/15.2.1/cmath ****   acos(__gnu_cxx::__bfloat16_t __x)
 969:/Applications/ArmGNUToolchain/15.2.rel1/arm-none-eabi/arm-none-eabi/include/c++/15.2.1/cmath ****   { return __gnu_cxx::__bfloat16_t(__builtin_acosf(__x)); }
 970:/Applications/ArmGNUToolchain/15.2.rel1/arm-none-eabi/arm-none-eabi/include/c++/15.2.1/cmath **** 
 971:/Applications/ArmGNUToolchain/15.2.rel1/arm-none-eabi/arm-none-eabi/include/c++/15.2.1/cmath ****   constexpr __gnu_cxx::__bfloat16_t
 972:/Applications/ArmGNUToolchain/15.2.rel1/arm-none-eabi/arm-none-eabi/include/c++/15.2.1/cmath ****   asin(__gnu_cxx::__bfloat16_t __x)
 973:/Applications/ArmGNUToolchain/15.2.rel1/arm-none-eabi/arm-none-eabi/include/c++/15.2.1/cmath ****   { return __gnu_cxx::__bfloat16_t(__builtin_asinf(__x)); }
 974:/Applications/ArmGNUToolchain/15.2.rel1/arm-none-eabi/arm-none-eabi/include/c++/15.2.1/cmath **** 
 975:/Applications/ArmGNUToolchain/15.2.rel1/arm-none-eabi/arm-none-eabi/include/c++/15.2.1/cmath ****   constexpr __gnu_cxx::__bfloat16_t
 976:/Applications/ArmGNUToolchain/15.2.rel1/arm-none-eabi/arm-none-eabi/include/c++/15.2.1/cmath ****   atan(__gnu_cxx::__bfloat16_t __x)
 977:/Applications/ArmGNUToolchain/15.2.rel1/arm-none-eabi/arm-none-eabi/include/c++/15.2.1/cmath ****   { return __gnu_cxx::__bfloat16_t(__builtin_atanf(__x)); }
 978:/Applications/ArmGNUToolchain/15.2.rel1/arm-none-eabi/arm-none-eabi/include/c++/15.2.1/cmath **** 
 979:/Applications/ArmGNUToolchain/15.2.rel1/arm-none-eabi/arm-none-eabi/include/c++/15.2.1/cmath ****   constexpr __gnu_cxx::__bfloat16_t
 980:/Applications/ArmGNUToolchain/15.2.rel1/arm-none-eabi/arm-none-eabi/include/c++/15.2.1/cmath ****   atan2(__gnu_cxx::__bfloat16_t __y, __gnu_cxx::__bfloat16_t __x)
 981:/Applications/ArmGNUToolchain/15.2.rel1/arm-none-eabi/arm-none-eabi/include/c++/15.2.1/cmath ****   { return __gnu_cxx::__bfloat16_t(__builtin_atan2f(__y, __x)); }
 982:/Applications/ArmGNUToolchain/15.2.rel1/arm-none-eabi/arm-none-eabi/include/c++/15.2.1/cmath **** 
 983:/Applications/ArmGNUToolchain/15.2.rel1/arm-none-eabi/arm-none-eabi/include/c++/15.2.1/cmath ****   constexpr __gnu_cxx::__bfloat16_t
 984:/Applications/ArmGNUToolchain/15.2.rel1/arm-none-eabi/arm-none-eabi/include/c++/15.2.1/cmath ****   ceil(__gnu_cxx::__bfloat16_t __x)
 985:/Applications/ArmGNUToolchain/15.2.rel1/arm-none-eabi/arm-none-eabi/include/c++/15.2.1/cmath ****   { return __gnu_cxx::__bfloat16_t(__builtin_ceilf(__x)); }
 986:/Applications/ArmGNUToolchain/15.2.rel1/arm-none-eabi/arm-none-eabi/include/c++/15.2.1/cmath **** 
 987:/Applications/ArmGNUToolchain/15.2.rel1/arm-none-eabi/arm-none-eabi/include/c++/15.2.1/cmath ****   constexpr __gnu_cxx::__bfloat16_t
 988:/Applications/ArmGNUToolchain/15.2.rel1/arm-none-eabi/arm-none-eabi/include/c++/15.2.1/cmath ****   cos(__gnu_cxx::__bfloat16_t __x)
 989:/Applications/ArmGNUToolchain/15.2.rel1/arm-none-eabi/arm-none-eabi/include/c++/15.2.1/cmath ****   { return __gnu_cxx::__bfloat16_t(__builtin_cosf(__x)); }
 990:/Applications/ArmGNUToolchain/15.2.rel1/arm-none-eabi/arm-none-eabi/include/c++/15.2.1/cmath **** 
 991:/Applications/ArmGNUToolchain/15.2.rel1/arm-none-eabi/arm-none-eabi/include/c++/15.2.1/cmath ****   constexpr __gnu_cxx::__bfloat16_t
 992:/Applications/ArmGNUToolchain/15.2.rel1/arm-none-eabi/arm-none-eabi/include/c++/15.2.1/cmath ****   cosh(__gnu_cxx::__bfloat16_t __x)
 993:/Applications/ArmGNUToolchain/15.2.rel1/arm-none-eabi/arm-none-eabi/include/c++/15.2.1/cmath ****   { return __gnu_cxx::__bfloat16_t(__builtin_coshf(__x)); }
 994:/Applications/ArmGNUToolchain/15.2.rel1/arm-none-eabi/arm-none-eabi/include/c++/15.2.1/cmath **** 
 995:/Applications/ArmGNUToolchain/15.2.rel1/arm-none-eabi/arm-none-eabi/include/c++/15.2.1/cmath ****   constexpr __gnu_cxx::__bfloat16_t
 996:/Applications/ArmGNUToolchain/15.2.rel1/arm-none-eabi/arm-none-eabi/include/c++/15.2.1/cmath ****   exp(__gnu_cxx::__bfloat16_t __x)
 997:/Applications/ArmGNUToolchain/15.2.rel1/arm-none-eabi/arm-none-eabi/include/c++/15.2.1/cmath ****   { return __gnu_cxx::__bfloat16_t(__builtin_expf(__x)); }
 998:/Applications/ArmGNUToolchain/15.2.rel1/arm-none-eabi/arm-none-eabi/include/c++/15.2.1/cmath **** 
 999:/Applications/ArmGNUToolchain/15.2.rel1/arm-none-eabi/arm-none-eabi/include/c++/15.2.1/cmath ****   constexpr __gnu_cxx::__bfloat16_t
1000:/Applications/ArmGNUToolchain/15.2.rel1/arm-none-eabi/arm-none-eabi/include/c++/15.2.1/cmath ****   fabs(__gnu_cxx::__bfloat16_t __x)
1001:/Applications/ArmGNUToolchain/15.2.rel1/arm-none-eabi/arm-none-eabi/include/c++/15.2.1/cmath ****   { return __gnu_cxx::__bfloat16_t(__builtin_fabsf(__x)); }
1002:/Applications/ArmGNUToolchain/15.2.rel1/arm-none-eabi/arm-none-eabi/include/c++/15.2.1/cmath **** 
1003:/Applications/ArmGNUToolchain/15.2.rel1/arm-none-eabi/arm-none-eabi/include/c++/15.2.1/cmath ****   constexpr __gnu_cxx::__bfloat16_t
1004:/Applications/ArmGNUToolchain/15.2.rel1/arm-none-eabi/arm-none-eabi/include/c++/15.2.1/cmath ****   floor(__gnu_cxx::__bfloat16_t __x)
1005:/Applications/ArmGNUToolchain/15.2.rel1/arm-none-eabi/arm-none-eabi/include/c++/15.2.1/cmath ****   { return __gnu_cxx::__bfloat16_t(__builtin_floorf(__x)); }
1006:/Applications/ArmGNUToolchain/15.2.rel1/arm-none-eabi/arm-none-eabi/include/c++/15.2.1/cmath **** 
1007:/Applications/ArmGNUToolchain/15.2.rel1/arm-none-eabi/arm-none-eabi/include/c++/15.2.1/cmath ****   constexpr __gnu_cxx::__bfloat16_t
1008:/Applications/ArmGNUToolchain/15.2.rel1/arm-none-eabi/arm-none-eabi/include/c++/15.2.1/cmath ****   fmod(__gnu_cxx::__bfloat16_t __x, __gnu_cxx::__bfloat16_t __y)
1009:/Applications/ArmGNUToolchain/15.2.rel1/arm-none-eabi/arm-none-eabi/include/c++/15.2.1/cmath ****   { return __gnu_cxx::__bfloat16_t(__builtin_fmodf(__x, __y)); }
1010:/Applications/ArmGNUToolchain/15.2.rel1/arm-none-eabi/arm-none-eabi/include/c++/15.2.1/cmath **** 
1011:/Applications/ArmGNUToolchain/15.2.rel1/arm-none-eabi/arm-none-eabi/include/c++/15.2.1/cmath ****   inline __gnu_cxx::__bfloat16_t
1012:/Applications/ArmGNUToolchain/15.2.rel1/arm-none-eabi/arm-none-eabi/include/c++/15.2.1/cmath ****   frexp(__gnu_cxx::__bfloat16_t __x, int* __exp)
1013:/Applications/ArmGNUToolchain/15.2.rel1/arm-none-eabi/arm-none-eabi/include/c++/15.2.1/cmath ****   { return __gnu_cxx::__bfloat16_t(__builtin_frexpf(__x, __exp)); }
1014:/Applications/ArmGNUToolchain/15.2.rel1/arm-none-eabi/arm-none-eabi/include/c++/15.2.1/cmath **** 
1015:/Applications/ArmGNUToolchain/15.2.rel1/arm-none-eabi/arm-none-eabi/include/c++/15.2.1/cmath ****   constexpr __gnu_cxx::__bfloat16_t
1016:/Applications/ArmGNUToolchain/15.2.rel1/arm-none-eabi/arm-none-eabi/include/c++/15.2.1/cmath ****   ldexp(__gnu_cxx::__bfloat16_t __x, int __exp)
1017:/Applications/ArmGNUToolchain/15.2.rel1/arm-none-eabi/arm-none-eabi/include/c++/15.2.1/cmath ****   { return __gnu_cxx::__bfloat16_t(__builtin_ldexpf(__x, __exp)); }
1018:/Applications/ArmGNUToolchain/15.2.rel1/arm-none-eabi/arm-none-eabi/include/c++/15.2.1/cmath **** 
1019:/Applications/ArmGNUToolchain/15.2.rel1/arm-none-eabi/arm-none-eabi/include/c++/15.2.1/cmath ****   constexpr __gnu_cxx::__bfloat16_t
1020:/Applications/ArmGNUToolchain/15.2.rel1/arm-none-eabi/arm-none-eabi/include/c++/15.2.1/cmath ****   log(__gnu_cxx::__bfloat16_t __x)
1021:/Applications/ArmGNUToolchain/15.2.rel1/arm-none-eabi/arm-none-eabi/include/c++/15.2.1/cmath ****   { return __gnu_cxx::__bfloat16_t(__builtin_logf(__x)); }
ARM GAS  /var/folders/7j/7n_15nxd0bx4q178nq7r8qsr0000gn/T//ccXsnuVa.s 			page 39


1022:/Applications/ArmGNUToolchain/15.2.rel1/arm-none-eabi/arm-none-eabi/include/c++/15.2.1/cmath **** 
1023:/Applications/ArmGNUToolchain/15.2.rel1/arm-none-eabi/arm-none-eabi/include/c++/15.2.1/cmath ****   constexpr __gnu_cxx::__bfloat16_t
1024:/Applications/ArmGNUToolchain/15.2.rel1/arm-none-eabi/arm-none-eabi/include/c++/15.2.1/cmath ****   log10(__gnu_cxx::__bfloat16_t __x)
1025:/Applications/ArmGNUToolchain/15.2.rel1/arm-none-eabi/arm-none-eabi/include/c++/15.2.1/cmath ****   { return __gnu_cxx::__bfloat16_t(__builtin_log10f(__x)); }
1026:/Applications/ArmGNUToolchain/15.2.rel1/arm-none-eabi/arm-none-eabi/include/c++/15.2.1/cmath **** 
1027:/Applications/ArmGNUToolchain/15.2.rel1/arm-none-eabi/arm-none-eabi/include/c++/15.2.1/cmath ****   inline __gnu_cxx::__bfloat16_t
1028:/Applications/ArmGNUToolchain/15.2.rel1/arm-none-eabi/arm-none-eabi/include/c++/15.2.1/cmath ****   modf(__gnu_cxx::__bfloat16_t __x, __gnu_cxx::__bfloat16_t* __iptr)
1029:/Applications/ArmGNUToolchain/15.2.rel1/arm-none-eabi/arm-none-eabi/include/c++/15.2.1/cmath ****   {
1030:/Applications/ArmGNUToolchain/15.2.rel1/arm-none-eabi/arm-none-eabi/include/c++/15.2.1/cmath ****     float __i, __ret = __builtin_modff(__x, &__i);
1031:/Applications/ArmGNUToolchain/15.2.rel1/arm-none-eabi/arm-none-eabi/include/c++/15.2.1/cmath ****     *__iptr = __gnu_cxx::__bfloat16_t(__i);
1032:/Applications/ArmGNUToolchain/15.2.rel1/arm-none-eabi/arm-none-eabi/include/c++/15.2.1/cmath ****     return __gnu_cxx::__bfloat16_t(__ret);
1033:/Applications/ArmGNUToolchain/15.2.rel1/arm-none-eabi/arm-none-eabi/include/c++/15.2.1/cmath ****   }
1034:/Applications/ArmGNUToolchain/15.2.rel1/arm-none-eabi/arm-none-eabi/include/c++/15.2.1/cmath **** 
1035:/Applications/ArmGNUToolchain/15.2.rel1/arm-none-eabi/arm-none-eabi/include/c++/15.2.1/cmath ****   constexpr __gnu_cxx::__bfloat16_t
1036:/Applications/ArmGNUToolchain/15.2.rel1/arm-none-eabi/arm-none-eabi/include/c++/15.2.1/cmath ****   pow(__gnu_cxx::__bfloat16_t __x, __gnu_cxx::__bfloat16_t __y)
1037:/Applications/ArmGNUToolchain/15.2.rel1/arm-none-eabi/arm-none-eabi/include/c++/15.2.1/cmath ****   { return __gnu_cxx::__bfloat16_t(__builtin_powf(__x, __y)); }
1038:/Applications/ArmGNUToolchain/15.2.rel1/arm-none-eabi/arm-none-eabi/include/c++/15.2.1/cmath **** 
1039:/Applications/ArmGNUToolchain/15.2.rel1/arm-none-eabi/arm-none-eabi/include/c++/15.2.1/cmath ****   constexpr __gnu_cxx::__bfloat16_t
1040:/Applications/ArmGNUToolchain/15.2.rel1/arm-none-eabi/arm-none-eabi/include/c++/15.2.1/cmath ****   sin(__gnu_cxx::__bfloat16_t __x)
1041:/Applications/ArmGNUToolchain/15.2.rel1/arm-none-eabi/arm-none-eabi/include/c++/15.2.1/cmath ****   { return __gnu_cxx::__bfloat16_t(__builtin_sinf(__x)); }
1042:/Applications/ArmGNUToolchain/15.2.rel1/arm-none-eabi/arm-none-eabi/include/c++/15.2.1/cmath **** 
1043:/Applications/ArmGNUToolchain/15.2.rel1/arm-none-eabi/arm-none-eabi/include/c++/15.2.1/cmath ****   constexpr __gnu_cxx::__bfloat16_t
1044:/Applications/ArmGNUToolchain/15.2.rel1/arm-none-eabi/arm-none-eabi/include/c++/15.2.1/cmath ****   sinh(__gnu_cxx::__bfloat16_t __x)
1045:/Applications/ArmGNUToolchain/15.2.rel1/arm-none-eabi/arm-none-eabi/include/c++/15.2.1/cmath ****   { return __gnu_cxx::__bfloat16_t(__builtin_sinhf(__x)); }
1046:/Applications/ArmGNUToolchain/15.2.rel1/arm-none-eabi/arm-none-eabi/include/c++/15.2.1/cmath **** 
1047:/Applications/ArmGNUToolchain/15.2.rel1/arm-none-eabi/arm-none-eabi/include/c++/15.2.1/cmath ****   constexpr __gnu_cxx::__bfloat16_t
1048:/Applications/ArmGNUToolchain/15.2.rel1/arm-none-eabi/arm-none-eabi/include/c++/15.2.1/cmath ****   sqrt(__gnu_cxx::__bfloat16_t __x)
1049:/Applications/ArmGNUToolchain/15.2.rel1/arm-none-eabi/arm-none-eabi/include/c++/15.2.1/cmath ****   { return __gnu_cxx::__bfloat16_t(__builtin_sqrtf(__x)); }
1050:/Applications/ArmGNUToolchain/15.2.rel1/arm-none-eabi/arm-none-eabi/include/c++/15.2.1/cmath **** 
1051:/Applications/ArmGNUToolchain/15.2.rel1/arm-none-eabi/arm-none-eabi/include/c++/15.2.1/cmath ****   constexpr __gnu_cxx::__bfloat16_t
1052:/Applications/ArmGNUToolchain/15.2.rel1/arm-none-eabi/arm-none-eabi/include/c++/15.2.1/cmath ****   tan(__gnu_cxx::__bfloat16_t __x)
1053:/Applications/ArmGNUToolchain/15.2.rel1/arm-none-eabi/arm-none-eabi/include/c++/15.2.1/cmath ****   { return __gnu_cxx::__bfloat16_t(__builtin_tanf(__x)); }
1054:/Applications/ArmGNUToolchain/15.2.rel1/arm-none-eabi/arm-none-eabi/include/c++/15.2.1/cmath **** 
1055:/Applications/ArmGNUToolchain/15.2.rel1/arm-none-eabi/arm-none-eabi/include/c++/15.2.1/cmath ****   constexpr __gnu_cxx::__bfloat16_t
1056:/Applications/ArmGNUToolchain/15.2.rel1/arm-none-eabi/arm-none-eabi/include/c++/15.2.1/cmath ****   tanh(__gnu_cxx::__bfloat16_t __x)
1057:/Applications/ArmGNUToolchain/15.2.rel1/arm-none-eabi/arm-none-eabi/include/c++/15.2.1/cmath ****   { return __gnu_cxx::__bfloat16_t(__builtin_tanhf(__x)); }
1058:/Applications/ArmGNUToolchain/15.2.rel1/arm-none-eabi/arm-none-eabi/include/c++/15.2.1/cmath **** #endif
1059:/Applications/ArmGNUToolchain/15.2.rel1/arm-none-eabi/arm-none-eabi/include/c++/15.2.1/cmath **** 
1060:/Applications/ArmGNUToolchain/15.2.rel1/arm-none-eabi/arm-none-eabi/include/c++/15.2.1/cmath ****   template<typename _Tp, typename _Up>
1061:/Applications/ArmGNUToolchain/15.2.rel1/arm-none-eabi/arm-none-eabi/include/c++/15.2.1/cmath ****     inline _GLIBCXX_CONSTEXPR
1062:/Applications/ArmGNUToolchain/15.2.rel1/arm-none-eabi/arm-none-eabi/include/c++/15.2.1/cmath ****     typename __gnu_cxx::__promote_2<_Tp, _Up>::__type
1063:/Applications/ArmGNUToolchain/15.2.rel1/arm-none-eabi/arm-none-eabi/include/c++/15.2.1/cmath ****     atan2(_Tp __y, _Up __x)
1064:/Applications/ArmGNUToolchain/15.2.rel1/arm-none-eabi/arm-none-eabi/include/c++/15.2.1/cmath ****     {
1065:/Applications/ArmGNUToolchain/15.2.rel1/arm-none-eabi/arm-none-eabi/include/c++/15.2.1/cmath ****       typedef typename __gnu_cxx::__promote_2<_Tp, _Up>::__type __type;
1066:/Applications/ArmGNUToolchain/15.2.rel1/arm-none-eabi/arm-none-eabi/include/c++/15.2.1/cmath ****       return atan2(__type(__y), __type(__x));
1067:/Applications/ArmGNUToolchain/15.2.rel1/arm-none-eabi/arm-none-eabi/include/c++/15.2.1/cmath ****     }
1068:/Applications/ArmGNUToolchain/15.2.rel1/arm-none-eabi/arm-none-eabi/include/c++/15.2.1/cmath **** 
1069:/Applications/ArmGNUToolchain/15.2.rel1/arm-none-eabi/arm-none-eabi/include/c++/15.2.1/cmath ****   template<typename _Tp, typename _Up>
1070:/Applications/ArmGNUToolchain/15.2.rel1/arm-none-eabi/arm-none-eabi/include/c++/15.2.1/cmath ****     inline _GLIBCXX_CONSTEXPR
1071:/Applications/ArmGNUToolchain/15.2.rel1/arm-none-eabi/arm-none-eabi/include/c++/15.2.1/cmath ****     typename __gnu_cxx::__promote_2<_Tp, _Up>::__type
1072:/Applications/ArmGNUToolchain/15.2.rel1/arm-none-eabi/arm-none-eabi/include/c++/15.2.1/cmath ****     fmod(_Tp __x, _Up __y)
1073:/Applications/ArmGNUToolchain/15.2.rel1/arm-none-eabi/arm-none-eabi/include/c++/15.2.1/cmath ****     {
1074:/Applications/ArmGNUToolchain/15.2.rel1/arm-none-eabi/arm-none-eabi/include/c++/15.2.1/cmath ****       typedef typename __gnu_cxx::__promote_2<_Tp, _Up>::__type __type;
1075:/Applications/ArmGNUToolchain/15.2.rel1/arm-none-eabi/arm-none-eabi/include/c++/15.2.1/cmath ****       return fmod(__type(__x), __type(__y));
1076:/Applications/ArmGNUToolchain/15.2.rel1/arm-none-eabi/arm-none-eabi/include/c++/15.2.1/cmath ****     }
1077:/Applications/ArmGNUToolchain/15.2.rel1/arm-none-eabi/arm-none-eabi/include/c++/15.2.1/cmath **** 
1078:/Applications/ArmGNUToolchain/15.2.rel1/arm-none-eabi/arm-none-eabi/include/c++/15.2.1/cmath ****   template<typename _Tp, typename _Up>
ARM GAS  /var/folders/7j/7n_15nxd0bx4q178nq7r8qsr0000gn/T//ccXsnuVa.s 			page 40


1079:/Applications/ArmGNUToolchain/15.2.rel1/arm-none-eabi/arm-none-eabi/include/c++/15.2.1/cmath ****     inline _GLIBCXX_CONSTEXPR
1080:/Applications/ArmGNUToolchain/15.2.rel1/arm-none-eabi/arm-none-eabi/include/c++/15.2.1/cmath ****     typename __gnu_cxx::__promote_2<_Tp, _Up>::__type
1081:/Applications/ArmGNUToolchain/15.2.rel1/arm-none-eabi/arm-none-eabi/include/c++/15.2.1/cmath ****     pow(_Tp __x, _Up __y)
 632              		.loc 4 1081 5 view .LVU175
 633              	.LBB32:
1082:/Applications/ArmGNUToolchain/15.2.rel1/arm-none-eabi/arm-none-eabi/include/c++/15.2.1/cmath ****     {
1083:/Applications/ArmGNUToolchain/15.2.rel1/arm-none-eabi/arm-none-eabi/include/c++/15.2.1/cmath ****       typedef typename __gnu_cxx::__promote_2<_Tp, _Up>::__type __type;
1084:/Applications/ArmGNUToolchain/15.2.rel1/arm-none-eabi/arm-none-eabi/include/c++/15.2.1/cmath ****       return pow(__type(__x), __type(__y));
 634              		.loc 4 1084 17 is_stmt 0 view .LVU176
 635 009c 07EE904A 		vmov	s15, r4	@ int
 636 00a0 B0EE000B 		vmov.f64	d0, #2.0e+0
 637              	.LBE32:
 638              	.LBE31:
 171:open303/Source/DSPCode/rosic_MipMappedWaveTable.cpp ****     highBin = (int) (tableLength / pow(2.0, t-1)); // the bin up to which the
 639              		.loc 1 171 34 discriminator 1 view .LVU177
 640 00a4 9FED349B 		vldr.64	d9, .L45+8
 641              	.LBB34:
 642              	.LBB33:
 643              		.loc 4 1084 17 view .LVU178
 644 00a8 B8EEE71B 		vcvt.f64.s32	d1, s15
 645 00ac FFF7FEFF 		bl	pow
 646              	.LVL44:
 647              		.loc 4 1084 17 view .LVU179
 648              	.LBE33:
 649              	.LBE34:
 172:open303/Source/DSPCode/rosic_MipMappedWaveTable.cpp ****     // spectrum is currently still nonzero
 650              		.loc 1 172 39 view .LVU180
 651 00b0 631E     		subs	r3, r4, #1
 171:open303/Source/DSPCode/rosic_MipMappedWaveTable.cpp ****     highBin = (int) (tableLength / pow(2.0, t-1)); // the bin up to which the
 652              		.loc 1 171 34 discriminator 1 view .LVU181
 653 00b2 89EE007B 		vdiv.f64	d7, d9, d0
 172:open303/Source/DSPCode/rosic_MipMappedWaveTable.cpp ****     // spectrum is currently still nonzero
 654              		.loc 1 172 39 view .LVU182
 655 00b6 01EE103A 		vmov	s2, r3	@ int
 656              	.LBB35:
 657              	.LBB36:
 658              		.loc 4 1084 17 view .LVU183
 659 00ba B0EE000B 		vmov.f64	d0, #2.0e+0
 660 00be B8EEC11B 		vcvt.f64.s32	d1, s2
 661              	.LBE36:
 662              	.LBE35:
 171:open303/Source/DSPCode/rosic_MipMappedWaveTable.cpp ****     highBin = (int) (tableLength / pow(2.0, t-1)); // the bin up to which the
 663              		.loc 1 171 13 discriminator 1 view .LVU184
 664 00c2 FDEEC77B 		vcvt.s32.f64	s15, d7
 665 00c6 17EE90AA 		vmov	r10, s15	@ int
 666              	.LVL45:
 172:open303/Source/DSPCode/rosic_MipMappedWaveTable.cpp ****     // spectrum is currently still nonzero
 667              		.loc 1 172 5 is_stmt 1 view .LVU185
 668              	.LBB38:
 669              	.LBI35:
1081:/Applications/ArmGNUToolchain/15.2.rel1/arm-none-eabi/arm-none-eabi/include/c++/15.2.1/cmath ****     {
 670              		.loc 4 1081 5 view .LVU186
 671              	.LBB37:
 672              		.loc 4 1084 17 is_stmt 0 view .LVU187
 673 00ca FFF7FEFF 		bl	pow
 674              	.LVL46:
 675              		.loc 4 1084 17 view .LVU188
ARM GAS  /var/folders/7j/7n_15nxd0bx4q178nq7r8qsr0000gn/T//ccXsnuVa.s 			page 41


 676              	.LBE37:
 677              	.LBE38:
 172:open303/Source/DSPCode/rosic_MipMappedWaveTable.cpp ****     // spectrum is currently still nonzero
 678              		.loc 1 172 34 discriminator 1 view .LVU189
 679 00ce 89EE007B 		vdiv.f64	d7, d9, d0
 176:open303/Source/DSPCode/rosic_MipMappedWaveTable.cpp ****       spectrum[i] = 0.0;
 680              		.loc 1 176 5 view .LVU190
 681 00d2 0021     		movs	r1, #0
 682 00d4 08EBCA00 		add	r0, r8, r10, lsl #3
 683 00d8 5346     		mov	r3, r10
 176:open303/Source/DSPCode/rosic_MipMappedWaveTable.cpp ****       spectrum[i] = 0.0;
 684              		.loc 1 176 10 view .LVU191
 685 00da C7F800A0 		str	r10, [r7]
 172:open303/Source/DSPCode/rosic_MipMappedWaveTable.cpp ****     // spectrum is currently still nonzero
 686              		.loc 1 172 13 discriminator 1 view .LVU192
 687 00de FDEEC77B 		vcvt.s32.f64	s15, d7
 688 00e2 17EE902A 		vmov	r2, s15	@ int
 689              	.LVL47:
 176:open303/Source/DSPCode/rosic_MipMappedWaveTable.cpp ****       spectrum[i] = 0.0;
 690              		.loc 1 176 5 is_stmt 1 view .LVU193
 691              	.L35:
 176:open303/Source/DSPCode/rosic_MipMappedWaveTable.cpp ****       spectrum[i] = 0.0;
 692              		.loc 1 176 20 discriminator 1 view .LVU194
 693 00e6 9A42     		cmp	r2, r3
 694 00e8 3CDC     		bgt	.L36
 695 00ea 31B1     		cbz	r1, .L37
 696 00ec A2EB0A03 		sub	r3, r2, r10
 697 00f0 9245     		cmp	r10, r2
 698 00f2 C8BF     		it	gt
 699 00f4 0023     		movgt	r3, #0
 700 00f6 5344     		add	r3, r3, r10
 701 00f8 3B60     		str	r3, [r7]
 702              	.L37:
 181:open303/Source/DSPCode/rosic_MipMappedWaveTable.cpp **** 
 703              		.loc 1 181 5 view .LVU195
 181:open303/Source/DSPCode/rosic_MipMappedWaveTable.cpp **** 
 704              		.loc 1 181 71 is_stmt 0 view .LVU196
 705 00fa 42F2200A 		movw	r10, #8224
 706              	.LVL48:
 181:open303/Source/DSPCode/rosic_MipMappedWaveTable.cpp **** 
 707              		.loc 1 181 71 view .LVU197
 708 00fe 42F2180B 		movw	fp, #8216
 181:open303/Source/DSPCode/rosic_MipMappedWaveTable.cpp **** 
 709              		.loc 1 181 50 view .LVU198
 710 0102 05F5D030 		add	r0, r5, #106496
 711 0106 1F49     		ldr	r1, .L45+20
 181:open303/Source/DSPCode/rosic_MipMappedWaveTable.cpp **** 
 712              		.loc 1 181 71 view .LVU199
 713 0108 0AFB04B2 		mla	r2, r10, r4, fp
 714              	.LVL49:
 181:open303/Source/DSPCode/rosic_MipMappedWaveTable.cpp **** 
 715              		.loc 1 181 50 view .LVU200
 716 010c 00F5CC70 		add	r0, r0, #408
 717 0110 2A44     		add	r2, r2, r5
 718 0112 FFF7FEFF 		bl	_ZN5rosic24FourierTransformerRadix226transformSymmetricSpectrumEPdS1_
 719              	.LVL50:
 184:open303/Source/DSPCode/rosic_MipMappedWaveTable.cpp ****     tableSet[t][tableLength+1] = tableSet[t][1];
ARM GAS  /var/folders/7j/7n_15nxd0bx4q178nq7r8qsr0000gn/T//ccXsnuVa.s 			page 42


 720              		.loc 1 184 5 is_stmt 1 view .LVU201
 184:open303/Source/DSPCode/rosic_MipMappedWaveTable.cpp ****     tableSet[t][tableLength+1] = tableSet[t][1];
 721              		.loc 1 184 47 is_stmt 0 view .LVU202
 722 0116 D9F80040 		ldr	r4, [r9]
 184:open303/Source/DSPCode/rosic_MipMappedWaveTable.cpp ****     tableSet[t][tableLength+1] = tableSet[t][1];
 723              		.loc 1 184 32 view .LVU203
 724 011a 0AFB0453 		mla	r3, r10, r4, r5
 185:open303/Source/DSPCode/rosic_MipMappedWaveTable.cpp ****     tableSet[t][tableLength+2] = tableSet[t][2];
 725              		.loc 1 185 47 view .LVU204
 726 011e 04FB0AAA 		mla	r10, r4, r10, r10
 169:open303/Source/DSPCode/rosic_MipMappedWaveTable.cpp ****   {
 727              		.loc 1 169 3 discriminator 2 view .LVU205
 728 0122 0134     		adds	r4, r4, #1
 184:open303/Source/DSPCode/rosic_MipMappedWaveTable.cpp ****     tableSet[t][tableLength+1] = tableSet[t][1];
 729              		.loc 1 184 47 view .LVU206
 730 0124 9B44     		add	fp, fp, r3
 184:open303/Source/DSPCode/rosic_MipMappedWaveTable.cpp ****     tableSet[t][tableLength+1] = tableSet[t][1];
 731              		.loc 1 184 32 view .LVU207
 732 0126 03F58042 		add	r2, r3, #16384
 185:open303/Source/DSPCode/rosic_MipMappedWaveTable.cpp ****     tableSet[t][tableLength+2] = tableSet[t][2];
 733              		.loc 1 185 47 view .LVU208
 734 012a AA44     		add	r10, r10, r5
 184:open303/Source/DSPCode/rosic_MipMappedWaveTable.cpp ****     tableSet[t][tableLength+1] = tableSet[t][1];
 735              		.loc 1 184 32 view .LVU209
 736 012c DBE90001 		ldrd	r0, [fp]
 737 0130 C2E90601 		strd	r0, [r2, #24]
 185:open303/Source/DSPCode/rosic_MipMappedWaveTable.cpp ****     tableSet[t][tableLength+2] = tableSet[t][2];
 738              		.loc 1 185 5 is_stmt 1 view .LVU210
 185:open303/Source/DSPCode/rosic_MipMappedWaveTable.cpp ****     tableSet[t][tableLength+2] = tableSet[t][2];
 739              		.loc 1 185 32 is_stmt 0 view .LVU211
 740 0134 DAE90001 		ldrd	r0, [r10]
 741 0138 03F58042 		add	r2, r3, #16384
 742 013c C2E90801 		strd	r0, [r2, #32]
 186:open303/Source/DSPCode/rosic_MipMappedWaveTable.cpp ****     tableSet[t][tableLength+3] = tableSet[t][3];
 743              		.loc 1 186 5 is_stmt 1 view .LVU212
 186:open303/Source/DSPCode/rosic_MipMappedWaveTable.cpp ****     tableSet[t][tableLength+3] = tableSet[t][3];
 744              		.loc 1 186 47 is_stmt 0 view .LVU213
 745 0140 03F50051 		add	r1, r3, #8192
 186:open303/Source/DSPCode/rosic_MipMappedWaveTable.cpp ****     tableSet[t][tableLength+3] = tableSet[t][3];
 746              		.loc 1 186 32 view .LVU214
 747 0144 03F58042 		add	r2, r3, #16384
 186:open303/Source/DSPCode/rosic_MipMappedWaveTable.cpp ****     tableSet[t][tableLength+3] = tableSet[t][3];
 748              		.loc 1 186 47 view .LVU215
 749 0148 2831     		adds	r1, r1, #40
 186:open303/Source/DSPCode/rosic_MipMappedWaveTable.cpp ****     tableSet[t][tableLength+3] = tableSet[t][3];
 750              		.loc 1 186 32 view .LVU216
 751 014a D1E90001 		ldrd	r0, [r1]
 752 014e C2E90A01 		strd	r0, [r2, #40]
 187:open303/Source/DSPCode/rosic_MipMappedWaveTable.cpp ****   }
 753              		.loc 1 187 5 is_stmt 1 view .LVU217
 187:open303/Source/DSPCode/rosic_MipMappedWaveTable.cpp ****   }
 754              		.loc 1 187 32 is_stmt 0 view .LVU218
 755 0152 03F58042 		add	r2, r3, #16384
 187:open303/Source/DSPCode/rosic_MipMappedWaveTable.cpp ****   }
 756              		.loc 1 187 47 view .LVU219
 757 0156 03F50053 		add	r3, r3, #8192
 187:open303/Source/DSPCode/rosic_MipMappedWaveTable.cpp ****   }
ARM GAS  /var/folders/7j/7n_15nxd0bx4q178nq7r8qsr0000gn/T//ccXsnuVa.s 			page 43


 758              		.loc 1 187 32 view .LVU220
 759 015a D3E90C01 		ldrd	r0, [r3, #48]
 760 015e C2E90C01 		strd	r0, [r2, #48]
 169:open303/Source/DSPCode/rosic_MipMappedWaveTable.cpp ****   {
 761              		.loc 1 169 3 is_stmt 1 discriminator 2 view .LVU221
 762 0162 8DE7     		b	.L34
 763              	.LVL51:
 764              	.L36:
 177:open303/Source/DSPCode/rosic_MipMappedWaveTable.cpp **** 
 765              		.loc 1 177 7 view .LVU222
 766 0164 0133     		adds	r3, r3, #1
 177:open303/Source/DSPCode/rosic_MipMappedWaveTable.cpp **** 
 767              		.loc 1 177 19 is_stmt 0 view .LVU223
 768 0166 0121     		movs	r1, #1
 769 0168 A0EC028B 		vstmia.64	r0!, {d8}
 176:open303/Source/DSPCode/rosic_MipMappedWaveTable.cpp ****       spectrum[i] = 0.0;
 770              		.loc 1 176 5 is_stmt 1 discriminator 3 view .LVU224
 771 016c BBE7     		b	.L35
 772              	.L46:
 773 016e 00BF     		.align	3
 774              	.L45:
 775 0170 00000000 		.word	0
 776 0174 00000000 		.word	0
 777 0178 00000000 		.word	0
 778 017c 00009040 		.word	1083179008
 779 0180 00000000 		.word	_ZZN5rosic18MipMappedWaveTable14generateMipMapEvE1i
 780 0184 00000000 		.word	_ZZN5rosic18MipMappedWaveTable14generateMipMapEvE8spectrum
 781 0188 00000000 		.word	_ZZN5rosic18MipMappedWaveTable14generateMipMapEvE1t
 782              		.cfi_endproc
 783              	.LFE1315:
 785              		.section	.text._ZN5rosic18MipMappedWaveTable11setWaveformEPdi,"ax",%progbits
 786              		.align	1
 787              		.global	_ZN5rosic18MipMappedWaveTable11setWaveformEPdi
 788              		.syntax unified
 789              		.thumb
 790              		.thumb_func
 792              	_ZN5rosic18MipMappedWaveTable11setWaveformEPdi:
 793              	.LVL52:
 794              	.LFB1306:
  33:open303/Source/DSPCode/rosic_MipMappedWaveTable.cpp ****   int i;
 795              		.loc 1 33 1 view -0
 796              		.cfi_startproc
 797              		@ args = 0, pretend = 0, frame = 0
 798              		@ frame_needed = 0, uses_anonymous_args = 0
 799              		@ link register save eliminated.
  34:open303/Source/DSPCode/rosic_MipMappedWaveTable.cpp ****   if( lengthInSamples == tableLength )
 800              		.loc 1 34 3 view .LVU226
  35:open303/Source/DSPCode/rosic_MipMappedWaveTable.cpp ****   {
 801              		.loc 1 35 3 view .LVU227
 802 0000 B2F5806F 		cmp	r2, #1024
  33:open303/Source/DSPCode/rosic_MipMappedWaveTable.cpp ****   int i;
 803              		.loc 1 33 1 is_stmt 0 view .LVU228
 804 0004 30B4     		push	{r4, r5}
 805              		.cfi_def_cfa_offset 8
 806              		.cfi_offset 4, -8
 807              		.cfi_offset 5, -4
  35:open303/Source/DSPCode/rosic_MipMappedWaveTable.cpp ****   {
ARM GAS  /var/folders/7j/7n_15nxd0bx4q178nq7r8qsr0000gn/T//ccXsnuVa.s 			page 44


 808              		.loc 1 35 3 view .LVU229
 809 0006 09D1     		bne	.L48
 810 0008 00F11803 		add	r3, r0, #24
 811 000c 01F50052 		add	r2, r1, #8192
 812              	.LVL53:
 813              	.L49:
  40:open303/Source/DSPCode/rosic_MipMappedWaveTable.cpp ****   }
 814              		.loc 1 40 7 is_stmt 1 view .LVU230
  40:open303/Source/DSPCode/rosic_MipMappedWaveTable.cpp ****   }
 815              		.loc 1 40 40 is_stmt 0 view .LVU231
 816 0010 F1E80245 		ldrd	r4, [r1], #8
  39:open303/Source/DSPCode/rosic_MipMappedWaveTable.cpp ****       prototypeTable[i] = newWaveForm[i];
 817              		.loc 1 39 16 discriminator 1 view .LVU232
 818 0014 9142     		cmp	r1, r2
  40:open303/Source/DSPCode/rosic_MipMappedWaveTable.cpp ****   }
 819              		.loc 1 40 25 view .LVU233
 820 0016 E3E80245 		strd	r4, [r3], #8
  39:open303/Source/DSPCode/rosic_MipMappedWaveTable.cpp ****       prototypeTable[i] = newWaveForm[i];
 821              		.loc 1 39 5 is_stmt 1 discriminator 3 view .LVU234
  39:open303/Source/DSPCode/rosic_MipMappedWaveTable.cpp ****       prototypeTable[i] = newWaveForm[i];
 822              		.loc 1 39 16 discriminator 1 view .LVU235
 823 001a F9D1     		bne	.L49
 824              	.LVL54:
 825              	.L48:
  46:open303/Source/DSPCode/rosic_MipMappedWaveTable.cpp **** }
 826              		.loc 1 46 3 view .LVU236
  47:open303/Source/DSPCode/rosic_MipMappedWaveTable.cpp **** 
 827              		.loc 1 47 1 is_stmt 0 view .LVU237
 828 001c 30BC     		pop	{r4, r5}
 829              		.cfi_restore 5
 830              		.cfi_restore 4
 831              		.cfi_def_cfa_offset 0
  46:open303/Source/DSPCode/rosic_MipMappedWaveTable.cpp **** }
 832              		.loc 1 46 17 view .LVU238
 833 001e FFF7FEBF 		b	_ZN5rosic18MipMappedWaveTable14generateMipMapEv
 834              	.LVL55:
  46:open303/Source/DSPCode/rosic_MipMappedWaveTable.cpp **** }
 835              		.loc 1 46 17 view .LVU239
 836              		.cfi_endproc
 837              	.LFE1306:
 839              		.section	.text._ZN5rosic18MipMappedWaveTable12fillWithSineEv,"ax",%progbits
 840              		.align	1
 841              		.global	_ZN5rosic18MipMappedWaveTable12fillWithSineEv
 842              		.syntax unified
 843              		.thumb
 844              		.thumb_func
 846              	_ZN5rosic18MipMappedWaveTable12fillWithSineEv:
 847              	.LVL56:
 848              	.LFB1316:
 190:open303/Source/DSPCode/rosic_MipMappedWaveTable.cpp **** 
 191:open303/Source/DSPCode/rosic_MipMappedWaveTable.cpp **** //-------------------------------------------------------------------------------------------------
 192:open303/Source/DSPCode/rosic_MipMappedWaveTable.cpp **** // fill the prototype-table with various standard waveforms:
 193:open303/Source/DSPCode/rosic_MipMappedWaveTable.cpp **** 
 194:open303/Source/DSPCode/rosic_MipMappedWaveTable.cpp **** void MipMappedWaveTable::fillWithSine()
 195:open303/Source/DSPCode/rosic_MipMappedWaveTable.cpp **** {
 849              		.loc 1 195 1 is_stmt 1 view -0
 850              		.cfi_startproc
ARM GAS  /var/folders/7j/7n_15nxd0bx4q178nq7r8qsr0000gn/T//ccXsnuVa.s 			page 45


 851              		@ args = 0, pretend = 0, frame = 0
 852              		@ frame_needed = 0, uses_anonymous_args = 0
 196:open303/Source/DSPCode/rosic_MipMappedWaveTable.cpp ****   for (long i=0; i<tableLength; i++)
 853              		.loc 1 196 3 view .LVU241
 854              	.LBB39:
 855              		.loc 1 196 19 discriminator 1 view .LVU242
 856              	.LBE39:
 195:open303/Source/DSPCode/rosic_MipMappedWaveTable.cpp ****   for (long i=0; i<tableLength; i++)
 857              		.loc 1 195 1 is_stmt 0 view .LVU243
 858 0000 70B5     		push	{r4, r5, r6, lr}
 859              		.cfi_def_cfa_offset 16
 860              		.cfi_offset 4, -16
 861              		.cfi_offset 5, -12
 862              		.cfi_offset 6, -8
 863              		.cfi_offset 14, -4
 195:open303/Source/DSPCode/rosic_MipMappedWaveTable.cpp ****   for (long i=0; i<tableLength; i++)
 864              		.loc 1 195 1 view .LVU244
 865 0002 0546     		mov	r5, r0
 866 0004 00F11806 		add	r6, r0, #24
 867              	.LBB40:
 868              		.loc 1 196 13 view .LVU245
 869 0008 0024     		movs	r4, #0
 870              	.LVL57:
 871              	.L52:
 197:open303/Source/DSPCode/rosic_MipMappedWaveTable.cpp ****     prototypeTable[i] = sin( (2.0*PI*i) / (double) (tableLength) );
 872              		.loc 1 197 5 is_stmt 1 view .LVU246
 873              		.loc 1 197 37 is_stmt 0 view .LVU247
 874 000a 07EE904A 		vmov	s15, r4	@ int
 196:open303/Source/DSPCode/rosic_MipMappedWaveTable.cpp ****   for (long i=0; i<tableLength; i++)
 875              		.loc 1 196 3 discriminator 3 view .LVU248
 876 000e 0134     		adds	r4, r4, #1
 877              	.LVL58:
 878              		.loc 1 197 37 view .LVU249
 879 0010 9FED0B6B 		vldr.64	d6, .L54
 880 0014 B8EEE77B 		vcvt.f64.s32	d7, s15
 881              		.loc 1 197 28 view .LVU250
 882 0018 9FED0B0B 		vldr.64	d0, .L54+8
 883              		.loc 1 197 37 view .LVU251
 884 001c 27EE067B 		vmul.f64	d7, d7, d6
 885              		.loc 1 197 28 view .LVU252
 886 0020 27EE000B 		vmul.f64	d0, d7, d0
 887 0024 FFF7FEFF 		bl	sin
 888              	.LVL59:
 196:open303/Source/DSPCode/rosic_MipMappedWaveTable.cpp ****   for (long i=0; i<tableLength; i++)
 889              		.loc 1 196 19 discriminator 1 view .LVU253
 890 0028 B4F5806F 		cmp	r4, #1024
 891              		.loc 1 197 23 discriminator 1 view .LVU254
 892 002c A6EC020B 		vstmia.64	r6!, {d0}
 196:open303/Source/DSPCode/rosic_MipMappedWaveTable.cpp ****   for (long i=0; i<tableLength; i++)
 893              		.loc 1 196 3 is_stmt 1 discriminator 3 view .LVU255
 894              	.LVL60:
 196:open303/Source/DSPCode/rosic_MipMappedWaveTable.cpp ****   for (long i=0; i<tableLength; i++)
 895              		.loc 1 196 19 discriminator 1 view .LVU256
 896 0030 EBD1     		bne	.L52
 897              	.LBE40:
 198:open303/Source/DSPCode/rosic_MipMappedWaveTable.cpp ****   generateMipMap();
 898              		.loc 1 198 3 view .LVU257
ARM GAS  /var/folders/7j/7n_15nxd0bx4q178nq7r8qsr0000gn/T//ccXsnuVa.s 			page 46


 899              		.loc 1 198 17 is_stmt 0 view .LVU258
 900 0032 2846     		mov	r0, r5
 199:open303/Source/DSPCode/rosic_MipMappedWaveTable.cpp **** }
 901              		.loc 1 199 1 view .LVU259
 902 0034 BDE87040 		pop	{r4, r5, r6, lr}
 903              		.cfi_restore 14
 904              		.cfi_restore 6
 905              		.cfi_restore 5
 906              		.cfi_restore 4
 907              		.cfi_def_cfa_offset 0
 908              	.LVL61:
 198:open303/Source/DSPCode/rosic_MipMappedWaveTable.cpp ****   generateMipMap();
 909              		.loc 1 198 17 view .LVU260
 910 0038 FFF7FEBF 		b	_ZN5rosic18MipMappedWaveTable14generateMipMapEv
 911              	.LVL62:
 912              	.L55:
 198:open303/Source/DSPCode/rosic_MipMappedWaveTable.cpp ****   generateMipMap();
 913              		.loc 1 198 17 view .LVU261
 914 003c AFF30080 		.align	3
 915              	.L54:
 916 0040 182D4454 		.word	1413754136
 917 0044 FB211940 		.word	1075388923
 918 0048 00000000 		.word	0
 919 004c 0000503F 		.word	1062207488
 920              		.cfi_endproc
 921              	.LFE1316:
 923              		.section	.text._ZN5rosic18MipMappedWaveTable16fillWithTriangleEv,"ax",%progbits
 924              		.align	1
 925              		.global	_ZN5rosic18MipMappedWaveTable16fillWithTriangleEv
 926              		.syntax unified
 927              		.thumb
 928              		.thumb_func
 930              	_ZN5rosic18MipMappedWaveTable16fillWithTriangleEv:
 931              	.LVL63:
 932              	.LFB1317:
 200:open303/Source/DSPCode/rosic_MipMappedWaveTable.cpp **** 
 201:open303/Source/DSPCode/rosic_MipMappedWaveTable.cpp **** void MipMappedWaveTable::fillWithTriangle()
 202:open303/Source/DSPCode/rosic_MipMappedWaveTable.cpp **** {
 933              		.loc 1 202 1 is_stmt 1 view -0
 934              		.cfi_startproc
 935              		@ args = 0, pretend = 0, frame = 0
 936              		@ frame_needed = 0, uses_anonymous_args = 0
 937              		@ link register save eliminated.
 203:open303/Source/DSPCode/rosic_MipMappedWaveTable.cpp ****   int i;
 938              		.loc 1 203 3 view .LVU263
 204:open303/Source/DSPCode/rosic_MipMappedWaveTable.cpp ****   for (i=0; i<(tableLength/4); i++)
 939              		.loc 1 204 3 view .LVU264
 940              		.loc 1 204 14 discriminator 1 view .LVU265
 941 0000 00F11802 		add	r2, r0, #24
 202:open303/Source/DSPCode/rosic_MipMappedWaveTable.cpp ****   int i;
 942              		.loc 1 202 1 is_stmt 0 view .LVU266
 943 0004 0023     		movs	r3, #0
 944              	.LVL64:
 945              	.L57:
 205:open303/Source/DSPCode/rosic_MipMappedWaveTable.cpp ****     prototypeTable[i] = (double)(4*i) / (double)(tableLength);
 946              		.loc 1 205 5 is_stmt 1 view .LVU267
 947              		.loc 1 205 25 is_stmt 0 view .LVU268
ARM GAS  /var/folders/7j/7n_15nxd0bx4q178nq7r8qsr0000gn/T//ccXsnuVa.s 			page 47


 948 0006 07EE903A 		vmov	s15, r3	@ int
 204:open303/Source/DSPCode/rosic_MipMappedWaveTable.cpp ****   for (i=0; i<(tableLength/4); i++)
 949              		.loc 1 204 14 discriminator 1 view .LVU269
 950 000a 0433     		adds	r3, r3, #4
 951              		.loc 1 205 25 view .LVU270
 952 000c B8EEE77B 		vcvt.f64.s32	d7, s15
 204:open303/Source/DSPCode/rosic_MipMappedWaveTable.cpp ****   for (i=0; i<(tableLength/4); i++)
 953              		.loc 1 204 14 discriminator 1 view .LVU271
 954 0010 B3F5806F 		cmp	r3, #1024
 955              		.loc 1 205 39 view .LVU272
 956 0014 9FED146B 		vldr.64	d6, .L63
 957 0018 27EE067B 		vmul.f64	d7, d7, d6
 958              		.loc 1 205 23 view .LVU273
 959 001c A2EC027B 		vstmia.64	r2!, {d7}
 204:open303/Source/DSPCode/rosic_MipMappedWaveTable.cpp ****   for (i=0; i<(tableLength/4); i++)
 960              		.loc 1 204 3 is_stmt 1 discriminator 3 view .LVU274
 204:open303/Source/DSPCode/rosic_MipMappedWaveTable.cpp ****   for (i=0; i<(tableLength/4); i++)
 961              		.loc 1 204 14 discriminator 1 view .LVU275
 962 0020 F1D1     		bne	.L57
 963 0022 00F61802 		addw	r2, r0, #2072
 964              	.L58:
 206:open303/Source/DSPCode/rosic_MipMappedWaveTable.cpp **** 
 207:open303/Source/DSPCode/rosic_MipMappedWaveTable.cpp ****   for (i=(tableLength/4); i<(3*tableLength/4); i++)
 208:open303/Source/DSPCode/rosic_MipMappedWaveTable.cpp ****     prototypeTable[i] = 2.0 - ((double)(4*i) / (double)(tableLength));
 965              		.loc 1 208 5 view .LVU276
 966              		.loc 1 208 32 is_stmt 0 view .LVU277
 967 0026 07EE903A 		vmov	s15, r3	@ int
 207:open303/Source/DSPCode/rosic_MipMappedWaveTable.cpp ****     prototypeTable[i] = 2.0 - ((double)(4*i) / (double)(tableLength));
 968              		.loc 1 207 28 discriminator 1 view .LVU278
 969 002a 0433     		adds	r3, r3, #4
 970              		.loc 1 208 32 view .LVU279
 971 002c B8EEE75B 		vcvt.f64.s32	d5, s15
 207:open303/Source/DSPCode/rosic_MipMappedWaveTable.cpp ****     prototypeTable[i] = 2.0 - ((double)(4*i) / (double)(tableLength));
 972              		.loc 1 207 28 discriminator 1 view .LVU280
 973 0030 B3F5406F 		cmp	r3, #3072
 974              		.loc 1 208 23 view .LVU281
 975 0034 B0EE007B 		vmov.f64	d7, #2.0e+0
 976 0038 A5EE467B 		vfms.f64	d7, d5, d6
 977 003c A2EC027B 		vstmia.64	r2!, {d7}
 207:open303/Source/DSPCode/rosic_MipMappedWaveTable.cpp ****     prototypeTable[i] = 2.0 - ((double)(4*i) / (double)(tableLength));
 978              		.loc 1 207 3 is_stmt 1 discriminator 3 view .LVU282
 207:open303/Source/DSPCode/rosic_MipMappedWaveTable.cpp ****     prototypeTable[i] = 2.0 - ((double)(4*i) / (double)(tableLength));
 979              		.loc 1 207 28 discriminator 1 view .LVU283
 980 0040 F1D1     		bne	.L58
 981 0042 00F5C052 		add	r2, r0, #6144
 982 0046 1832     		adds	r2, r2, #24
 983              	.L59:
 209:open303/Source/DSPCode/rosic_MipMappedWaveTable.cpp **** 
 210:open303/Source/DSPCode/rosic_MipMappedWaveTable.cpp ****   for (i=(3*tableLength/4); i<(tableLength); i++)
 211:open303/Source/DSPCode/rosic_MipMappedWaveTable.cpp ****     prototypeTable[i] = -4.0+ ((double)(4*i) / (double)(tableLength));
 984              		.loc 1 211 5 view .LVU284
 985              		.loc 1 211 32 is_stmt 0 view .LVU285
 986 0048 07EE903A 		vmov	s15, r3	@ int
 210:open303/Source/DSPCode/rosic_MipMappedWaveTable.cpp ****     prototypeTable[i] = -4.0+ ((double)(4*i) / (double)(tableLength));
 987              		.loc 1 210 30 discriminator 1 view .LVU286
 988 004c 0433     		adds	r3, r3, #4
 989              		.loc 1 211 32 view .LVU287
ARM GAS  /var/folders/7j/7n_15nxd0bx4q178nq7r8qsr0000gn/T//ccXsnuVa.s 			page 48


 990 004e B8EEE75B 		vcvt.f64.s32	d5, s15
 210:open303/Source/DSPCode/rosic_MipMappedWaveTable.cpp ****     prototypeTable[i] = -4.0+ ((double)(4*i) / (double)(tableLength));
 991              		.loc 1 210 30 discriminator 1 view .LVU288
 992 0052 B3F5805F 		cmp	r3, #4096
 993              		.loc 1 211 23 view .LVU289
 994 0056 B9EE007B 		vmov.f64	d7, #-4.0e+0
 995 005a A5EE067B 		vfma.f64	d7, d5, d6
 996 005e A2EC027B 		vstmia.64	r2!, {d7}
 210:open303/Source/DSPCode/rosic_MipMappedWaveTable.cpp ****     prototypeTable[i] = -4.0+ ((double)(4*i) / (double)(tableLength));
 997              		.loc 1 210 3 is_stmt 1 discriminator 3 view .LVU290
 210:open303/Source/DSPCode/rosic_MipMappedWaveTable.cpp ****     prototypeTable[i] = -4.0+ ((double)(4*i) / (double)(tableLength));
 998              		.loc 1 210 30 discriminator 1 view .LVU291
 999 0062 F1D1     		bne	.L59
 212:open303/Source/DSPCode/rosic_MipMappedWaveTable.cpp **** 
 213:open303/Source/DSPCode/rosic_MipMappedWaveTable.cpp ****   generateMipMap();
 1000              		.loc 1 213 3 view .LVU292
 1001              		.loc 1 213 17 is_stmt 0 view .LVU293
 1002 0064 FFF7FEBF 		b	_ZN5rosic18MipMappedWaveTable14generateMipMapEv
 1003              	.LVL65:
 1004              	.L64:
 1005              		.loc 1 213 17 view .LVU294
 1006              		.align	3
 1007              	.L63:
 1008 0068 00000000 		.word	0
 1009 006c 0000503F 		.word	1062207488
 1010              		.cfi_endproc
 1011              	.LFE1317:
 1013              		.section	.text._ZN5rosic18MipMappedWaveTable14fillWithSquareEv,"ax",%progbits
 1014              		.align	1
 1015              		.global	_ZN5rosic18MipMappedWaveTable14fillWithSquareEv
 1016              		.syntax unified
 1017              		.thumb
 1018              		.thumb_func
 1020              	_ZN5rosic18MipMappedWaveTable14fillWithSquareEv:
 1021              	.LVL66:
 1022              	.LFB1318:
 214:open303/Source/DSPCode/rosic_MipMappedWaveTable.cpp **** }
 215:open303/Source/DSPCode/rosic_MipMappedWaveTable.cpp **** 
 216:open303/Source/DSPCode/rosic_MipMappedWaveTable.cpp **** void MipMappedWaveTable::fillWithSquare()
 217:open303/Source/DSPCode/rosic_MipMappedWaveTable.cpp **** {
 1023              		.loc 1 217 1 is_stmt 1 view -0
 1024              		.cfi_startproc
 1025              		@ args = 0, pretend = 0, frame = 0
 1026              		@ frame_needed = 0, uses_anonymous_args = 0
 218:open303/Source/DSPCode/rosic_MipMappedWaveTable.cpp ****   int    N  = tableLength;
 1027              		.loc 1 218 3 view .LVU296
 219:open303/Source/DSPCode/rosic_MipMappedWaveTable.cpp ****   double k  = symmetry;
 1028              		.loc 1 219 3 view .LVU297
 220:open303/Source/DSPCode/rosic_MipMappedWaveTable.cpp ****   int    N1 = clip(roundToInt(k*(N-1)), 1, N-1);
 1029              		.loc 1 220 3 view .LVU298
 1030              		.loc 1 220 19 is_stmt 0 view .LVU299
 1031 0000 90ED000B 		vldr.64	d0, [r0]
 1032 0004 9FED147B 		vldr.64	d7, .L70
 217:open303/Source/DSPCode/rosic_MipMappedWaveTable.cpp ****   int    N  = tableLength;
 1033              		.loc 1 217 1 view .LVU300
 1034 0008 F8B5     		push	{r3, r4, r5, r6, r7, lr}
 1035              		.cfi_def_cfa_offset 24
ARM GAS  /var/folders/7j/7n_15nxd0bx4q178nq7r8qsr0000gn/T//ccXsnuVa.s 			page 49


 1036              		.cfi_offset 3, -24
 1037              		.cfi_offset 4, -20
 1038              		.cfi_offset 5, -16
 1039              		.cfi_offset 6, -12
 1040              		.cfi_offset 7, -8
 1041              		.cfi_offset 14, -4
 1042              		.loc 1 220 19 view .LVU301
 1043 000a 20EE070B 		vmul.f64	d0, d0, d7
 1044 000e 00F11804 		add	r4, r0, #24
 217:open303/Source/DSPCode/rosic_MipMappedWaveTable.cpp ****   int    N  = tableLength;
 1045              		.loc 1 217 1 view .LVU302
 1046 0012 0546     		mov	r5, r0
 1047              		.loc 1 220 19 view .LVU303
 1048 0014 FFF7FEFF 		bl	_ZN5rosic10roundToIntEd
 1049              	.LVL67:
 1050              	.LBB41:
 1051              	.LBI41:
 1052              		.file 5 "open303/Source/DSPCode/rosic_RealFunctions.h"
   1:open303/Source/DSPCode/rosic_RealFunctions.h **** #ifndef rosic_RealFunctions_h
   2:open303/Source/DSPCode/rosic_RealFunctions.h **** #define rosic_RealFunctions_h
   3:open303/Source/DSPCode/rosic_RealFunctions.h **** 
   4:open303/Source/DSPCode/rosic_RealFunctions.h **** // standard library includes:
   5:open303/Source/DSPCode/rosic_RealFunctions.h **** #include <math.h>
   6:open303/Source/DSPCode/rosic_RealFunctions.h **** #include <stdlib.h>
   7:open303/Source/DSPCode/rosic_RealFunctions.h **** 
   8:open303/Source/DSPCode/rosic_RealFunctions.h **** // rosic includes:
   9:open303/Source/DSPCode/rosic_RealFunctions.h **** #include "GlobalFunctions.h"
  10:open303/Source/DSPCode/rosic_RealFunctions.h **** #include "rosic_NumberManipulations.h"
  11:open303/Source/DSPCode/rosic_RealFunctions.h **** 
  12:open303/Source/DSPCode/rosic_RealFunctions.h **** namespace rosic
  13:open303/Source/DSPCode/rosic_RealFunctions.h **** {
  14:open303/Source/DSPCode/rosic_RealFunctions.h **** 
  15:open303/Source/DSPCode/rosic_RealFunctions.h ****   /** Inverse hyperbolic sine. */
  16:open303/Source/DSPCode/rosic_RealFunctions.h ****   INLINE double asinh(double x);
  17:open303/Source/DSPCode/rosic_RealFunctions.h **** 
  18:open303/Source/DSPCode/rosic_RealFunctions.h ****   /** Returns -1.0 if x is below low, 0.0 if x is between low and high and 1.0 if x is above high. 
  19:open303/Source/DSPCode/rosic_RealFunctions.h ****   INLINE double belowOrAbove(double x, double low, double high);
  20:open303/Source/DSPCode/rosic_RealFunctions.h **** 
  21:open303/Source/DSPCode/rosic_RealFunctions.h ****   /** Clips x into the range min...max. */
  22:open303/Source/DSPCode/rosic_RealFunctions.h ****   template <class T>
  23:open303/Source/DSPCode/rosic_RealFunctions.h ****   INLINE T clip(T x, T min, T max);
  24:open303/Source/DSPCode/rosic_RealFunctions.h **** 
  25:open303/Source/DSPCode/rosic_RealFunctions.h ****   /** Evaluates the quartic polynomial y = a4*x^4 + a3*x^3 + a2*x^2 + a1*x + a0 at x. */
  26:open303/Source/DSPCode/rosic_RealFunctions.h ****   INLINE double evaluateQuartic(double x, double a0, double a1, double a2, double a3, double a4);
  27:open303/Source/DSPCode/rosic_RealFunctions.h **** 
  28:open303/Source/DSPCode/rosic_RealFunctions.h ****   /** foldover at the specified value */
  29:open303/Source/DSPCode/rosic_RealFunctions.h ****   INLINE double foldOver(double x, double min, double max);
  30:open303/Source/DSPCode/rosic_RealFunctions.h **** 
  31:open303/Source/DSPCode/rosic_RealFunctions.h ****   /** Computes an integer power of x by successively multiplying x with itself. */
  32:open303/Source/DSPCode/rosic_RealFunctions.h ****   INLINE double integerPower(double x, int exponent);
  33:open303/Source/DSPCode/rosic_RealFunctions.h **** 
  34:open303/Source/DSPCode/rosic_RealFunctions.h ****   /** Generates a pseudo-random number between min and max. */
  35:open303/Source/DSPCode/rosic_RealFunctions.h ****   INLINE double random(double min=0.0, double max=1.0);
  36:open303/Source/DSPCode/rosic_RealFunctions.h **** 
  37:open303/Source/DSPCode/rosic_RealFunctions.h ****   /** Generates a 2*pi periodic saw wave. */
  38:open303/Source/DSPCode/rosic_RealFunctions.h ****   INLINE double sawWave(double x);
  39:open303/Source/DSPCode/rosic_RealFunctions.h **** 
ARM GAS  /var/folders/7j/7n_15nxd0bx4q178nq7r8qsr0000gn/T//ccXsnuVa.s 			page 50


  40:open303/Source/DSPCode/rosic_RealFunctions.h ****   /** Calculates sine and cosine of x - this is more efficient than calling sin(x) and
  41:open303/Source/DSPCode/rosic_RealFunctions.h ****   cos(x) seperately. */
  42:open303/Source/DSPCode/rosic_RealFunctions.h ****   INLINE void sinCos(double x, double* sinResult, double* cosResult);
  43:open303/Source/DSPCode/rosic_RealFunctions.h **** 
  44:open303/Source/DSPCode/rosic_RealFunctions.h ****   /** Calculates a parabolic approximation of the sine and cosine of x. */
  45:open303/Source/DSPCode/rosic_RealFunctions.h ****   INLINE void sinCosApprox(double x, double* sinResult, double* cosResult);
  46:open303/Source/DSPCode/rosic_RealFunctions.h **** 
  47:open303/Source/DSPCode/rosic_RealFunctions.h ****   /** Generates a 2*pi periodic square wave. */
  48:open303/Source/DSPCode/rosic_RealFunctions.h ****   INLINE double sqrWave(double x);
  49:open303/Source/DSPCode/rosic_RealFunctions.h **** 
  50:open303/Source/DSPCode/rosic_RealFunctions.h ****   /** Rational approximation of the hyperbolic tangent. */
  51:open303/Source/DSPCode/rosic_RealFunctions.h ****   INLINE double tanhApprox(double x);
  52:open303/Source/DSPCode/rosic_RealFunctions.h **** 
  53:open303/Source/DSPCode/rosic_RealFunctions.h ****   /** Generates a 2*pi periodic triangle wave. */
  54:open303/Source/DSPCode/rosic_RealFunctions.h ****   INLINE double triWave(double x);
  55:open303/Source/DSPCode/rosic_RealFunctions.h **** 
  56:open303/Source/DSPCode/rosic_RealFunctions.h ****   //===============================================================================================
  57:open303/Source/DSPCode/rosic_RealFunctions.h ****   // implementation:
  58:open303/Source/DSPCode/rosic_RealFunctions.h **** 
  59:open303/Source/DSPCode/rosic_RealFunctions.h ****   INLINE double asinh(double x)
  60:open303/Source/DSPCode/rosic_RealFunctions.h ****   {
  61:open303/Source/DSPCode/rosic_RealFunctions.h ****     return log(x + sqrt(x*x+1) );
  62:open303/Source/DSPCode/rosic_RealFunctions.h ****   }
  63:open303/Source/DSPCode/rosic_RealFunctions.h **** 
  64:open303/Source/DSPCode/rosic_RealFunctions.h ****   INLINE double belowOrAbove(double x, double low, double high)
  65:open303/Source/DSPCode/rosic_RealFunctions.h ****   {
  66:open303/Source/DSPCode/rosic_RealFunctions.h ****     if( x < low )
  67:open303/Source/DSPCode/rosic_RealFunctions.h ****       return -1.0;
  68:open303/Source/DSPCode/rosic_RealFunctions.h ****     else if ( x > high )
  69:open303/Source/DSPCode/rosic_RealFunctions.h ****       return 1.0;
  70:open303/Source/DSPCode/rosic_RealFunctions.h ****     else
  71:open303/Source/DSPCode/rosic_RealFunctions.h ****       return 0.0;
  72:open303/Source/DSPCode/rosic_RealFunctions.h ****   }
  73:open303/Source/DSPCode/rosic_RealFunctions.h **** 
